ARM GAS  /tmp/cc4ZeGpA.s 			page 1


   1              		.cpu cortex-m7
   2              		.eabi_attribute 28, 1
   3              		.eabi_attribute 20, 1
   4              		.eabi_attribute 21, 1
   5              		.eabi_attribute 23, 3
   6              		.eabi_attribute 24, 1
   7              		.eabi_attribute 25, 1
   8              		.eabi_attribute 26, 1
   9              		.eabi_attribute 30, 6
  10              		.eabi_attribute 34, 1
  11              		.eabi_attribute 18, 4
  12              		.file	"cmsis_os.c"
  13              		.text
  14              	.Ltext0:
  15              		.cfi_sections	.debug_frame
  16              		.section	.text.makeFreeRtosPriority,"ax",%progbits
  17              		.align	1
  18              		.arch armv7e-m
  19              		.syntax unified
  20              		.thumb
  21              		.thumb_func
  22              		.fpu fpv5-d16
  24              	makeFreeRtosPriority:
  25              	.LFB107:
  26              		.file 1 "Middlewares/Third_Party/FreeRTOS/Source/CMSIS_RTOS/cmsis_os.c"
   1:Middlewares/Third_Party/FreeRTOS/Source/CMSIS_RTOS/cmsis_os.c **** /* ----------------------------------------------------------------------
   2:Middlewares/Third_Party/FreeRTOS/Source/CMSIS_RTOS/cmsis_os.c ****  * $Date:        5. February 2013
   3:Middlewares/Third_Party/FreeRTOS/Source/CMSIS_RTOS/cmsis_os.c ****  * $Revision:    V1.02
   4:Middlewares/Third_Party/FreeRTOS/Source/CMSIS_RTOS/cmsis_os.c ****  *
   5:Middlewares/Third_Party/FreeRTOS/Source/CMSIS_RTOS/cmsis_os.c ****  * Project:      CMSIS-RTOS API
   6:Middlewares/Third_Party/FreeRTOS/Source/CMSIS_RTOS/cmsis_os.c ****  * Title:        cmsis_os.c
   7:Middlewares/Third_Party/FreeRTOS/Source/CMSIS_RTOS/cmsis_os.c ****  *
   8:Middlewares/Third_Party/FreeRTOS/Source/CMSIS_RTOS/cmsis_os.c ****  * Version 0.02
   9:Middlewares/Third_Party/FreeRTOS/Source/CMSIS_RTOS/cmsis_os.c ****  *    Initial Proposal Phase
  10:Middlewares/Third_Party/FreeRTOS/Source/CMSIS_RTOS/cmsis_os.c ****  * Version 0.03
  11:Middlewares/Third_Party/FreeRTOS/Source/CMSIS_RTOS/cmsis_os.c ****  *    osKernelStart added, optional feature: main started as thread
  12:Middlewares/Third_Party/FreeRTOS/Source/CMSIS_RTOS/cmsis_os.c ****  *    osSemaphores have standard behavior
  13:Middlewares/Third_Party/FreeRTOS/Source/CMSIS_RTOS/cmsis_os.c ****  *    osTimerCreate does not start the timer, added osTimerStart
  14:Middlewares/Third_Party/FreeRTOS/Source/CMSIS_RTOS/cmsis_os.c ****  *    osThreadPass is renamed to osThreadYield
  15:Middlewares/Third_Party/FreeRTOS/Source/CMSIS_RTOS/cmsis_os.c ****  * Version 1.01
  16:Middlewares/Third_Party/FreeRTOS/Source/CMSIS_RTOS/cmsis_os.c ****  *    Support for C++ interface
  17:Middlewares/Third_Party/FreeRTOS/Source/CMSIS_RTOS/cmsis_os.c ****  *     - const attribute removed from the osXxxxDef_t typedef's
  18:Middlewares/Third_Party/FreeRTOS/Source/CMSIS_RTOS/cmsis_os.c ****  *     - const attribute added to the osXxxxDef macros
  19:Middlewares/Third_Party/FreeRTOS/Source/CMSIS_RTOS/cmsis_os.c ****  *    Added: osTimerDelete, osMutexDelete, osSemaphoreDelete
  20:Middlewares/Third_Party/FreeRTOS/Source/CMSIS_RTOS/cmsis_os.c ****  *    Added: osKernelInitialize
  21:Middlewares/Third_Party/FreeRTOS/Source/CMSIS_RTOS/cmsis_os.c ****  * Version 1.02
  22:Middlewares/Third_Party/FreeRTOS/Source/CMSIS_RTOS/cmsis_os.c ****  *    Control functions for short timeouts in microsecond resolution:
  23:Middlewares/Third_Party/FreeRTOS/Source/CMSIS_RTOS/cmsis_os.c ****  *    Added: osKernelSysTick, osKernelSysTickFrequency, osKernelSysTickMicroSec
  24:Middlewares/Third_Party/FreeRTOS/Source/CMSIS_RTOS/cmsis_os.c ****  *    Removed: osSignalGet 
  25:Middlewares/Third_Party/FreeRTOS/Source/CMSIS_RTOS/cmsis_os.c ****  *    
  26:Middlewares/Third_Party/FreeRTOS/Source/CMSIS_RTOS/cmsis_os.c ****  *  
  27:Middlewares/Third_Party/FreeRTOS/Source/CMSIS_RTOS/cmsis_os.c ****  *----------------------------------------------------------------------------
  28:Middlewares/Third_Party/FreeRTOS/Source/CMSIS_RTOS/cmsis_os.c ****  *
  29:Middlewares/Third_Party/FreeRTOS/Source/CMSIS_RTOS/cmsis_os.c ****  * Portions Copyright © 2016 STMicroelectronics International N.V. All rights reserved.
  30:Middlewares/Third_Party/FreeRTOS/Source/CMSIS_RTOS/cmsis_os.c ****  * Portions Copyright (c) 2013 ARM LIMITED
  31:Middlewares/Third_Party/FreeRTOS/Source/CMSIS_RTOS/cmsis_os.c ****  * All rights reserved.
  32:Middlewares/Third_Party/FreeRTOS/Source/CMSIS_RTOS/cmsis_os.c ****  * Redistribution and use in source and binary forms, with or without
ARM GAS  /tmp/cc4ZeGpA.s 			page 2


  33:Middlewares/Third_Party/FreeRTOS/Source/CMSIS_RTOS/cmsis_os.c ****  * modification, are permitted provided that the following conditions are met:
  34:Middlewares/Third_Party/FreeRTOS/Source/CMSIS_RTOS/cmsis_os.c ****  *  - Redistributions of source code must retain the above copyright
  35:Middlewares/Third_Party/FreeRTOS/Source/CMSIS_RTOS/cmsis_os.c ****  *    notice, this list of conditions and the following disclaimer.
  36:Middlewares/Third_Party/FreeRTOS/Source/CMSIS_RTOS/cmsis_os.c ****  *  - Redistributions in binary form must reproduce the above copyright
  37:Middlewares/Third_Party/FreeRTOS/Source/CMSIS_RTOS/cmsis_os.c ****  *    notice, this list of conditions and the following disclaimer in the
  38:Middlewares/Third_Party/FreeRTOS/Source/CMSIS_RTOS/cmsis_os.c ****  *    documentation and/or other materials provided with the distribution.
  39:Middlewares/Third_Party/FreeRTOS/Source/CMSIS_RTOS/cmsis_os.c ****  *  - Neither the name of ARM  nor the names of its contributors may be used
  40:Middlewares/Third_Party/FreeRTOS/Source/CMSIS_RTOS/cmsis_os.c ****  *    to endorse or promote products derived from this software without
  41:Middlewares/Third_Party/FreeRTOS/Source/CMSIS_RTOS/cmsis_os.c ****  *    specific prior written permission.
  42:Middlewares/Third_Party/FreeRTOS/Source/CMSIS_RTOS/cmsis_os.c ****  *
  43:Middlewares/Third_Party/FreeRTOS/Source/CMSIS_RTOS/cmsis_os.c ****  * THIS SOFTWARE IS PROVIDED BY THE COPYRIGHT HOLDERS AND CONTRIBUTORS "AS IS"
  44:Middlewares/Third_Party/FreeRTOS/Source/CMSIS_RTOS/cmsis_os.c ****  * AND ANY EXPRESS OR IMPLIED WARRANTIES, INCLUDING, BUT NOT LIMITED TO, THE
  45:Middlewares/Third_Party/FreeRTOS/Source/CMSIS_RTOS/cmsis_os.c ****  * IMPLIED WARRANTIES OF MERCHANTABILITY AND FITNESS FOR A PARTICULAR PURPOSE
  46:Middlewares/Third_Party/FreeRTOS/Source/CMSIS_RTOS/cmsis_os.c ****  * ARE DISCLAIMED. IN NO EVENT SHALL COPYRIGHT HOLDERS AND CONTRIBUTORS BE
  47:Middlewares/Third_Party/FreeRTOS/Source/CMSIS_RTOS/cmsis_os.c ****  * LIABLE FOR ANY DIRECT, INDIRECT, INCIDENTAL, SPECIAL, EXEMPLARY, OR
  48:Middlewares/Third_Party/FreeRTOS/Source/CMSIS_RTOS/cmsis_os.c ****  * CONSEQUENTIAL DAMAGES (INCLUDING, BUT NOT LIMITED TO, PROCUREMENT OF
  49:Middlewares/Third_Party/FreeRTOS/Source/CMSIS_RTOS/cmsis_os.c ****  * SUBSTITUTE GOODS OR SERVICES; LOSS OF USE, DATA, OR PROFITS; OR BUSINESS
  50:Middlewares/Third_Party/FreeRTOS/Source/CMSIS_RTOS/cmsis_os.c ****  * INTERRUPTION) HOWEVER CAUSED AND ON ANY THEORY OF LIABILITY, WHETHER IN
  51:Middlewares/Third_Party/FreeRTOS/Source/CMSIS_RTOS/cmsis_os.c ****  * CONTRACT, STRICT LIABILITY, OR TORT (INCLUDING NEGLIGENCE OR OTHERWISE)
  52:Middlewares/Third_Party/FreeRTOS/Source/CMSIS_RTOS/cmsis_os.c ****  * ARISING IN ANY WAY OUT OF THE USE OF THIS SOFTWARE, EVEN IF ADVISED OF THE
  53:Middlewares/Third_Party/FreeRTOS/Source/CMSIS_RTOS/cmsis_os.c ****  * POSSIBILITY OF SUCH DAMAGE.
  54:Middlewares/Third_Party/FreeRTOS/Source/CMSIS_RTOS/cmsis_os.c ****  *---------------------------------------------------------------------------*/
  55:Middlewares/Third_Party/FreeRTOS/Source/CMSIS_RTOS/cmsis_os.c **** 
  56:Middlewares/Third_Party/FreeRTOS/Source/CMSIS_RTOS/cmsis_os.c **** #include <string.h>
  57:Middlewares/Third_Party/FreeRTOS/Source/CMSIS_RTOS/cmsis_os.c **** #include "cmsis_os.h"
  58:Middlewares/Third_Party/FreeRTOS/Source/CMSIS_RTOS/cmsis_os.c **** 
  59:Middlewares/Third_Party/FreeRTOS/Source/CMSIS_RTOS/cmsis_os.c **** /*
  60:Middlewares/Third_Party/FreeRTOS/Source/CMSIS_RTOS/cmsis_os.c ****  * ARM Compiler 4/5
  61:Middlewares/Third_Party/FreeRTOS/Source/CMSIS_RTOS/cmsis_os.c ****  */
  62:Middlewares/Third_Party/FreeRTOS/Source/CMSIS_RTOS/cmsis_os.c **** #if   defined ( __CC_ARM )
  63:Middlewares/Third_Party/FreeRTOS/Source/CMSIS_RTOS/cmsis_os.c **** 
  64:Middlewares/Third_Party/FreeRTOS/Source/CMSIS_RTOS/cmsis_os.c ****   #define __ASM            __asm                                      
  65:Middlewares/Third_Party/FreeRTOS/Source/CMSIS_RTOS/cmsis_os.c ****   #define __INLINE         __inline                                     
  66:Middlewares/Third_Party/FreeRTOS/Source/CMSIS_RTOS/cmsis_os.c ****   #define __STATIC_INLINE  static __inline
  67:Middlewares/Third_Party/FreeRTOS/Source/CMSIS_RTOS/cmsis_os.c **** 
  68:Middlewares/Third_Party/FreeRTOS/Source/CMSIS_RTOS/cmsis_os.c ****   #include "cmsis_armcc.h"
  69:Middlewares/Third_Party/FreeRTOS/Source/CMSIS_RTOS/cmsis_os.c **** 
  70:Middlewares/Third_Party/FreeRTOS/Source/CMSIS_RTOS/cmsis_os.c **** /*
  71:Middlewares/Third_Party/FreeRTOS/Source/CMSIS_RTOS/cmsis_os.c ****  * GNU Compiler
  72:Middlewares/Third_Party/FreeRTOS/Source/CMSIS_RTOS/cmsis_os.c ****  */
  73:Middlewares/Third_Party/FreeRTOS/Source/CMSIS_RTOS/cmsis_os.c **** #elif defined ( __GNUC__ )
  74:Middlewares/Third_Party/FreeRTOS/Source/CMSIS_RTOS/cmsis_os.c **** 
  75:Middlewares/Third_Party/FreeRTOS/Source/CMSIS_RTOS/cmsis_os.c ****   #define __ASM            __asm                                      /*!< asm keyword for GNU Comp
  76:Middlewares/Third_Party/FreeRTOS/Source/CMSIS_RTOS/cmsis_os.c ****   #define __INLINE         inline                                     /*!< inline keyword for GNU C
  77:Middlewares/Third_Party/FreeRTOS/Source/CMSIS_RTOS/cmsis_os.c ****   #define __STATIC_INLINE  static inline
  78:Middlewares/Third_Party/FreeRTOS/Source/CMSIS_RTOS/cmsis_os.c **** 
  79:Middlewares/Third_Party/FreeRTOS/Source/CMSIS_RTOS/cmsis_os.c ****   #include "cmsis_gcc.h"
  80:Middlewares/Third_Party/FreeRTOS/Source/CMSIS_RTOS/cmsis_os.c **** 
  81:Middlewares/Third_Party/FreeRTOS/Source/CMSIS_RTOS/cmsis_os.c **** 
  82:Middlewares/Third_Party/FreeRTOS/Source/CMSIS_RTOS/cmsis_os.c **** /*
  83:Middlewares/Third_Party/FreeRTOS/Source/CMSIS_RTOS/cmsis_os.c ****  * IAR Compiler
  84:Middlewares/Third_Party/FreeRTOS/Source/CMSIS_RTOS/cmsis_os.c ****  */
  85:Middlewares/Third_Party/FreeRTOS/Source/CMSIS_RTOS/cmsis_os.c **** #elif defined ( __ICCARM__ )
  86:Middlewares/Third_Party/FreeRTOS/Source/CMSIS_RTOS/cmsis_os.c **** 
  87:Middlewares/Third_Party/FreeRTOS/Source/CMSIS_RTOS/cmsis_os.c ****   #ifndef   __ASM
  88:Middlewares/Third_Party/FreeRTOS/Source/CMSIS_RTOS/cmsis_os.c ****     #define __ASM                     __asm
  89:Middlewares/Third_Party/FreeRTOS/Source/CMSIS_RTOS/cmsis_os.c ****   #endif
ARM GAS  /tmp/cc4ZeGpA.s 			page 3


  90:Middlewares/Third_Party/FreeRTOS/Source/CMSIS_RTOS/cmsis_os.c ****   #ifndef   __INLINE
  91:Middlewares/Third_Party/FreeRTOS/Source/CMSIS_RTOS/cmsis_os.c ****     #define __INLINE                  inline
  92:Middlewares/Third_Party/FreeRTOS/Source/CMSIS_RTOS/cmsis_os.c ****   #endif
  93:Middlewares/Third_Party/FreeRTOS/Source/CMSIS_RTOS/cmsis_os.c ****   #ifndef   __STATIC_INLINE
  94:Middlewares/Third_Party/FreeRTOS/Source/CMSIS_RTOS/cmsis_os.c ****     #define __STATIC_INLINE           static inline
  95:Middlewares/Third_Party/FreeRTOS/Source/CMSIS_RTOS/cmsis_os.c ****   #endif
  96:Middlewares/Third_Party/FreeRTOS/Source/CMSIS_RTOS/cmsis_os.c **** 
  97:Middlewares/Third_Party/FreeRTOS/Source/CMSIS_RTOS/cmsis_os.c ****   #include <cmsis_iar.h>
  98:Middlewares/Third_Party/FreeRTOS/Source/CMSIS_RTOS/cmsis_os.c **** #endif
  99:Middlewares/Third_Party/FreeRTOS/Source/CMSIS_RTOS/cmsis_os.c **** 
 100:Middlewares/Third_Party/FreeRTOS/Source/CMSIS_RTOS/cmsis_os.c **** extern void xPortSysTickHandler(void);
 101:Middlewares/Third_Party/FreeRTOS/Source/CMSIS_RTOS/cmsis_os.c **** 
 102:Middlewares/Third_Party/FreeRTOS/Source/CMSIS_RTOS/cmsis_os.c **** /* Convert from CMSIS type osPriority to FreeRTOS priority number */
 103:Middlewares/Third_Party/FreeRTOS/Source/CMSIS_RTOS/cmsis_os.c **** static unsigned portBASE_TYPE makeFreeRtosPriority (osPriority priority)
 104:Middlewares/Third_Party/FreeRTOS/Source/CMSIS_RTOS/cmsis_os.c **** {
  27              		.loc 1 104 1
  28              		.cfi_startproc
  29              		@ args = 0, pretend = 0, frame = 16
  30              		@ frame_needed = 1, uses_anonymous_args = 0
  31              		@ link register save eliminated.
  32 0000 80B4     		push	{r7}
  33              	.LCFI0:
  34              		.cfi_def_cfa_offset 4
  35              		.cfi_offset 7, -4
  36 0002 85B0     		sub	sp, sp, #20
  37              	.LCFI1:
  38              		.cfi_def_cfa_offset 24
  39 0004 00AF     		add	r7, sp, #0
  40              	.LCFI2:
  41              		.cfi_def_cfa_register 7
  42 0006 0346     		mov	r3, r0
  43 0008 FB80     		strh	r3, [r7, #6]	@ movhi
 105:Middlewares/Third_Party/FreeRTOS/Source/CMSIS_RTOS/cmsis_os.c ****   unsigned portBASE_TYPE fpriority = tskIDLE_PRIORITY;
  44              		.loc 1 105 26
  45 000a 0023     		movs	r3, #0
  46 000c FB60     		str	r3, [r7, #12]
 106:Middlewares/Third_Party/FreeRTOS/Source/CMSIS_RTOS/cmsis_os.c ****   
 107:Middlewares/Third_Party/FreeRTOS/Source/CMSIS_RTOS/cmsis_os.c ****   if (priority != osPriorityError) {
  47              		.loc 1 107 6
  48 000e B7F90630 		ldrsh	r3, [r7, #6]
  49 0012 842B     		cmp	r3, #132
  50 0014 05D0     		beq	.L2
 108:Middlewares/Third_Party/FreeRTOS/Source/CMSIS_RTOS/cmsis_os.c ****     fpriority += (priority - osPriorityIdle);
  51              		.loc 1 108 15
  52 0016 B7F90620 		ldrsh	r2, [r7, #6]
  53 001a FB68     		ldr	r3, [r7, #12]
  54 001c 1344     		add	r3, r3, r2
  55 001e 0333     		adds	r3, r3, #3
  56 0020 FB60     		str	r3, [r7, #12]
  57              	.L2:
 109:Middlewares/Third_Party/FreeRTOS/Source/CMSIS_RTOS/cmsis_os.c ****   }
 110:Middlewares/Third_Party/FreeRTOS/Source/CMSIS_RTOS/cmsis_os.c ****   
 111:Middlewares/Third_Party/FreeRTOS/Source/CMSIS_RTOS/cmsis_os.c ****   return fpriority;
  58              		.loc 1 111 10
  59 0022 FB68     		ldr	r3, [r7, #12]
 112:Middlewares/Third_Party/FreeRTOS/Source/CMSIS_RTOS/cmsis_os.c **** }
  60              		.loc 1 112 1
ARM GAS  /tmp/cc4ZeGpA.s 			page 4


  61 0024 1846     		mov	r0, r3
  62 0026 1437     		adds	r7, r7, #20
  63              	.LCFI3:
  64              		.cfi_def_cfa_offset 4
  65 0028 BD46     		mov	sp, r7
  66              	.LCFI4:
  67              		.cfi_def_cfa_register 13
  68              		@ sp needed
  69 002a 5DF8047B 		ldr	r7, [sp], #4
  70              	.LCFI5:
  71              		.cfi_restore 7
  72              		.cfi_def_cfa_offset 0
  73 002e 7047     		bx	lr
  74              		.cfi_endproc
  75              	.LFE107:
  77              		.section	.text.makeCmsisPriority,"ax",%progbits
  78              		.align	1
  79              		.syntax unified
  80              		.thumb
  81              		.thumb_func
  82              		.fpu fpv5-d16
  84              	makeCmsisPriority:
  85              	.LFB108:
 113:Middlewares/Third_Party/FreeRTOS/Source/CMSIS_RTOS/cmsis_os.c **** 
 114:Middlewares/Third_Party/FreeRTOS/Source/CMSIS_RTOS/cmsis_os.c **** #if (INCLUDE_uxTaskPriorityGet == 1)
 115:Middlewares/Third_Party/FreeRTOS/Source/CMSIS_RTOS/cmsis_os.c **** /* Convert from FreeRTOS priority number to CMSIS type osPriority */
 116:Middlewares/Third_Party/FreeRTOS/Source/CMSIS_RTOS/cmsis_os.c **** static osPriority makeCmsisPriority (unsigned portBASE_TYPE fpriority)
 117:Middlewares/Third_Party/FreeRTOS/Source/CMSIS_RTOS/cmsis_os.c **** {
  86              		.loc 1 117 1
  87              		.cfi_startproc
  88              		@ args = 0, pretend = 0, frame = 16
  89              		@ frame_needed = 1, uses_anonymous_args = 0
  90              		@ link register save eliminated.
  91 0000 80B4     		push	{r7}
  92              	.LCFI6:
  93              		.cfi_def_cfa_offset 4
  94              		.cfi_offset 7, -4
  95 0002 85B0     		sub	sp, sp, #20
  96              	.LCFI7:
  97              		.cfi_def_cfa_offset 24
  98 0004 00AF     		add	r7, sp, #0
  99              	.LCFI8:
 100              		.cfi_def_cfa_register 7
 101 0006 7860     		str	r0, [r7, #4]
 118:Middlewares/Third_Party/FreeRTOS/Source/CMSIS_RTOS/cmsis_os.c ****   osPriority priority = osPriorityError;
 102              		.loc 1 118 14
 103 0008 8423     		movs	r3, #132
 104 000a FB81     		strh	r3, [r7, #14]	@ movhi
 119:Middlewares/Third_Party/FreeRTOS/Source/CMSIS_RTOS/cmsis_os.c ****   
 120:Middlewares/Third_Party/FreeRTOS/Source/CMSIS_RTOS/cmsis_os.c ****   if ((fpriority - tskIDLE_PRIORITY) <= (osPriorityRealtime - osPriorityIdle)) {
 105              		.loc 1 120 6
 106 000c 7B68     		ldr	r3, [r7, #4]
 107 000e 062B     		cmp	r3, #6
 108 0010 04D8     		bhi	.L5
 121:Middlewares/Third_Party/FreeRTOS/Source/CMSIS_RTOS/cmsis_os.c ****     priority = (osPriority)((int)osPriorityIdle + (int)(fpriority - tskIDLE_PRIORITY));
 109              		.loc 1 121 49
 110 0012 7B68     		ldr	r3, [r7, #4]
ARM GAS  /tmp/cc4ZeGpA.s 			page 5


 111 0014 9BB2     		uxth	r3, r3
 112 0016 033B     		subs	r3, r3, #3
 113 0018 9BB2     		uxth	r3, r3
 114              		.loc 1 121 14
 115 001a FB81     		strh	r3, [r7, #14]	@ movhi
 116              	.L5:
 122:Middlewares/Third_Party/FreeRTOS/Source/CMSIS_RTOS/cmsis_os.c ****   }
 123:Middlewares/Third_Party/FreeRTOS/Source/CMSIS_RTOS/cmsis_os.c ****   
 124:Middlewares/Third_Party/FreeRTOS/Source/CMSIS_RTOS/cmsis_os.c ****   return priority;
 117              		.loc 1 124 10
 118 001c B7F90E30 		ldrsh	r3, [r7, #14]
 125:Middlewares/Third_Party/FreeRTOS/Source/CMSIS_RTOS/cmsis_os.c **** }
 119              		.loc 1 125 1
 120 0020 1846     		mov	r0, r3
 121 0022 1437     		adds	r7, r7, #20
 122              	.LCFI9:
 123              		.cfi_def_cfa_offset 4
 124 0024 BD46     		mov	sp, r7
 125              	.LCFI10:
 126              		.cfi_def_cfa_register 13
 127              		@ sp needed
 128 0026 5DF8047B 		ldr	r7, [sp], #4
 129              	.LCFI11:
 130              		.cfi_restore 7
 131              		.cfi_def_cfa_offset 0
 132 002a 7047     		bx	lr
 133              		.cfi_endproc
 134              	.LFE108:
 136              		.section	.text.inHandlerMode,"ax",%progbits
 137              		.align	1
 138              		.syntax unified
 139              		.thumb
 140              		.thumb_func
 141              		.fpu fpv5-d16
 143              	inHandlerMode:
 144              	.LFB109:
 126:Middlewares/Third_Party/FreeRTOS/Source/CMSIS_RTOS/cmsis_os.c **** #endif
 127:Middlewares/Third_Party/FreeRTOS/Source/CMSIS_RTOS/cmsis_os.c **** 
 128:Middlewares/Third_Party/FreeRTOS/Source/CMSIS_RTOS/cmsis_os.c **** 
 129:Middlewares/Third_Party/FreeRTOS/Source/CMSIS_RTOS/cmsis_os.c **** /* Determine whether we are in thread mode or handler mode. */
 130:Middlewares/Third_Party/FreeRTOS/Source/CMSIS_RTOS/cmsis_os.c **** static int inHandlerMode (void)
 131:Middlewares/Third_Party/FreeRTOS/Source/CMSIS_RTOS/cmsis_os.c **** {
 145              		.loc 1 131 1
 146              		.cfi_startproc
 147              		@ args = 0, pretend = 0, frame = 8
 148              		@ frame_needed = 1, uses_anonymous_args = 0
 149              		@ link register save eliminated.
 150 0000 80B4     		push	{r7}
 151              	.LCFI12:
 152              		.cfi_def_cfa_offset 4
 153              		.cfi_offset 7, -4
 154 0002 83B0     		sub	sp, sp, #12
 155              	.LCFI13:
 156              		.cfi_def_cfa_offset 16
 157 0004 00AF     		add	r7, sp, #0
 158              	.LCFI14:
 159              		.cfi_def_cfa_register 7
ARM GAS  /tmp/cc4ZeGpA.s 			page 6


 160              	.LBB8:
 161              	.LBB9:
 162              		.file 2 "Drivers/CMSIS/Include/cmsis_gcc.h"
   1:Drivers/CMSIS/Include/cmsis_gcc.h **** /**************************************************************************//**
   2:Drivers/CMSIS/Include/cmsis_gcc.h ****  * @file     cmsis_gcc.h
   3:Drivers/CMSIS/Include/cmsis_gcc.h ****  * @brief    CMSIS compiler GCC header file
   4:Drivers/CMSIS/Include/cmsis_gcc.h ****  * @version  V5.0.4
   5:Drivers/CMSIS/Include/cmsis_gcc.h ****  * @date     09. April 2018
   6:Drivers/CMSIS/Include/cmsis_gcc.h ****  ******************************************************************************/
   7:Drivers/CMSIS/Include/cmsis_gcc.h **** /*
   8:Drivers/CMSIS/Include/cmsis_gcc.h ****  * Copyright (c) 2009-2018 Arm Limited. All rights reserved.
   9:Drivers/CMSIS/Include/cmsis_gcc.h ****  *
  10:Drivers/CMSIS/Include/cmsis_gcc.h ****  * SPDX-License-Identifier: Apache-2.0
  11:Drivers/CMSIS/Include/cmsis_gcc.h ****  *
  12:Drivers/CMSIS/Include/cmsis_gcc.h ****  * Licensed under the Apache License, Version 2.0 (the License); you may
  13:Drivers/CMSIS/Include/cmsis_gcc.h ****  * not use this file except in compliance with the License.
  14:Drivers/CMSIS/Include/cmsis_gcc.h ****  * You may obtain a copy of the License at
  15:Drivers/CMSIS/Include/cmsis_gcc.h ****  *
  16:Drivers/CMSIS/Include/cmsis_gcc.h ****  * www.apache.org/licenses/LICENSE-2.0
  17:Drivers/CMSIS/Include/cmsis_gcc.h ****  *
  18:Drivers/CMSIS/Include/cmsis_gcc.h ****  * Unless required by applicable law or agreed to in writing, software
  19:Drivers/CMSIS/Include/cmsis_gcc.h ****  * distributed under the License is distributed on an AS IS BASIS, WITHOUT
  20:Drivers/CMSIS/Include/cmsis_gcc.h ****  * WARRANTIES OR CONDITIONS OF ANY KIND, either express or implied.
  21:Drivers/CMSIS/Include/cmsis_gcc.h ****  * See the License for the specific language governing permissions and
  22:Drivers/CMSIS/Include/cmsis_gcc.h ****  * limitations under the License.
  23:Drivers/CMSIS/Include/cmsis_gcc.h ****  */
  24:Drivers/CMSIS/Include/cmsis_gcc.h **** 
  25:Drivers/CMSIS/Include/cmsis_gcc.h **** #ifndef __CMSIS_GCC_H
  26:Drivers/CMSIS/Include/cmsis_gcc.h **** #define __CMSIS_GCC_H
  27:Drivers/CMSIS/Include/cmsis_gcc.h **** 
  28:Drivers/CMSIS/Include/cmsis_gcc.h **** /* ignore some GCC warnings */
  29:Drivers/CMSIS/Include/cmsis_gcc.h **** #pragma GCC diagnostic push
  30:Drivers/CMSIS/Include/cmsis_gcc.h **** #pragma GCC diagnostic ignored "-Wsign-conversion"
  31:Drivers/CMSIS/Include/cmsis_gcc.h **** #pragma GCC diagnostic ignored "-Wconversion"
  32:Drivers/CMSIS/Include/cmsis_gcc.h **** #pragma GCC diagnostic ignored "-Wunused-parameter"
  33:Drivers/CMSIS/Include/cmsis_gcc.h **** 
  34:Drivers/CMSIS/Include/cmsis_gcc.h **** /* Fallback for __has_builtin */
  35:Drivers/CMSIS/Include/cmsis_gcc.h **** #ifndef __has_builtin
  36:Drivers/CMSIS/Include/cmsis_gcc.h ****   #define __has_builtin(x) (0)
  37:Drivers/CMSIS/Include/cmsis_gcc.h **** #endif
  38:Drivers/CMSIS/Include/cmsis_gcc.h **** 
  39:Drivers/CMSIS/Include/cmsis_gcc.h **** /* CMSIS compiler specific defines */
  40:Drivers/CMSIS/Include/cmsis_gcc.h **** #ifndef   __ASM
  41:Drivers/CMSIS/Include/cmsis_gcc.h ****   #define __ASM                                  __asm
  42:Drivers/CMSIS/Include/cmsis_gcc.h **** #endif
  43:Drivers/CMSIS/Include/cmsis_gcc.h **** #ifndef   __INLINE
  44:Drivers/CMSIS/Include/cmsis_gcc.h ****   #define __INLINE                               inline
  45:Drivers/CMSIS/Include/cmsis_gcc.h **** #endif
  46:Drivers/CMSIS/Include/cmsis_gcc.h **** #ifndef   __STATIC_INLINE
  47:Drivers/CMSIS/Include/cmsis_gcc.h ****   #define __STATIC_INLINE                        static inline
  48:Drivers/CMSIS/Include/cmsis_gcc.h **** #endif
  49:Drivers/CMSIS/Include/cmsis_gcc.h **** #ifndef   __STATIC_FORCEINLINE                 
  50:Drivers/CMSIS/Include/cmsis_gcc.h ****   #define __STATIC_FORCEINLINE                   __attribute__((always_inline)) static inline
  51:Drivers/CMSIS/Include/cmsis_gcc.h **** #endif                                           
  52:Drivers/CMSIS/Include/cmsis_gcc.h **** #ifndef   __NO_RETURN
  53:Drivers/CMSIS/Include/cmsis_gcc.h ****   #define __NO_RETURN                            __attribute__((__noreturn__))
  54:Drivers/CMSIS/Include/cmsis_gcc.h **** #endif
ARM GAS  /tmp/cc4ZeGpA.s 			page 7


  55:Drivers/CMSIS/Include/cmsis_gcc.h **** #ifndef   __USED
  56:Drivers/CMSIS/Include/cmsis_gcc.h ****   #define __USED                                 __attribute__((used))
  57:Drivers/CMSIS/Include/cmsis_gcc.h **** #endif
  58:Drivers/CMSIS/Include/cmsis_gcc.h **** #ifndef   __WEAK
  59:Drivers/CMSIS/Include/cmsis_gcc.h ****   #define __WEAK                                 __attribute__((weak))
  60:Drivers/CMSIS/Include/cmsis_gcc.h **** #endif
  61:Drivers/CMSIS/Include/cmsis_gcc.h **** #ifndef   __PACKED
  62:Drivers/CMSIS/Include/cmsis_gcc.h ****   #define __PACKED                               __attribute__((packed, aligned(1)))
  63:Drivers/CMSIS/Include/cmsis_gcc.h **** #endif
  64:Drivers/CMSIS/Include/cmsis_gcc.h **** #ifndef   __PACKED_STRUCT
  65:Drivers/CMSIS/Include/cmsis_gcc.h ****   #define __PACKED_STRUCT                        struct __attribute__((packed, aligned(1)))
  66:Drivers/CMSIS/Include/cmsis_gcc.h **** #endif
  67:Drivers/CMSIS/Include/cmsis_gcc.h **** #ifndef   __PACKED_UNION
  68:Drivers/CMSIS/Include/cmsis_gcc.h ****   #define __PACKED_UNION                         union __attribute__((packed, aligned(1)))
  69:Drivers/CMSIS/Include/cmsis_gcc.h **** #endif
  70:Drivers/CMSIS/Include/cmsis_gcc.h **** #ifndef   __UNALIGNED_UINT32        /* deprecated */
  71:Drivers/CMSIS/Include/cmsis_gcc.h ****   #pragma GCC diagnostic push
  72:Drivers/CMSIS/Include/cmsis_gcc.h ****   #pragma GCC diagnostic ignored "-Wpacked"
  73:Drivers/CMSIS/Include/cmsis_gcc.h ****   #pragma GCC diagnostic ignored "-Wattributes"
  74:Drivers/CMSIS/Include/cmsis_gcc.h ****   struct __attribute__((packed)) T_UINT32 { uint32_t v; };
  75:Drivers/CMSIS/Include/cmsis_gcc.h ****   #pragma GCC diagnostic pop
  76:Drivers/CMSIS/Include/cmsis_gcc.h ****   #define __UNALIGNED_UINT32(x)                  (((struct T_UINT32 *)(x))->v)
  77:Drivers/CMSIS/Include/cmsis_gcc.h **** #endif
  78:Drivers/CMSIS/Include/cmsis_gcc.h **** #ifndef   __UNALIGNED_UINT16_WRITE
  79:Drivers/CMSIS/Include/cmsis_gcc.h ****   #pragma GCC diagnostic push
  80:Drivers/CMSIS/Include/cmsis_gcc.h ****   #pragma GCC diagnostic ignored "-Wpacked"
  81:Drivers/CMSIS/Include/cmsis_gcc.h ****   #pragma GCC diagnostic ignored "-Wattributes"
  82:Drivers/CMSIS/Include/cmsis_gcc.h ****   __PACKED_STRUCT T_UINT16_WRITE { uint16_t v; };
  83:Drivers/CMSIS/Include/cmsis_gcc.h ****   #pragma GCC diagnostic pop
  84:Drivers/CMSIS/Include/cmsis_gcc.h ****   #define __UNALIGNED_UINT16_WRITE(addr, val)    (void)((((struct T_UINT16_WRITE *)(void *)(addr))-
  85:Drivers/CMSIS/Include/cmsis_gcc.h **** #endif
  86:Drivers/CMSIS/Include/cmsis_gcc.h **** #ifndef   __UNALIGNED_UINT16_READ
  87:Drivers/CMSIS/Include/cmsis_gcc.h ****   #pragma GCC diagnostic push
  88:Drivers/CMSIS/Include/cmsis_gcc.h ****   #pragma GCC diagnostic ignored "-Wpacked"
  89:Drivers/CMSIS/Include/cmsis_gcc.h ****   #pragma GCC diagnostic ignored "-Wattributes"
  90:Drivers/CMSIS/Include/cmsis_gcc.h ****   __PACKED_STRUCT T_UINT16_READ { uint16_t v; };
  91:Drivers/CMSIS/Include/cmsis_gcc.h ****   #pragma GCC diagnostic pop
  92:Drivers/CMSIS/Include/cmsis_gcc.h ****   #define __UNALIGNED_UINT16_READ(addr)          (((const struct T_UINT16_READ *)(const void *)(add
  93:Drivers/CMSIS/Include/cmsis_gcc.h **** #endif
  94:Drivers/CMSIS/Include/cmsis_gcc.h **** #ifndef   __UNALIGNED_UINT32_WRITE
  95:Drivers/CMSIS/Include/cmsis_gcc.h ****   #pragma GCC diagnostic push
  96:Drivers/CMSIS/Include/cmsis_gcc.h ****   #pragma GCC diagnostic ignored "-Wpacked"
  97:Drivers/CMSIS/Include/cmsis_gcc.h ****   #pragma GCC diagnostic ignored "-Wattributes"
  98:Drivers/CMSIS/Include/cmsis_gcc.h ****   __PACKED_STRUCT T_UINT32_WRITE { uint32_t v; };
  99:Drivers/CMSIS/Include/cmsis_gcc.h ****   #pragma GCC diagnostic pop
 100:Drivers/CMSIS/Include/cmsis_gcc.h ****   #define __UNALIGNED_UINT32_WRITE(addr, val)    (void)((((struct T_UINT32_WRITE *)(void *)(addr))-
 101:Drivers/CMSIS/Include/cmsis_gcc.h **** #endif
 102:Drivers/CMSIS/Include/cmsis_gcc.h **** #ifndef   __UNALIGNED_UINT32_READ
 103:Drivers/CMSIS/Include/cmsis_gcc.h ****   #pragma GCC diagnostic push
 104:Drivers/CMSIS/Include/cmsis_gcc.h ****   #pragma GCC diagnostic ignored "-Wpacked"
 105:Drivers/CMSIS/Include/cmsis_gcc.h ****   #pragma GCC diagnostic ignored "-Wattributes"
 106:Drivers/CMSIS/Include/cmsis_gcc.h ****   __PACKED_STRUCT T_UINT32_READ { uint32_t v; };
 107:Drivers/CMSIS/Include/cmsis_gcc.h ****   #pragma GCC diagnostic pop
 108:Drivers/CMSIS/Include/cmsis_gcc.h ****   #define __UNALIGNED_UINT32_READ(addr)          (((const struct T_UINT32_READ *)(const void *)(add
 109:Drivers/CMSIS/Include/cmsis_gcc.h **** #endif
 110:Drivers/CMSIS/Include/cmsis_gcc.h **** #ifndef   __ALIGNED
 111:Drivers/CMSIS/Include/cmsis_gcc.h ****   #define __ALIGNED(x)                           __attribute__((aligned(x)))
ARM GAS  /tmp/cc4ZeGpA.s 			page 8


 112:Drivers/CMSIS/Include/cmsis_gcc.h **** #endif
 113:Drivers/CMSIS/Include/cmsis_gcc.h **** #ifndef   __RESTRICT
 114:Drivers/CMSIS/Include/cmsis_gcc.h ****   #define __RESTRICT                             __restrict
 115:Drivers/CMSIS/Include/cmsis_gcc.h **** #endif
 116:Drivers/CMSIS/Include/cmsis_gcc.h **** 
 117:Drivers/CMSIS/Include/cmsis_gcc.h **** 
 118:Drivers/CMSIS/Include/cmsis_gcc.h **** /* ###########################  Core Function Access  ########################### */
 119:Drivers/CMSIS/Include/cmsis_gcc.h **** /** \ingroup  CMSIS_Core_FunctionInterface
 120:Drivers/CMSIS/Include/cmsis_gcc.h ****     \defgroup CMSIS_Core_RegAccFunctions CMSIS Core Register Access Functions
 121:Drivers/CMSIS/Include/cmsis_gcc.h ****   @{
 122:Drivers/CMSIS/Include/cmsis_gcc.h ****  */
 123:Drivers/CMSIS/Include/cmsis_gcc.h **** 
 124:Drivers/CMSIS/Include/cmsis_gcc.h **** /**
 125:Drivers/CMSIS/Include/cmsis_gcc.h ****   \brief   Enable IRQ Interrupts
 126:Drivers/CMSIS/Include/cmsis_gcc.h ****   \details Enables IRQ interrupts by clearing the I-bit in the CPSR.
 127:Drivers/CMSIS/Include/cmsis_gcc.h ****            Can only be executed in Privileged modes.
 128:Drivers/CMSIS/Include/cmsis_gcc.h ****  */
 129:Drivers/CMSIS/Include/cmsis_gcc.h **** __STATIC_FORCEINLINE void __enable_irq(void)
 130:Drivers/CMSIS/Include/cmsis_gcc.h **** {
 131:Drivers/CMSIS/Include/cmsis_gcc.h ****   __ASM volatile ("cpsie i" : : : "memory");
 132:Drivers/CMSIS/Include/cmsis_gcc.h **** }
 133:Drivers/CMSIS/Include/cmsis_gcc.h **** 
 134:Drivers/CMSIS/Include/cmsis_gcc.h **** 
 135:Drivers/CMSIS/Include/cmsis_gcc.h **** /**
 136:Drivers/CMSIS/Include/cmsis_gcc.h ****   \brief   Disable IRQ Interrupts
 137:Drivers/CMSIS/Include/cmsis_gcc.h ****   \details Disables IRQ interrupts by setting the I-bit in the CPSR.
 138:Drivers/CMSIS/Include/cmsis_gcc.h ****            Can only be executed in Privileged modes.
 139:Drivers/CMSIS/Include/cmsis_gcc.h ****  */
 140:Drivers/CMSIS/Include/cmsis_gcc.h **** __STATIC_FORCEINLINE void __disable_irq(void)
 141:Drivers/CMSIS/Include/cmsis_gcc.h **** {
 142:Drivers/CMSIS/Include/cmsis_gcc.h ****   __ASM volatile ("cpsid i" : : : "memory");
 143:Drivers/CMSIS/Include/cmsis_gcc.h **** }
 144:Drivers/CMSIS/Include/cmsis_gcc.h **** 
 145:Drivers/CMSIS/Include/cmsis_gcc.h **** 
 146:Drivers/CMSIS/Include/cmsis_gcc.h **** /**
 147:Drivers/CMSIS/Include/cmsis_gcc.h ****   \brief   Get Control Register
 148:Drivers/CMSIS/Include/cmsis_gcc.h ****   \details Returns the content of the Control Register.
 149:Drivers/CMSIS/Include/cmsis_gcc.h ****   \return               Control Register value
 150:Drivers/CMSIS/Include/cmsis_gcc.h ****  */
 151:Drivers/CMSIS/Include/cmsis_gcc.h **** __STATIC_FORCEINLINE uint32_t __get_CONTROL(void)
 152:Drivers/CMSIS/Include/cmsis_gcc.h **** {
 153:Drivers/CMSIS/Include/cmsis_gcc.h ****   uint32_t result;
 154:Drivers/CMSIS/Include/cmsis_gcc.h **** 
 155:Drivers/CMSIS/Include/cmsis_gcc.h ****   __ASM volatile ("MRS %0, control" : "=r" (result) );
 156:Drivers/CMSIS/Include/cmsis_gcc.h ****   return(result);
 157:Drivers/CMSIS/Include/cmsis_gcc.h **** }
 158:Drivers/CMSIS/Include/cmsis_gcc.h **** 
 159:Drivers/CMSIS/Include/cmsis_gcc.h **** 
 160:Drivers/CMSIS/Include/cmsis_gcc.h **** #if (defined (__ARM_FEATURE_CMSE ) && (__ARM_FEATURE_CMSE == 3))
 161:Drivers/CMSIS/Include/cmsis_gcc.h **** /**
 162:Drivers/CMSIS/Include/cmsis_gcc.h ****   \brief   Get Control Register (non-secure)
 163:Drivers/CMSIS/Include/cmsis_gcc.h ****   \details Returns the content of the non-secure Control Register when in secure mode.
 164:Drivers/CMSIS/Include/cmsis_gcc.h ****   \return               non-secure Control Register value
 165:Drivers/CMSIS/Include/cmsis_gcc.h ****  */
 166:Drivers/CMSIS/Include/cmsis_gcc.h **** __STATIC_FORCEINLINE uint32_t __TZ_get_CONTROL_NS(void)
 167:Drivers/CMSIS/Include/cmsis_gcc.h **** {
 168:Drivers/CMSIS/Include/cmsis_gcc.h ****   uint32_t result;
ARM GAS  /tmp/cc4ZeGpA.s 			page 9


 169:Drivers/CMSIS/Include/cmsis_gcc.h **** 
 170:Drivers/CMSIS/Include/cmsis_gcc.h ****   __ASM volatile ("MRS %0, control_ns" : "=r" (result) );
 171:Drivers/CMSIS/Include/cmsis_gcc.h ****   return(result);
 172:Drivers/CMSIS/Include/cmsis_gcc.h **** }
 173:Drivers/CMSIS/Include/cmsis_gcc.h **** #endif
 174:Drivers/CMSIS/Include/cmsis_gcc.h **** 
 175:Drivers/CMSIS/Include/cmsis_gcc.h **** 
 176:Drivers/CMSIS/Include/cmsis_gcc.h **** /**
 177:Drivers/CMSIS/Include/cmsis_gcc.h ****   \brief   Set Control Register
 178:Drivers/CMSIS/Include/cmsis_gcc.h ****   \details Writes the given value to the Control Register.
 179:Drivers/CMSIS/Include/cmsis_gcc.h ****   \param [in]    control  Control Register value to set
 180:Drivers/CMSIS/Include/cmsis_gcc.h ****  */
 181:Drivers/CMSIS/Include/cmsis_gcc.h **** __STATIC_FORCEINLINE void __set_CONTROL(uint32_t control)
 182:Drivers/CMSIS/Include/cmsis_gcc.h **** {
 183:Drivers/CMSIS/Include/cmsis_gcc.h ****   __ASM volatile ("MSR control, %0" : : "r" (control) : "memory");
 184:Drivers/CMSIS/Include/cmsis_gcc.h **** }
 185:Drivers/CMSIS/Include/cmsis_gcc.h **** 
 186:Drivers/CMSIS/Include/cmsis_gcc.h **** 
 187:Drivers/CMSIS/Include/cmsis_gcc.h **** #if (defined (__ARM_FEATURE_CMSE ) && (__ARM_FEATURE_CMSE == 3))
 188:Drivers/CMSIS/Include/cmsis_gcc.h **** /**
 189:Drivers/CMSIS/Include/cmsis_gcc.h ****   \brief   Set Control Register (non-secure)
 190:Drivers/CMSIS/Include/cmsis_gcc.h ****   \details Writes the given value to the non-secure Control Register when in secure state.
 191:Drivers/CMSIS/Include/cmsis_gcc.h ****   \param [in]    control  Control Register value to set
 192:Drivers/CMSIS/Include/cmsis_gcc.h ****  */
 193:Drivers/CMSIS/Include/cmsis_gcc.h **** __STATIC_FORCEINLINE void __TZ_set_CONTROL_NS(uint32_t control)
 194:Drivers/CMSIS/Include/cmsis_gcc.h **** {
 195:Drivers/CMSIS/Include/cmsis_gcc.h ****   __ASM volatile ("MSR control_ns, %0" : : "r" (control) : "memory");
 196:Drivers/CMSIS/Include/cmsis_gcc.h **** }
 197:Drivers/CMSIS/Include/cmsis_gcc.h **** #endif
 198:Drivers/CMSIS/Include/cmsis_gcc.h **** 
 199:Drivers/CMSIS/Include/cmsis_gcc.h **** 
 200:Drivers/CMSIS/Include/cmsis_gcc.h **** /**
 201:Drivers/CMSIS/Include/cmsis_gcc.h ****   \brief   Get IPSR Register
 202:Drivers/CMSIS/Include/cmsis_gcc.h ****   \details Returns the content of the IPSR Register.
 203:Drivers/CMSIS/Include/cmsis_gcc.h ****   \return               IPSR Register value
 204:Drivers/CMSIS/Include/cmsis_gcc.h ****  */
 205:Drivers/CMSIS/Include/cmsis_gcc.h **** __STATIC_FORCEINLINE uint32_t __get_IPSR(void)
 206:Drivers/CMSIS/Include/cmsis_gcc.h **** {
 207:Drivers/CMSIS/Include/cmsis_gcc.h ****   uint32_t result;
 208:Drivers/CMSIS/Include/cmsis_gcc.h **** 
 209:Drivers/CMSIS/Include/cmsis_gcc.h ****   __ASM volatile ("MRS %0, ipsr" : "=r" (result) );
 163              		.loc 2 209 3
 164              		.syntax unified
 165              	@ 209 "Drivers/CMSIS/Include/cmsis_gcc.h" 1
 166 0006 EFF30583 		MRS r3, ipsr
 167              	@ 0 "" 2
 168              		.thumb
 169              		.syntax unified
 170 000a 7B60     		str	r3, [r7, #4]
 210:Drivers/CMSIS/Include/cmsis_gcc.h ****   return(result);
 171              		.loc 2 210 9
 172 000c 7B68     		ldr	r3, [r7, #4]
 173              	.LBE9:
 174              	.LBE8:
 132:Middlewares/Third_Party/FreeRTOS/Source/CMSIS_RTOS/cmsis_os.c ****   return __get_IPSR() != 0;
 175              		.loc 1 132 23
 176 000e 002B     		cmp	r3, #0
ARM GAS  /tmp/cc4ZeGpA.s 			page 10


 177 0010 14BF     		ite	ne
 178 0012 0123     		movne	r3, #1
 179 0014 0023     		moveq	r3, #0
 180 0016 DBB2     		uxtb	r3, r3
 133:Middlewares/Third_Party/FreeRTOS/Source/CMSIS_RTOS/cmsis_os.c **** }
 181              		.loc 1 133 1
 182 0018 1846     		mov	r0, r3
 183 001a 0C37     		adds	r7, r7, #12
 184              	.LCFI15:
 185              		.cfi_def_cfa_offset 4
 186 001c BD46     		mov	sp, r7
 187              	.LCFI16:
 188              		.cfi_def_cfa_register 13
 189              		@ sp needed
 190 001e 5DF8047B 		ldr	r7, [sp], #4
 191              	.LCFI17:
 192              		.cfi_restore 7
 193              		.cfi_def_cfa_offset 0
 194 0022 7047     		bx	lr
 195              		.cfi_endproc
 196              	.LFE109:
 198              		.section	.text.osKernelStart,"ax",%progbits
 199              		.align	1
 200              		.global	osKernelStart
 201              		.syntax unified
 202              		.thumb
 203              		.thumb_func
 204              		.fpu fpv5-d16
 206              	osKernelStart:
 207              	.LFB110:
 134:Middlewares/Third_Party/FreeRTOS/Source/CMSIS_RTOS/cmsis_os.c **** 
 135:Middlewares/Third_Party/FreeRTOS/Source/CMSIS_RTOS/cmsis_os.c **** /*********************** Kernel Control Functions *****************************/
 136:Middlewares/Third_Party/FreeRTOS/Source/CMSIS_RTOS/cmsis_os.c **** /**
 137:Middlewares/Third_Party/FreeRTOS/Source/CMSIS_RTOS/cmsis_os.c **** * @brief  Initialize the RTOS Kernel for creating objects.
 138:Middlewares/Third_Party/FreeRTOS/Source/CMSIS_RTOS/cmsis_os.c **** * @retval status code that indicates the execution status of the function.
 139:Middlewares/Third_Party/FreeRTOS/Source/CMSIS_RTOS/cmsis_os.c **** * @note   MUST REMAIN UNCHANGED: \b osKernelInitialize shall be consistent in every CMSIS-RTOS.
 140:Middlewares/Third_Party/FreeRTOS/Source/CMSIS_RTOS/cmsis_os.c **** */
 141:Middlewares/Third_Party/FreeRTOS/Source/CMSIS_RTOS/cmsis_os.c **** osStatus osKernelInitialize (void);
 142:Middlewares/Third_Party/FreeRTOS/Source/CMSIS_RTOS/cmsis_os.c **** 
 143:Middlewares/Third_Party/FreeRTOS/Source/CMSIS_RTOS/cmsis_os.c **** /**
 144:Middlewares/Third_Party/FreeRTOS/Source/CMSIS_RTOS/cmsis_os.c **** * @brief  Start the RTOS Kernel with executing the specified thread.
 145:Middlewares/Third_Party/FreeRTOS/Source/CMSIS_RTOS/cmsis_os.c **** * @param  thread_def    thread definition referenced with \ref osThread.
 146:Middlewares/Third_Party/FreeRTOS/Source/CMSIS_RTOS/cmsis_os.c **** * @param  argument      pointer that is passed to the thread function as start argument.
 147:Middlewares/Third_Party/FreeRTOS/Source/CMSIS_RTOS/cmsis_os.c **** * @retval status code that indicates the execution status of the function
 148:Middlewares/Third_Party/FreeRTOS/Source/CMSIS_RTOS/cmsis_os.c **** * @note   MUST REMAIN UNCHANGED: \b osKernelStart shall be consistent in every CMSIS-RTOS.
 149:Middlewares/Third_Party/FreeRTOS/Source/CMSIS_RTOS/cmsis_os.c **** */
 150:Middlewares/Third_Party/FreeRTOS/Source/CMSIS_RTOS/cmsis_os.c **** osStatus osKernelStart (void)
 151:Middlewares/Third_Party/FreeRTOS/Source/CMSIS_RTOS/cmsis_os.c **** {
 208              		.loc 1 151 1
 209              		.cfi_startproc
 210              		@ args = 0, pretend = 0, frame = 0
 211              		@ frame_needed = 1, uses_anonymous_args = 0
 212 0000 80B5     		push	{r7, lr}
 213              	.LCFI18:
 214              		.cfi_def_cfa_offset 8
 215              		.cfi_offset 7, -8
 216              		.cfi_offset 14, -4
ARM GAS  /tmp/cc4ZeGpA.s 			page 11


 217 0002 00AF     		add	r7, sp, #0
 218              	.LCFI19:
 219              		.cfi_def_cfa_register 7
 152:Middlewares/Third_Party/FreeRTOS/Source/CMSIS_RTOS/cmsis_os.c ****   vTaskStartScheduler();
 220              		.loc 1 152 3
 221 0004 FFF7FEFF 		bl	vTaskStartScheduler
 153:Middlewares/Third_Party/FreeRTOS/Source/CMSIS_RTOS/cmsis_os.c ****   
 154:Middlewares/Third_Party/FreeRTOS/Source/CMSIS_RTOS/cmsis_os.c ****   return osOK;
 222              		.loc 1 154 10
 223 0008 0023     		movs	r3, #0
 155:Middlewares/Third_Party/FreeRTOS/Source/CMSIS_RTOS/cmsis_os.c **** }
 224              		.loc 1 155 1
 225 000a 1846     		mov	r0, r3
 226 000c 80BD     		pop	{r7, pc}
 227              		.cfi_endproc
 228              	.LFE110:
 230              		.section	.text.osKernelRunning,"ax",%progbits
 231              		.align	1
 232              		.global	osKernelRunning
 233              		.syntax unified
 234              		.thumb
 235              		.thumb_func
 236              		.fpu fpv5-d16
 238              	osKernelRunning:
 239              	.LFB111:
 156:Middlewares/Third_Party/FreeRTOS/Source/CMSIS_RTOS/cmsis_os.c **** 
 157:Middlewares/Third_Party/FreeRTOS/Source/CMSIS_RTOS/cmsis_os.c **** /**
 158:Middlewares/Third_Party/FreeRTOS/Source/CMSIS_RTOS/cmsis_os.c **** * @brief  Check if the RTOS kernel is already started
 159:Middlewares/Third_Party/FreeRTOS/Source/CMSIS_RTOS/cmsis_os.c **** * @param  None
 160:Middlewares/Third_Party/FreeRTOS/Source/CMSIS_RTOS/cmsis_os.c **** * @retval (0) RTOS is not started
 161:Middlewares/Third_Party/FreeRTOS/Source/CMSIS_RTOS/cmsis_os.c **** *         (1) RTOS is started
 162:Middlewares/Third_Party/FreeRTOS/Source/CMSIS_RTOS/cmsis_os.c **** *         (-1) if this feature is disabled in FreeRTOSConfig.h 
 163:Middlewares/Third_Party/FreeRTOS/Source/CMSIS_RTOS/cmsis_os.c **** * @note  MUST REMAIN UNCHANGED: \b osKernelRunning shall be consistent in every CMSIS-RTOS.
 164:Middlewares/Third_Party/FreeRTOS/Source/CMSIS_RTOS/cmsis_os.c **** */
 165:Middlewares/Third_Party/FreeRTOS/Source/CMSIS_RTOS/cmsis_os.c **** int32_t osKernelRunning(void)
 166:Middlewares/Third_Party/FreeRTOS/Source/CMSIS_RTOS/cmsis_os.c **** {
 240              		.loc 1 166 1
 241              		.cfi_startproc
 242              		@ args = 0, pretend = 0, frame = 0
 243              		@ frame_needed = 1, uses_anonymous_args = 0
 244 0000 80B5     		push	{r7, lr}
 245              	.LCFI20:
 246              		.cfi_def_cfa_offset 8
 247              		.cfi_offset 7, -8
 248              		.cfi_offset 14, -4
 249 0002 00AF     		add	r7, sp, #0
 250              	.LCFI21:
 251              		.cfi_def_cfa_register 7
 167:Middlewares/Third_Party/FreeRTOS/Source/CMSIS_RTOS/cmsis_os.c **** #if ( ( INCLUDE_xTaskGetSchedulerState == 1 ) || ( configUSE_TIMERS == 1 ) )
 168:Middlewares/Third_Party/FreeRTOS/Source/CMSIS_RTOS/cmsis_os.c ****   if (xTaskGetSchedulerState() == taskSCHEDULER_NOT_STARTED)
 252              		.loc 1 168 7
 253 0004 FFF7FEFF 		bl	xTaskGetSchedulerState
 254 0008 0346     		mov	r3, r0
 255              		.loc 1 168 6
 256 000a 012B     		cmp	r3, #1
 257 000c 01D1     		bne	.L13
 169:Middlewares/Third_Party/FreeRTOS/Source/CMSIS_RTOS/cmsis_os.c ****     return 0;
ARM GAS  /tmp/cc4ZeGpA.s 			page 12


 258              		.loc 1 169 12
 259 000e 0023     		movs	r3, #0
 260 0010 00E0     		b	.L14
 261              	.L13:
 170:Middlewares/Third_Party/FreeRTOS/Source/CMSIS_RTOS/cmsis_os.c ****   else
 171:Middlewares/Third_Party/FreeRTOS/Source/CMSIS_RTOS/cmsis_os.c ****     return 1;
 262              		.loc 1 171 12
 263 0012 0123     		movs	r3, #1
 264              	.L14:
 172:Middlewares/Third_Party/FreeRTOS/Source/CMSIS_RTOS/cmsis_os.c **** #else
 173:Middlewares/Third_Party/FreeRTOS/Source/CMSIS_RTOS/cmsis_os.c **** 	return (-1);
 174:Middlewares/Third_Party/FreeRTOS/Source/CMSIS_RTOS/cmsis_os.c **** #endif	
 175:Middlewares/Third_Party/FreeRTOS/Source/CMSIS_RTOS/cmsis_os.c **** }
 265              		.loc 1 175 1
 266 0014 1846     		mov	r0, r3
 267 0016 80BD     		pop	{r7, pc}
 268              		.cfi_endproc
 269              	.LFE111:
 271              		.section	.text.osKernelSysTick,"ax",%progbits
 272              		.align	1
 273              		.global	osKernelSysTick
 274              		.syntax unified
 275              		.thumb
 276              		.thumb_func
 277              		.fpu fpv5-d16
 279              	osKernelSysTick:
 280              	.LFB112:
 176:Middlewares/Third_Party/FreeRTOS/Source/CMSIS_RTOS/cmsis_os.c **** 
 177:Middlewares/Third_Party/FreeRTOS/Source/CMSIS_RTOS/cmsis_os.c **** #if (defined (osFeature_SysTick)  &&  (osFeature_SysTick != 0))     // System Timer available
 178:Middlewares/Third_Party/FreeRTOS/Source/CMSIS_RTOS/cmsis_os.c **** /**
 179:Middlewares/Third_Party/FreeRTOS/Source/CMSIS_RTOS/cmsis_os.c **** * @brief  Get the value of the Kernel SysTick timer
 180:Middlewares/Third_Party/FreeRTOS/Source/CMSIS_RTOS/cmsis_os.c **** * @param  None
 181:Middlewares/Third_Party/FreeRTOS/Source/CMSIS_RTOS/cmsis_os.c **** * @retval None
 182:Middlewares/Third_Party/FreeRTOS/Source/CMSIS_RTOS/cmsis_os.c **** * @note   MUST REMAIN UNCHANGED: \b osKernelSysTick shall be consistent in every CMSIS-RTOS.
 183:Middlewares/Third_Party/FreeRTOS/Source/CMSIS_RTOS/cmsis_os.c **** */
 184:Middlewares/Third_Party/FreeRTOS/Source/CMSIS_RTOS/cmsis_os.c **** uint32_t osKernelSysTick(void)
 185:Middlewares/Third_Party/FreeRTOS/Source/CMSIS_RTOS/cmsis_os.c **** {
 281              		.loc 1 185 1
 282              		.cfi_startproc
 283              		@ args = 0, pretend = 0, frame = 0
 284              		@ frame_needed = 1, uses_anonymous_args = 0
 285 0000 80B5     		push	{r7, lr}
 286              	.LCFI22:
 287              		.cfi_def_cfa_offset 8
 288              		.cfi_offset 7, -8
 289              		.cfi_offset 14, -4
 290 0002 00AF     		add	r7, sp, #0
 291              	.LCFI23:
 292              		.cfi_def_cfa_register 7
 186:Middlewares/Third_Party/FreeRTOS/Source/CMSIS_RTOS/cmsis_os.c ****   if (inHandlerMode()) {
 293              		.loc 1 186 7
 294 0004 FFF7FEFF 		bl	inHandlerMode
 295 0008 0346     		mov	r3, r0
 296              		.loc 1 186 6
 297 000a 002B     		cmp	r3, #0
 298 000c 03D0     		beq	.L16
 187:Middlewares/Third_Party/FreeRTOS/Source/CMSIS_RTOS/cmsis_os.c ****     return xTaskGetTickCountFromISR();
ARM GAS  /tmp/cc4ZeGpA.s 			page 13


 299              		.loc 1 187 12
 300 000e FFF7FEFF 		bl	xTaskGetTickCountFromISR
 301 0012 0346     		mov	r3, r0
 302 0014 02E0     		b	.L17
 303              	.L16:
 188:Middlewares/Third_Party/FreeRTOS/Source/CMSIS_RTOS/cmsis_os.c ****   }
 189:Middlewares/Third_Party/FreeRTOS/Source/CMSIS_RTOS/cmsis_os.c ****   else {
 190:Middlewares/Third_Party/FreeRTOS/Source/CMSIS_RTOS/cmsis_os.c ****     return xTaskGetTickCount();
 304              		.loc 1 190 12
 305 0016 FFF7FEFF 		bl	xTaskGetTickCount
 306 001a 0346     		mov	r3, r0
 307              	.L17:
 191:Middlewares/Third_Party/FreeRTOS/Source/CMSIS_RTOS/cmsis_os.c ****   }
 192:Middlewares/Third_Party/FreeRTOS/Source/CMSIS_RTOS/cmsis_os.c **** }
 308              		.loc 1 192 1
 309 001c 1846     		mov	r0, r3
 310 001e 80BD     		pop	{r7, pc}
 311              		.cfi_endproc
 312              	.LFE112:
 314              		.section	.text.osThreadCreate,"ax",%progbits
 315              		.align	1
 316              		.global	osThreadCreate
 317              		.syntax unified
 318              		.thumb
 319              		.thumb_func
 320              		.fpu fpv5-d16
 322              	osThreadCreate:
 323              	.LFB113:
 193:Middlewares/Third_Party/FreeRTOS/Source/CMSIS_RTOS/cmsis_os.c **** #endif    // System Timer available
 194:Middlewares/Third_Party/FreeRTOS/Source/CMSIS_RTOS/cmsis_os.c **** /*********************** Thread Management *****************************/
 195:Middlewares/Third_Party/FreeRTOS/Source/CMSIS_RTOS/cmsis_os.c **** /**
 196:Middlewares/Third_Party/FreeRTOS/Source/CMSIS_RTOS/cmsis_os.c **** * @brief  Create a thread and add it to Active Threads and set it to state READY.
 197:Middlewares/Third_Party/FreeRTOS/Source/CMSIS_RTOS/cmsis_os.c **** * @param  thread_def    thread definition referenced with \ref osThread.
 198:Middlewares/Third_Party/FreeRTOS/Source/CMSIS_RTOS/cmsis_os.c **** * @param  argument      pointer that is passed to the thread function as start argument.
 199:Middlewares/Third_Party/FreeRTOS/Source/CMSIS_RTOS/cmsis_os.c **** * @retval thread ID for reference by other functions or NULL in case of error.
 200:Middlewares/Third_Party/FreeRTOS/Source/CMSIS_RTOS/cmsis_os.c **** * @note   MUST REMAIN UNCHANGED: \b osThreadCreate shall be consistent in every CMSIS-RTOS.
 201:Middlewares/Third_Party/FreeRTOS/Source/CMSIS_RTOS/cmsis_os.c **** */
 202:Middlewares/Third_Party/FreeRTOS/Source/CMSIS_RTOS/cmsis_os.c **** osThreadId osThreadCreate (const osThreadDef_t *thread_def, void *argument)
 203:Middlewares/Third_Party/FreeRTOS/Source/CMSIS_RTOS/cmsis_os.c **** {
 324              		.loc 1 203 1
 325              		.cfi_startproc
 326              		@ args = 0, pretend = 0, frame = 16
 327              		@ frame_needed = 1, uses_anonymous_args = 0
 328 0000 F0B5     		push	{r4, r5, r6, r7, lr}
 329              	.LCFI24:
 330              		.cfi_def_cfa_offset 20
 331              		.cfi_offset 4, -20
 332              		.cfi_offset 5, -16
 333              		.cfi_offset 6, -12
 334              		.cfi_offset 7, -8
 335              		.cfi_offset 14, -4
 336 0002 89B0     		sub	sp, sp, #36
 337              	.LCFI25:
 338              		.cfi_def_cfa_offset 56
 339 0004 04AF     		add	r7, sp, #16
 340              	.LCFI26:
 341              		.cfi_def_cfa 7, 40
ARM GAS  /tmp/cc4ZeGpA.s 			page 14


 342 0006 7860     		str	r0, [r7, #4]
 343 0008 3960     		str	r1, [r7]
 204:Middlewares/Third_Party/FreeRTOS/Source/CMSIS_RTOS/cmsis_os.c ****   TaskHandle_t handle;
 205:Middlewares/Third_Party/FreeRTOS/Source/CMSIS_RTOS/cmsis_os.c ****   
 206:Middlewares/Third_Party/FreeRTOS/Source/CMSIS_RTOS/cmsis_os.c **** #if( configSUPPORT_STATIC_ALLOCATION == 1 ) &&  ( configSUPPORT_DYNAMIC_ALLOCATION == 1 )
 207:Middlewares/Third_Party/FreeRTOS/Source/CMSIS_RTOS/cmsis_os.c ****   if((thread_def->buffer != NULL) && (thread_def->controlblock != NULL)) {
 344              		.loc 1 207 17
 345 000a 7B68     		ldr	r3, [r7, #4]
 346 000c 5B69     		ldr	r3, [r3, #20]
 347              		.loc 1 207 5
 348 000e 002B     		cmp	r3, #0
 349 0010 20D0     		beq	.L19
 350              		.loc 1 207 49 discriminator 1
 351 0012 7B68     		ldr	r3, [r7, #4]
 352 0014 9B69     		ldr	r3, [r3, #24]
 353              		.loc 1 207 35 discriminator 1
 354 0016 002B     		cmp	r3, #0
 355 0018 1CD0     		beq	.L19
 208:Middlewares/Third_Party/FreeRTOS/Source/CMSIS_RTOS/cmsis_os.c ****     handle = xTaskCreateStatic((TaskFunction_t)thread_def->pthread,(const portCHAR *)thread_def->na
 356              		.loc 1 208 58
 357 001a 7B68     		ldr	r3, [r7, #4]
 358 001c 5C68     		ldr	r4, [r3, #4]
 359              		.loc 1 208 96
 360 001e 7B68     		ldr	r3, [r7, #4]
 361 0020 1D68     		ldr	r5, [r3]
 362              		.loc 1 208 14
 363 0022 7B68     		ldr	r3, [r7, #4]
 364 0024 1E69     		ldr	r6, [r3, #16]
 365 0026 7B68     		ldr	r3, [r7, #4]
 366 0028 B3F90830 		ldrsh	r3, [r3, #8]
 367 002c 1846     		mov	r0, r3
 368 002e FFF7FEFF 		bl	makeFreeRtosPriority
 369 0032 0146     		mov	r1, r0
 209:Middlewares/Third_Party/FreeRTOS/Source/CMSIS_RTOS/cmsis_os.c ****               thread_def->stacksize, argument, makeFreeRtosPriority(thread_def->tpriority),
 210:Middlewares/Third_Party/FreeRTOS/Source/CMSIS_RTOS/cmsis_os.c ****               thread_def->buffer, thread_def->controlblock);
 370              		.loc 1 210 25
 371 0034 7B68     		ldr	r3, [r7, #4]
 372 0036 5B69     		ldr	r3, [r3, #20]
 373              		.loc 1 210 45
 374 0038 7A68     		ldr	r2, [r7, #4]
 375 003a 9269     		ldr	r2, [r2, #24]
 208:Middlewares/Third_Party/FreeRTOS/Source/CMSIS_RTOS/cmsis_os.c ****     handle = xTaskCreateStatic((TaskFunction_t)thread_def->pthread,(const portCHAR *)thread_def->na
 376              		.loc 1 208 14
 377 003c 0292     		str	r2, [sp, #8]
 378 003e 0193     		str	r3, [sp, #4]
 379 0040 0091     		str	r1, [sp]
 380 0042 3B68     		ldr	r3, [r7]
 381 0044 3246     		mov	r2, r6
 382 0046 2946     		mov	r1, r5
 383 0048 2046     		mov	r0, r4
 384 004a FFF7FEFF 		bl	xTaskCreateStatic
 385 004e 0346     		mov	r3, r0
 208:Middlewares/Third_Party/FreeRTOS/Source/CMSIS_RTOS/cmsis_os.c ****     handle = xTaskCreateStatic((TaskFunction_t)thread_def->pthread,(const portCHAR *)thread_def->na
 386              		.loc 1 208 12
 387 0050 FB60     		str	r3, [r7, #12]
 388 0052 1CE0     		b	.L20
 389              	.L19:
ARM GAS  /tmp/cc4ZeGpA.s 			page 15


 211:Middlewares/Third_Party/FreeRTOS/Source/CMSIS_RTOS/cmsis_os.c ****   }
 212:Middlewares/Third_Party/FreeRTOS/Source/CMSIS_RTOS/cmsis_os.c ****   else {
 213:Middlewares/Third_Party/FreeRTOS/Source/CMSIS_RTOS/cmsis_os.c ****     if (xTaskCreate((TaskFunction_t)thread_def->pthread,(const portCHAR *)thread_def->name,
 390              		.loc 1 213 47
 391 0054 7B68     		ldr	r3, [r7, #4]
 392 0056 5C68     		ldr	r4, [r3, #4]
 393              		.loc 1 213 85
 394 0058 7B68     		ldr	r3, [r7, #4]
 395 005a 1D68     		ldr	r5, [r3]
 214:Middlewares/Third_Party/FreeRTOS/Source/CMSIS_RTOS/cmsis_os.c ****               thread_def->stacksize, argument, makeFreeRtosPriority(thread_def->tpriority),
 396              		.loc 1 214 25
 397 005c 7B68     		ldr	r3, [r7, #4]
 398 005e 1B69     		ldr	r3, [r3, #16]
 213:Middlewares/Third_Party/FreeRTOS/Source/CMSIS_RTOS/cmsis_os.c ****               thread_def->stacksize, argument, makeFreeRtosPriority(thread_def->tpriority),
 399              		.loc 1 213 9
 400 0060 9EB2     		uxth	r6, r3
 401 0062 7B68     		ldr	r3, [r7, #4]
 402 0064 B3F90830 		ldrsh	r3, [r3, #8]
 403 0068 1846     		mov	r0, r3
 404 006a FFF7FEFF 		bl	makeFreeRtosPriority
 405 006e 0246     		mov	r2, r0
 406 0070 07F10C03 		add	r3, r7, #12
 407 0074 0193     		str	r3, [sp, #4]
 408 0076 0092     		str	r2, [sp]
 409 0078 3B68     		ldr	r3, [r7]
 410 007a 3246     		mov	r2, r6
 411 007c 2946     		mov	r1, r5
 412 007e 2046     		mov	r0, r4
 413 0080 FFF7FEFF 		bl	xTaskCreate
 414 0084 0346     		mov	r3, r0
 213:Middlewares/Third_Party/FreeRTOS/Source/CMSIS_RTOS/cmsis_os.c ****               thread_def->stacksize, argument, makeFreeRtosPriority(thread_def->tpriority),
 415              		.loc 1 213 8
 416 0086 012B     		cmp	r3, #1
 417 0088 01D0     		beq	.L20
 215:Middlewares/Third_Party/FreeRTOS/Source/CMSIS_RTOS/cmsis_os.c ****               &handle) != pdPASS)  {
 216:Middlewares/Third_Party/FreeRTOS/Source/CMSIS_RTOS/cmsis_os.c ****       return NULL;
 418              		.loc 1 216 14
 419 008a 0023     		movs	r3, #0
 420 008c 00E0     		b	.L22
 421              	.L20:
 217:Middlewares/Third_Party/FreeRTOS/Source/CMSIS_RTOS/cmsis_os.c ****     } 
 218:Middlewares/Third_Party/FreeRTOS/Source/CMSIS_RTOS/cmsis_os.c ****   }
 219:Middlewares/Third_Party/FreeRTOS/Source/CMSIS_RTOS/cmsis_os.c **** #elif( configSUPPORT_STATIC_ALLOCATION == 1 )
 220:Middlewares/Third_Party/FreeRTOS/Source/CMSIS_RTOS/cmsis_os.c **** 
 221:Middlewares/Third_Party/FreeRTOS/Source/CMSIS_RTOS/cmsis_os.c ****     handle = xTaskCreateStatic((TaskFunction_t)thread_def->pthread,(const portCHAR *)thread_def->na
 222:Middlewares/Third_Party/FreeRTOS/Source/CMSIS_RTOS/cmsis_os.c ****               thread_def->stacksize, argument, makeFreeRtosPriority(thread_def->tpriority),
 223:Middlewares/Third_Party/FreeRTOS/Source/CMSIS_RTOS/cmsis_os.c ****               thread_def->buffer, thread_def->controlblock);
 224:Middlewares/Third_Party/FreeRTOS/Source/CMSIS_RTOS/cmsis_os.c **** #else
 225:Middlewares/Third_Party/FreeRTOS/Source/CMSIS_RTOS/cmsis_os.c ****   if (xTaskCreate((TaskFunction_t)thread_def->pthread,(const portCHAR *)thread_def->name,
 226:Middlewares/Third_Party/FreeRTOS/Source/CMSIS_RTOS/cmsis_os.c ****                    thread_def->stacksize, argument, makeFreeRtosPriority(thread_def->tpriority),
 227:Middlewares/Third_Party/FreeRTOS/Source/CMSIS_RTOS/cmsis_os.c ****                    &handle) != pdPASS)  {
 228:Middlewares/Third_Party/FreeRTOS/Source/CMSIS_RTOS/cmsis_os.c ****     return NULL;
 229:Middlewares/Third_Party/FreeRTOS/Source/CMSIS_RTOS/cmsis_os.c ****   }     
 230:Middlewares/Third_Party/FreeRTOS/Source/CMSIS_RTOS/cmsis_os.c **** #endif
 231:Middlewares/Third_Party/FreeRTOS/Source/CMSIS_RTOS/cmsis_os.c ****   
 232:Middlewares/Third_Party/FreeRTOS/Source/CMSIS_RTOS/cmsis_os.c ****   return handle;
 422              		.loc 1 232 10
ARM GAS  /tmp/cc4ZeGpA.s 			page 16


 423 008e FB68     		ldr	r3, [r7, #12]
 424              	.L22:
 233:Middlewares/Third_Party/FreeRTOS/Source/CMSIS_RTOS/cmsis_os.c **** }
 425              		.loc 1 233 1 discriminator 1
 426 0090 1846     		mov	r0, r3
 427 0092 1437     		adds	r7, r7, #20
 428              	.LCFI27:
 429              		.cfi_def_cfa_offset 20
 430 0094 BD46     		mov	sp, r7
 431              	.LCFI28:
 432              		.cfi_def_cfa_register 13
 433              		@ sp needed
 434 0096 F0BD     		pop	{r4, r5, r6, r7, pc}
 435              		.cfi_endproc
 436              	.LFE113:
 438              		.section	.text.osThreadGetId,"ax",%progbits
 439              		.align	1
 440              		.global	osThreadGetId
 441              		.syntax unified
 442              		.thumb
 443              		.thumb_func
 444              		.fpu fpv5-d16
 446              	osThreadGetId:
 447              	.LFB114:
 234:Middlewares/Third_Party/FreeRTOS/Source/CMSIS_RTOS/cmsis_os.c **** 
 235:Middlewares/Third_Party/FreeRTOS/Source/CMSIS_RTOS/cmsis_os.c **** /**
 236:Middlewares/Third_Party/FreeRTOS/Source/CMSIS_RTOS/cmsis_os.c **** * @brief  Return the thread ID of the current running thread.
 237:Middlewares/Third_Party/FreeRTOS/Source/CMSIS_RTOS/cmsis_os.c **** * @retval thread ID for reference by other functions or NULL in case of error.
 238:Middlewares/Third_Party/FreeRTOS/Source/CMSIS_RTOS/cmsis_os.c **** * @note   MUST REMAIN UNCHANGED: \b osThreadGetId shall be consistent in every CMSIS-RTOS.
 239:Middlewares/Third_Party/FreeRTOS/Source/CMSIS_RTOS/cmsis_os.c **** */
 240:Middlewares/Third_Party/FreeRTOS/Source/CMSIS_RTOS/cmsis_os.c **** osThreadId osThreadGetId (void)
 241:Middlewares/Third_Party/FreeRTOS/Source/CMSIS_RTOS/cmsis_os.c **** {
 448              		.loc 1 241 1
 449              		.cfi_startproc
 450              		@ args = 0, pretend = 0, frame = 0
 451              		@ frame_needed = 1, uses_anonymous_args = 0
 452 0000 80B5     		push	{r7, lr}
 453              	.LCFI29:
 454              		.cfi_def_cfa_offset 8
 455              		.cfi_offset 7, -8
 456              		.cfi_offset 14, -4
 457 0002 00AF     		add	r7, sp, #0
 458              	.LCFI30:
 459              		.cfi_def_cfa_register 7
 242:Middlewares/Third_Party/FreeRTOS/Source/CMSIS_RTOS/cmsis_os.c **** #if ( ( INCLUDE_xTaskGetCurrentTaskHandle == 1 ) || ( configUSE_MUTEXES == 1 ) )
 243:Middlewares/Third_Party/FreeRTOS/Source/CMSIS_RTOS/cmsis_os.c ****   return xTaskGetCurrentTaskHandle();
 460              		.loc 1 243 10
 461 0004 FFF7FEFF 		bl	xTaskGetCurrentTaskHandle
 462 0008 0346     		mov	r3, r0
 244:Middlewares/Third_Party/FreeRTOS/Source/CMSIS_RTOS/cmsis_os.c **** #else
 245:Middlewares/Third_Party/FreeRTOS/Source/CMSIS_RTOS/cmsis_os.c **** 	return NULL;
 246:Middlewares/Third_Party/FreeRTOS/Source/CMSIS_RTOS/cmsis_os.c **** #endif
 247:Middlewares/Third_Party/FreeRTOS/Source/CMSIS_RTOS/cmsis_os.c **** }
 463              		.loc 1 247 1
 464 000a 1846     		mov	r0, r3
 465 000c 80BD     		pop	{r7, pc}
 466              		.cfi_endproc
ARM GAS  /tmp/cc4ZeGpA.s 			page 17


 467              	.LFE114:
 469              		.section	.text.osThreadTerminate,"ax",%progbits
 470              		.align	1
 471              		.global	osThreadTerminate
 472              		.syntax unified
 473              		.thumb
 474              		.thumb_func
 475              		.fpu fpv5-d16
 477              	osThreadTerminate:
 478              	.LFB115:
 248:Middlewares/Third_Party/FreeRTOS/Source/CMSIS_RTOS/cmsis_os.c **** 
 249:Middlewares/Third_Party/FreeRTOS/Source/CMSIS_RTOS/cmsis_os.c **** /**
 250:Middlewares/Third_Party/FreeRTOS/Source/CMSIS_RTOS/cmsis_os.c **** * @brief  Terminate execution of a thread and remove it from Active Threads.
 251:Middlewares/Third_Party/FreeRTOS/Source/CMSIS_RTOS/cmsis_os.c **** * @param   thread_id   thread ID obtained by \ref osThreadCreate or \ref osThreadGetId.
 252:Middlewares/Third_Party/FreeRTOS/Source/CMSIS_RTOS/cmsis_os.c **** * @retval  status code that indicates the execution status of the function.
 253:Middlewares/Third_Party/FreeRTOS/Source/CMSIS_RTOS/cmsis_os.c **** * @note   MUST REMAIN UNCHANGED: \b osThreadTerminate shall be consistent in every CMSIS-RTOS.
 254:Middlewares/Third_Party/FreeRTOS/Source/CMSIS_RTOS/cmsis_os.c **** */
 255:Middlewares/Third_Party/FreeRTOS/Source/CMSIS_RTOS/cmsis_os.c **** osStatus osThreadTerminate (osThreadId thread_id)
 256:Middlewares/Third_Party/FreeRTOS/Source/CMSIS_RTOS/cmsis_os.c **** {
 479              		.loc 1 256 1
 480              		.cfi_startproc
 481              		@ args = 0, pretend = 0, frame = 8
 482              		@ frame_needed = 1, uses_anonymous_args = 0
 483 0000 80B5     		push	{r7, lr}
 484              	.LCFI31:
 485              		.cfi_def_cfa_offset 8
 486              		.cfi_offset 7, -8
 487              		.cfi_offset 14, -4
 488 0002 82B0     		sub	sp, sp, #8
 489              	.LCFI32:
 490              		.cfi_def_cfa_offset 16
 491 0004 00AF     		add	r7, sp, #0
 492              	.LCFI33:
 493              		.cfi_def_cfa_register 7
 494 0006 7860     		str	r0, [r7, #4]
 257:Middlewares/Third_Party/FreeRTOS/Source/CMSIS_RTOS/cmsis_os.c **** #if (INCLUDE_vTaskDelete == 1)
 258:Middlewares/Third_Party/FreeRTOS/Source/CMSIS_RTOS/cmsis_os.c ****   vTaskDelete(thread_id);
 495              		.loc 1 258 3
 496 0008 7868     		ldr	r0, [r7, #4]
 497 000a FFF7FEFF 		bl	vTaskDelete
 259:Middlewares/Third_Party/FreeRTOS/Source/CMSIS_RTOS/cmsis_os.c ****   return osOK;
 498              		.loc 1 259 10
 499 000e 0023     		movs	r3, #0
 260:Middlewares/Third_Party/FreeRTOS/Source/CMSIS_RTOS/cmsis_os.c **** #else
 261:Middlewares/Third_Party/FreeRTOS/Source/CMSIS_RTOS/cmsis_os.c ****   return osErrorOS;
 262:Middlewares/Third_Party/FreeRTOS/Source/CMSIS_RTOS/cmsis_os.c **** #endif
 263:Middlewares/Third_Party/FreeRTOS/Source/CMSIS_RTOS/cmsis_os.c **** }
 500              		.loc 1 263 1
 501 0010 1846     		mov	r0, r3
 502 0012 0837     		adds	r7, r7, #8
 503              	.LCFI34:
 504              		.cfi_def_cfa_offset 8
 505 0014 BD46     		mov	sp, r7
 506              	.LCFI35:
 507              		.cfi_def_cfa_register 13
 508              		@ sp needed
 509 0016 80BD     		pop	{r7, pc}
ARM GAS  /tmp/cc4ZeGpA.s 			page 18


 510              		.cfi_endproc
 511              	.LFE115:
 513              		.section	.text.osThreadYield,"ax",%progbits
 514              		.align	1
 515              		.global	osThreadYield
 516              		.syntax unified
 517              		.thumb
 518              		.thumb_func
 519              		.fpu fpv5-d16
 521              	osThreadYield:
 522              	.LFB116:
 264:Middlewares/Third_Party/FreeRTOS/Source/CMSIS_RTOS/cmsis_os.c **** 
 265:Middlewares/Third_Party/FreeRTOS/Source/CMSIS_RTOS/cmsis_os.c **** /**
 266:Middlewares/Third_Party/FreeRTOS/Source/CMSIS_RTOS/cmsis_os.c **** * @brief  Pass control to next thread that is in state \b READY.
 267:Middlewares/Third_Party/FreeRTOS/Source/CMSIS_RTOS/cmsis_os.c **** * @retval status code that indicates the execution status of the function.
 268:Middlewares/Third_Party/FreeRTOS/Source/CMSIS_RTOS/cmsis_os.c **** * @note   MUST REMAIN UNCHANGED: \b osThreadYield shall be consistent in every CMSIS-RTOS.
 269:Middlewares/Third_Party/FreeRTOS/Source/CMSIS_RTOS/cmsis_os.c **** */
 270:Middlewares/Third_Party/FreeRTOS/Source/CMSIS_RTOS/cmsis_os.c **** osStatus osThreadYield (void)
 271:Middlewares/Third_Party/FreeRTOS/Source/CMSIS_RTOS/cmsis_os.c **** {
 523              		.loc 1 271 1
 524              		.cfi_startproc
 525              		@ args = 0, pretend = 0, frame = 0
 526              		@ frame_needed = 1, uses_anonymous_args = 0
 527              		@ link register save eliminated.
 528 0000 80B4     		push	{r7}
 529              	.LCFI36:
 530              		.cfi_def_cfa_offset 4
 531              		.cfi_offset 7, -4
 532 0002 00AF     		add	r7, sp, #0
 533              	.LCFI37:
 534              		.cfi_def_cfa_register 7
 272:Middlewares/Third_Party/FreeRTOS/Source/CMSIS_RTOS/cmsis_os.c ****   taskYIELD();
 535              		.loc 1 272 3
 536 0004 064B     		ldr	r3, .L29
 537 0006 4FF08052 		mov	r2, #268435456
 538 000a 1A60     		str	r2, [r3]
 539              		.syntax unified
 540              	@ 272 "Middlewares/Third_Party/FreeRTOS/Source/CMSIS_RTOS/cmsis_os.c" 1
 541 000c BFF34F8F 		dsb
 542              	@ 0 "" 2
 543              	@ 272 "Middlewares/Third_Party/FreeRTOS/Source/CMSIS_RTOS/cmsis_os.c" 1
 544 0010 BFF36F8F 		isb
 545              	@ 0 "" 2
 273:Middlewares/Third_Party/FreeRTOS/Source/CMSIS_RTOS/cmsis_os.c ****   
 274:Middlewares/Third_Party/FreeRTOS/Source/CMSIS_RTOS/cmsis_os.c ****   return osOK;
 546              		.loc 1 274 10
 547              		.thumb
 548              		.syntax unified
 549 0014 0023     		movs	r3, #0
 275:Middlewares/Third_Party/FreeRTOS/Source/CMSIS_RTOS/cmsis_os.c **** }
 550              		.loc 1 275 1
 551 0016 1846     		mov	r0, r3
 552 0018 BD46     		mov	sp, r7
 553              	.LCFI38:
 554              		.cfi_def_cfa_register 13
 555              		@ sp needed
 556 001a 5DF8047B 		ldr	r7, [sp], #4
ARM GAS  /tmp/cc4ZeGpA.s 			page 19


 557              	.LCFI39:
 558              		.cfi_restore 7
 559              		.cfi_def_cfa_offset 0
 560 001e 7047     		bx	lr
 561              	.L30:
 562              		.align	2
 563              	.L29:
 564 0020 04ED00E0 		.word	-536810236
 565              		.cfi_endproc
 566              	.LFE116:
 568              		.section	.text.osThreadSetPriority,"ax",%progbits
 569              		.align	1
 570              		.global	osThreadSetPriority
 571              		.syntax unified
 572              		.thumb
 573              		.thumb_func
 574              		.fpu fpv5-d16
 576              	osThreadSetPriority:
 577              	.LFB117:
 276:Middlewares/Third_Party/FreeRTOS/Source/CMSIS_RTOS/cmsis_os.c **** 
 277:Middlewares/Third_Party/FreeRTOS/Source/CMSIS_RTOS/cmsis_os.c **** /**
 278:Middlewares/Third_Party/FreeRTOS/Source/CMSIS_RTOS/cmsis_os.c **** * @brief   Change priority of an active thread.
 279:Middlewares/Third_Party/FreeRTOS/Source/CMSIS_RTOS/cmsis_os.c **** * @param   thread_id     thread ID obtained by \ref osThreadCreate or \ref osThreadGetId.
 280:Middlewares/Third_Party/FreeRTOS/Source/CMSIS_RTOS/cmsis_os.c **** * @param   priority      new priority value for the thread function.
 281:Middlewares/Third_Party/FreeRTOS/Source/CMSIS_RTOS/cmsis_os.c **** * @retval  status code that indicates the execution status of the function.
 282:Middlewares/Third_Party/FreeRTOS/Source/CMSIS_RTOS/cmsis_os.c **** * @note   MUST REMAIN UNCHANGED: \b osThreadSetPriority shall be consistent in every CMSIS-RTOS.
 283:Middlewares/Third_Party/FreeRTOS/Source/CMSIS_RTOS/cmsis_os.c **** */
 284:Middlewares/Third_Party/FreeRTOS/Source/CMSIS_RTOS/cmsis_os.c **** osStatus osThreadSetPriority (osThreadId thread_id, osPriority priority)
 285:Middlewares/Third_Party/FreeRTOS/Source/CMSIS_RTOS/cmsis_os.c **** {
 578              		.loc 1 285 1
 579              		.cfi_startproc
 580              		@ args = 0, pretend = 0, frame = 8
 581              		@ frame_needed = 1, uses_anonymous_args = 0
 582 0000 80B5     		push	{r7, lr}
 583              	.LCFI40:
 584              		.cfi_def_cfa_offset 8
 585              		.cfi_offset 7, -8
 586              		.cfi_offset 14, -4
 587 0002 82B0     		sub	sp, sp, #8
 588              	.LCFI41:
 589              		.cfi_def_cfa_offset 16
 590 0004 00AF     		add	r7, sp, #0
 591              	.LCFI42:
 592              		.cfi_def_cfa_register 7
 593 0006 7860     		str	r0, [r7, #4]
 594 0008 0B46     		mov	r3, r1
 595 000a 7B80     		strh	r3, [r7, #2]	@ movhi
 286:Middlewares/Third_Party/FreeRTOS/Source/CMSIS_RTOS/cmsis_os.c **** #if (INCLUDE_vTaskPrioritySet == 1)
 287:Middlewares/Third_Party/FreeRTOS/Source/CMSIS_RTOS/cmsis_os.c ****   vTaskPrioritySet(thread_id, makeFreeRtosPriority(priority));
 596              		.loc 1 287 3
 597 000c B7F90230 		ldrsh	r3, [r7, #2]
 598 0010 1846     		mov	r0, r3
 599 0012 FFF7FEFF 		bl	makeFreeRtosPriority
 600 0016 0346     		mov	r3, r0
 601 0018 1946     		mov	r1, r3
 602 001a 7868     		ldr	r0, [r7, #4]
 603 001c FFF7FEFF 		bl	vTaskPrioritySet
ARM GAS  /tmp/cc4ZeGpA.s 			page 20


 288:Middlewares/Third_Party/FreeRTOS/Source/CMSIS_RTOS/cmsis_os.c ****   return osOK;
 604              		.loc 1 288 10
 605 0020 0023     		movs	r3, #0
 289:Middlewares/Third_Party/FreeRTOS/Source/CMSIS_RTOS/cmsis_os.c **** #else
 290:Middlewares/Third_Party/FreeRTOS/Source/CMSIS_RTOS/cmsis_os.c ****   return osErrorOS;
 291:Middlewares/Third_Party/FreeRTOS/Source/CMSIS_RTOS/cmsis_os.c **** #endif
 292:Middlewares/Third_Party/FreeRTOS/Source/CMSIS_RTOS/cmsis_os.c **** }
 606              		.loc 1 292 1
 607 0022 1846     		mov	r0, r3
 608 0024 0837     		adds	r7, r7, #8
 609              	.LCFI43:
 610              		.cfi_def_cfa_offset 8
 611 0026 BD46     		mov	sp, r7
 612              	.LCFI44:
 613              		.cfi_def_cfa_register 13
 614              		@ sp needed
 615 0028 80BD     		pop	{r7, pc}
 616              		.cfi_endproc
 617              	.LFE117:
 619              		.section	.text.osThreadGetPriority,"ax",%progbits
 620              		.align	1
 621              		.global	osThreadGetPriority
 622              		.syntax unified
 623              		.thumb
 624              		.thumb_func
 625              		.fpu fpv5-d16
 627              	osThreadGetPriority:
 628              	.LFB118:
 293:Middlewares/Third_Party/FreeRTOS/Source/CMSIS_RTOS/cmsis_os.c **** 
 294:Middlewares/Third_Party/FreeRTOS/Source/CMSIS_RTOS/cmsis_os.c **** /**
 295:Middlewares/Third_Party/FreeRTOS/Source/CMSIS_RTOS/cmsis_os.c **** * @brief   Get current priority of an active thread.
 296:Middlewares/Third_Party/FreeRTOS/Source/CMSIS_RTOS/cmsis_os.c **** * @param   thread_id     thread ID obtained by \ref osThreadCreate or \ref osThreadGetId.
 297:Middlewares/Third_Party/FreeRTOS/Source/CMSIS_RTOS/cmsis_os.c **** * @retval  current priority value of the thread function.
 298:Middlewares/Third_Party/FreeRTOS/Source/CMSIS_RTOS/cmsis_os.c **** * @note   MUST REMAIN UNCHANGED: \b osThreadGetPriority shall be consistent in every CMSIS-RTOS.
 299:Middlewares/Third_Party/FreeRTOS/Source/CMSIS_RTOS/cmsis_os.c **** */
 300:Middlewares/Third_Party/FreeRTOS/Source/CMSIS_RTOS/cmsis_os.c **** osPriority osThreadGetPriority (osThreadId thread_id)
 301:Middlewares/Third_Party/FreeRTOS/Source/CMSIS_RTOS/cmsis_os.c **** {
 629              		.loc 1 301 1
 630              		.cfi_startproc
 631              		@ args = 0, pretend = 0, frame = 8
 632              		@ frame_needed = 1, uses_anonymous_args = 0
 633 0000 80B5     		push	{r7, lr}
 634              	.LCFI45:
 635              		.cfi_def_cfa_offset 8
 636              		.cfi_offset 7, -8
 637              		.cfi_offset 14, -4
 638 0002 82B0     		sub	sp, sp, #8
 639              	.LCFI46:
 640              		.cfi_def_cfa_offset 16
 641 0004 00AF     		add	r7, sp, #0
 642              	.LCFI47:
 643              		.cfi_def_cfa_register 7
 644 0006 7860     		str	r0, [r7, #4]
 302:Middlewares/Third_Party/FreeRTOS/Source/CMSIS_RTOS/cmsis_os.c **** #if (INCLUDE_uxTaskPriorityGet == 1)
 303:Middlewares/Third_Party/FreeRTOS/Source/CMSIS_RTOS/cmsis_os.c ****   if (inHandlerMode())
 645              		.loc 1 303 7
 646 0008 FFF7FEFF 		bl	inHandlerMode
ARM GAS  /tmp/cc4ZeGpA.s 			page 21


 647 000c 0346     		mov	r3, r0
 648              		.loc 1 303 6
 649 000e 002B     		cmp	r3, #0
 650 0010 08D0     		beq	.L34
 304:Middlewares/Third_Party/FreeRTOS/Source/CMSIS_RTOS/cmsis_os.c ****   {
 305:Middlewares/Third_Party/FreeRTOS/Source/CMSIS_RTOS/cmsis_os.c ****     return makeCmsisPriority(uxTaskPriorityGetFromISR(thread_id));  
 651              		.loc 1 305 12
 652 0012 7868     		ldr	r0, [r7, #4]
 653 0014 FFF7FEFF 		bl	uxTaskPriorityGetFromISR
 654 0018 0346     		mov	r3, r0
 655 001a 1846     		mov	r0, r3
 656 001c FFF7FEFF 		bl	makeCmsisPriority
 657 0020 0346     		mov	r3, r0
 658 0022 07E0     		b	.L35
 659              	.L34:
 306:Middlewares/Third_Party/FreeRTOS/Source/CMSIS_RTOS/cmsis_os.c ****   }
 307:Middlewares/Third_Party/FreeRTOS/Source/CMSIS_RTOS/cmsis_os.c ****   else
 308:Middlewares/Third_Party/FreeRTOS/Source/CMSIS_RTOS/cmsis_os.c ****   {  
 309:Middlewares/Third_Party/FreeRTOS/Source/CMSIS_RTOS/cmsis_os.c ****     return makeCmsisPriority(uxTaskPriorityGet(thread_id));
 660              		.loc 1 309 12
 661 0024 7868     		ldr	r0, [r7, #4]
 662 0026 FFF7FEFF 		bl	uxTaskPriorityGet
 663 002a 0346     		mov	r3, r0
 664 002c 1846     		mov	r0, r3
 665 002e FFF7FEFF 		bl	makeCmsisPriority
 666 0032 0346     		mov	r3, r0
 667              	.L35:
 310:Middlewares/Third_Party/FreeRTOS/Source/CMSIS_RTOS/cmsis_os.c ****   }
 311:Middlewares/Third_Party/FreeRTOS/Source/CMSIS_RTOS/cmsis_os.c **** #else
 312:Middlewares/Third_Party/FreeRTOS/Source/CMSIS_RTOS/cmsis_os.c ****   return osPriorityError;
 313:Middlewares/Third_Party/FreeRTOS/Source/CMSIS_RTOS/cmsis_os.c **** #endif
 314:Middlewares/Third_Party/FreeRTOS/Source/CMSIS_RTOS/cmsis_os.c **** }
 668              		.loc 1 314 1
 669 0034 1846     		mov	r0, r3
 670 0036 0837     		adds	r7, r7, #8
 671              	.LCFI48:
 672              		.cfi_def_cfa_offset 8
 673 0038 BD46     		mov	sp, r7
 674              	.LCFI49:
 675              		.cfi_def_cfa_register 13
 676              		@ sp needed
 677 003a 80BD     		pop	{r7, pc}
 678              		.cfi_endproc
 679              	.LFE118:
 681              		.section	.text.osDelay,"ax",%progbits
 682              		.align	1
 683              		.global	osDelay
 684              		.syntax unified
 685              		.thumb
 686              		.thumb_func
 687              		.fpu fpv5-d16
 689              	osDelay:
 690              	.LFB119:
 315:Middlewares/Third_Party/FreeRTOS/Source/CMSIS_RTOS/cmsis_os.c **** 
 316:Middlewares/Third_Party/FreeRTOS/Source/CMSIS_RTOS/cmsis_os.c **** /*********************** Generic Wait Functions *******************************/
 317:Middlewares/Third_Party/FreeRTOS/Source/CMSIS_RTOS/cmsis_os.c **** /**
 318:Middlewares/Third_Party/FreeRTOS/Source/CMSIS_RTOS/cmsis_os.c **** * @brief   Wait for Timeout (Time Delay)
ARM GAS  /tmp/cc4ZeGpA.s 			page 22


 319:Middlewares/Third_Party/FreeRTOS/Source/CMSIS_RTOS/cmsis_os.c **** * @param   millisec      time delay value
 320:Middlewares/Third_Party/FreeRTOS/Source/CMSIS_RTOS/cmsis_os.c **** * @retval  status code that indicates the execution status of the function.
 321:Middlewares/Third_Party/FreeRTOS/Source/CMSIS_RTOS/cmsis_os.c **** */
 322:Middlewares/Third_Party/FreeRTOS/Source/CMSIS_RTOS/cmsis_os.c **** osStatus osDelay (uint32_t millisec)
 323:Middlewares/Third_Party/FreeRTOS/Source/CMSIS_RTOS/cmsis_os.c **** {
 691              		.loc 1 323 1
 692              		.cfi_startproc
 693              		@ args = 0, pretend = 0, frame = 16
 694              		@ frame_needed = 1, uses_anonymous_args = 0
 695 0000 80B5     		push	{r7, lr}
 696              	.LCFI50:
 697              		.cfi_def_cfa_offset 8
 698              		.cfi_offset 7, -8
 699              		.cfi_offset 14, -4
 700 0002 84B0     		sub	sp, sp, #16
 701              	.LCFI51:
 702              		.cfi_def_cfa_offset 24
 703 0004 00AF     		add	r7, sp, #0
 704              	.LCFI52:
 705              		.cfi_def_cfa_register 7
 706 0006 7860     		str	r0, [r7, #4]
 324:Middlewares/Third_Party/FreeRTOS/Source/CMSIS_RTOS/cmsis_os.c **** #if INCLUDE_vTaskDelay
 325:Middlewares/Third_Party/FreeRTOS/Source/CMSIS_RTOS/cmsis_os.c ****   TickType_t ticks = millisec / portTICK_PERIOD_MS;
 707              		.loc 1 325 14
 708 0008 7B68     		ldr	r3, [r7, #4]
 709 000a FB60     		str	r3, [r7, #12]
 326:Middlewares/Third_Party/FreeRTOS/Source/CMSIS_RTOS/cmsis_os.c ****   
 327:Middlewares/Third_Party/FreeRTOS/Source/CMSIS_RTOS/cmsis_os.c ****   vTaskDelay(ticks ? ticks : 1);          /* Minimum delay = 1 tick */
 710              		.loc 1 327 3
 711 000c FB68     		ldr	r3, [r7, #12]
 712 000e 002B     		cmp	r3, #0
 713 0010 01D0     		beq	.L37
 714              		.loc 1 327 3 is_stmt 0 discriminator 1
 715 0012 FB68     		ldr	r3, [r7, #12]
 716 0014 00E0     		b	.L38
 717              	.L37:
 718              		.loc 1 327 3 discriminator 2
 719 0016 0123     		movs	r3, #1
 720              	.L38:
 721              		.loc 1 327 3 discriminator 4
 722 0018 1846     		mov	r0, r3
 723 001a FFF7FEFF 		bl	vTaskDelay
 328:Middlewares/Third_Party/FreeRTOS/Source/CMSIS_RTOS/cmsis_os.c ****   
 329:Middlewares/Third_Party/FreeRTOS/Source/CMSIS_RTOS/cmsis_os.c ****   return osOK;
 724              		.loc 1 329 10 is_stmt 1 discriminator 4
 725 001e 0023     		movs	r3, #0
 330:Middlewares/Third_Party/FreeRTOS/Source/CMSIS_RTOS/cmsis_os.c **** #else
 331:Middlewares/Third_Party/FreeRTOS/Source/CMSIS_RTOS/cmsis_os.c ****   (void) millisec;
 332:Middlewares/Third_Party/FreeRTOS/Source/CMSIS_RTOS/cmsis_os.c ****   
 333:Middlewares/Third_Party/FreeRTOS/Source/CMSIS_RTOS/cmsis_os.c ****   return osErrorResource;
 334:Middlewares/Third_Party/FreeRTOS/Source/CMSIS_RTOS/cmsis_os.c **** #endif
 335:Middlewares/Third_Party/FreeRTOS/Source/CMSIS_RTOS/cmsis_os.c **** }
 726              		.loc 1 335 1 discriminator 4
 727 0020 1846     		mov	r0, r3
 728 0022 1037     		adds	r7, r7, #16
 729              	.LCFI53:
 730              		.cfi_def_cfa_offset 8
ARM GAS  /tmp/cc4ZeGpA.s 			page 23


 731 0024 BD46     		mov	sp, r7
 732              	.LCFI54:
 733              		.cfi_def_cfa_register 13
 734              		@ sp needed
 735 0026 80BD     		pop	{r7, pc}
 736              		.cfi_endproc
 737              	.LFE119:
 739              		.section	.text.osTimerCreate,"ax",%progbits
 740              		.align	1
 741              		.global	osTimerCreate
 742              		.syntax unified
 743              		.thumb
 744              		.thumb_func
 745              		.fpu fpv5-d16
 747              	osTimerCreate:
 748              	.LFB120:
 336:Middlewares/Third_Party/FreeRTOS/Source/CMSIS_RTOS/cmsis_os.c **** 
 337:Middlewares/Third_Party/FreeRTOS/Source/CMSIS_RTOS/cmsis_os.c **** #if (defined (osFeature_Wait)  &&  (osFeature_Wait != 0)) /* Generic Wait available */
 338:Middlewares/Third_Party/FreeRTOS/Source/CMSIS_RTOS/cmsis_os.c **** /**
 339:Middlewares/Third_Party/FreeRTOS/Source/CMSIS_RTOS/cmsis_os.c **** * @brief  Wait for Signal, Message, Mail, or Timeout
 340:Middlewares/Third_Party/FreeRTOS/Source/CMSIS_RTOS/cmsis_os.c **** * @param   millisec  timeout value or 0 in case of no time-out
 341:Middlewares/Third_Party/FreeRTOS/Source/CMSIS_RTOS/cmsis_os.c **** * @retval  event that contains signal, message, or mail information or error code.
 342:Middlewares/Third_Party/FreeRTOS/Source/CMSIS_RTOS/cmsis_os.c **** * @note   MUST REMAIN UNCHANGED: \b osWait shall be consistent in every CMSIS-RTOS.
 343:Middlewares/Third_Party/FreeRTOS/Source/CMSIS_RTOS/cmsis_os.c **** */
 344:Middlewares/Third_Party/FreeRTOS/Source/CMSIS_RTOS/cmsis_os.c **** osEvent osWait (uint32_t millisec);
 345:Middlewares/Third_Party/FreeRTOS/Source/CMSIS_RTOS/cmsis_os.c **** 
 346:Middlewares/Third_Party/FreeRTOS/Source/CMSIS_RTOS/cmsis_os.c **** #endif  /* Generic Wait available */
 347:Middlewares/Third_Party/FreeRTOS/Source/CMSIS_RTOS/cmsis_os.c **** 
 348:Middlewares/Third_Party/FreeRTOS/Source/CMSIS_RTOS/cmsis_os.c **** /***********************  Timer Management Functions ***************************/
 349:Middlewares/Third_Party/FreeRTOS/Source/CMSIS_RTOS/cmsis_os.c **** /**
 350:Middlewares/Third_Party/FreeRTOS/Source/CMSIS_RTOS/cmsis_os.c **** * @brief  Create a timer.
 351:Middlewares/Third_Party/FreeRTOS/Source/CMSIS_RTOS/cmsis_os.c **** * @param  timer_def     timer object referenced with \ref osTimer.
 352:Middlewares/Third_Party/FreeRTOS/Source/CMSIS_RTOS/cmsis_os.c **** * @param  type          osTimerOnce for one-shot or osTimerPeriodic for periodic behavior.
 353:Middlewares/Third_Party/FreeRTOS/Source/CMSIS_RTOS/cmsis_os.c **** * @param  argument      argument to the timer call back function.
 354:Middlewares/Third_Party/FreeRTOS/Source/CMSIS_RTOS/cmsis_os.c **** * @retval  timer ID for reference by other functions or NULL in case of error.
 355:Middlewares/Third_Party/FreeRTOS/Source/CMSIS_RTOS/cmsis_os.c **** * @note   MUST REMAIN UNCHANGED: \b osTimerCreate shall be consistent in every CMSIS-RTOS.
 356:Middlewares/Third_Party/FreeRTOS/Source/CMSIS_RTOS/cmsis_os.c **** */
 357:Middlewares/Third_Party/FreeRTOS/Source/CMSIS_RTOS/cmsis_os.c **** osTimerId osTimerCreate (const osTimerDef_t *timer_def, os_timer_type type, void *argument)
 358:Middlewares/Third_Party/FreeRTOS/Source/CMSIS_RTOS/cmsis_os.c **** {
 749              		.loc 1 358 1
 750              		.cfi_startproc
 751              		@ args = 0, pretend = 0, frame = 16
 752              		@ frame_needed = 1, uses_anonymous_args = 0
 753              		@ link register save eliminated.
 754 0000 80B4     		push	{r7}
 755              	.LCFI55:
 756              		.cfi_def_cfa_offset 4
 757              		.cfi_offset 7, -4
 758 0002 85B0     		sub	sp, sp, #20
 759              	.LCFI56:
 760              		.cfi_def_cfa_offset 24
 761 0004 00AF     		add	r7, sp, #0
 762              	.LCFI57:
 763              		.cfi_def_cfa_register 7
 764 0006 F860     		str	r0, [r7, #12]
 765 0008 0B46     		mov	r3, r1
 766 000a 7A60     		str	r2, [r7, #4]
ARM GAS  /tmp/cc4ZeGpA.s 			page 24


 767 000c FB72     		strb	r3, [r7, #11]
 359:Middlewares/Third_Party/FreeRTOS/Source/CMSIS_RTOS/cmsis_os.c **** #if (configUSE_TIMERS == 1)
 360:Middlewares/Third_Party/FreeRTOS/Source/CMSIS_RTOS/cmsis_os.c **** 
 361:Middlewares/Third_Party/FreeRTOS/Source/CMSIS_RTOS/cmsis_os.c **** #if( ( configSUPPORT_STATIC_ALLOCATION == 1 ) && ( configSUPPORT_DYNAMIC_ALLOCATION == 1 ) ) 
 362:Middlewares/Third_Party/FreeRTOS/Source/CMSIS_RTOS/cmsis_os.c ****   if(timer_def->controlblock != NULL) {
 363:Middlewares/Third_Party/FreeRTOS/Source/CMSIS_RTOS/cmsis_os.c ****     return xTimerCreateStatic((const char *)"",
 364:Middlewares/Third_Party/FreeRTOS/Source/CMSIS_RTOS/cmsis_os.c ****                       1, // period should be filled when starting the Timer using osTimerStart
 365:Middlewares/Third_Party/FreeRTOS/Source/CMSIS_RTOS/cmsis_os.c ****                       (type == osTimerPeriodic) ? pdTRUE : pdFALSE,
 366:Middlewares/Third_Party/FreeRTOS/Source/CMSIS_RTOS/cmsis_os.c ****                       (void *) argument,
 367:Middlewares/Third_Party/FreeRTOS/Source/CMSIS_RTOS/cmsis_os.c ****                       (TimerCallbackFunction_t)timer_def->ptimer,
 368:Middlewares/Third_Party/FreeRTOS/Source/CMSIS_RTOS/cmsis_os.c ****                       (StaticTimer_t *)timer_def->controlblock);
 369:Middlewares/Third_Party/FreeRTOS/Source/CMSIS_RTOS/cmsis_os.c ****   }
 370:Middlewares/Third_Party/FreeRTOS/Source/CMSIS_RTOS/cmsis_os.c ****   else {
 371:Middlewares/Third_Party/FreeRTOS/Source/CMSIS_RTOS/cmsis_os.c ****     return xTimerCreate((const char *)"",
 372:Middlewares/Third_Party/FreeRTOS/Source/CMSIS_RTOS/cmsis_os.c ****                       1, // period should be filled when starting the Timer using osTimerStart
 373:Middlewares/Third_Party/FreeRTOS/Source/CMSIS_RTOS/cmsis_os.c ****                       (type == osTimerPeriodic) ? pdTRUE : pdFALSE,
 374:Middlewares/Third_Party/FreeRTOS/Source/CMSIS_RTOS/cmsis_os.c ****                       (void *) argument,
 375:Middlewares/Third_Party/FreeRTOS/Source/CMSIS_RTOS/cmsis_os.c ****                       (TimerCallbackFunction_t)timer_def->ptimer);
 376:Middlewares/Third_Party/FreeRTOS/Source/CMSIS_RTOS/cmsis_os.c ****  }
 377:Middlewares/Third_Party/FreeRTOS/Source/CMSIS_RTOS/cmsis_os.c **** #elif( configSUPPORT_STATIC_ALLOCATION == 1 )
 378:Middlewares/Third_Party/FreeRTOS/Source/CMSIS_RTOS/cmsis_os.c ****   return xTimerCreateStatic((const char *)"",
 379:Middlewares/Third_Party/FreeRTOS/Source/CMSIS_RTOS/cmsis_os.c ****                       1, // period should be filled when starting the Timer using osTimerStart
 380:Middlewares/Third_Party/FreeRTOS/Source/CMSIS_RTOS/cmsis_os.c ****                       (type == osTimerPeriodic) ? pdTRUE : pdFALSE,
 381:Middlewares/Third_Party/FreeRTOS/Source/CMSIS_RTOS/cmsis_os.c ****                       (void *) argument,
 382:Middlewares/Third_Party/FreeRTOS/Source/CMSIS_RTOS/cmsis_os.c ****                       (TimerCallbackFunction_t)timer_def->ptimer,
 383:Middlewares/Third_Party/FreeRTOS/Source/CMSIS_RTOS/cmsis_os.c ****                       (StaticTimer_t *)timer_def->controlblock);  
 384:Middlewares/Third_Party/FreeRTOS/Source/CMSIS_RTOS/cmsis_os.c **** #else
 385:Middlewares/Third_Party/FreeRTOS/Source/CMSIS_RTOS/cmsis_os.c ****   return xTimerCreate((const char *)"",
 386:Middlewares/Third_Party/FreeRTOS/Source/CMSIS_RTOS/cmsis_os.c ****                       1, // period should be filled when starting the Timer using osTimerStart
 387:Middlewares/Third_Party/FreeRTOS/Source/CMSIS_RTOS/cmsis_os.c ****                       (type == osTimerPeriodic) ? pdTRUE : pdFALSE,
 388:Middlewares/Third_Party/FreeRTOS/Source/CMSIS_RTOS/cmsis_os.c ****                       (void *) argument,
 389:Middlewares/Third_Party/FreeRTOS/Source/CMSIS_RTOS/cmsis_os.c ****                       (TimerCallbackFunction_t)timer_def->ptimer);
 390:Middlewares/Third_Party/FreeRTOS/Source/CMSIS_RTOS/cmsis_os.c **** #endif
 391:Middlewares/Third_Party/FreeRTOS/Source/CMSIS_RTOS/cmsis_os.c **** 
 392:Middlewares/Third_Party/FreeRTOS/Source/CMSIS_RTOS/cmsis_os.c **** #else 
 393:Middlewares/Third_Party/FreeRTOS/Source/CMSIS_RTOS/cmsis_os.c **** 	return NULL;
 768              		.loc 1 393 9
 769 000e 0023     		movs	r3, #0
 394:Middlewares/Third_Party/FreeRTOS/Source/CMSIS_RTOS/cmsis_os.c **** #endif
 395:Middlewares/Third_Party/FreeRTOS/Source/CMSIS_RTOS/cmsis_os.c **** }
 770              		.loc 1 395 1
 771 0010 1846     		mov	r0, r3
 772 0012 1437     		adds	r7, r7, #20
 773              	.LCFI58:
 774              		.cfi_def_cfa_offset 4
 775 0014 BD46     		mov	sp, r7
 776              	.LCFI59:
 777              		.cfi_def_cfa_register 13
 778              		@ sp needed
 779 0016 5DF8047B 		ldr	r7, [sp], #4
 780              	.LCFI60:
 781              		.cfi_restore 7
 782              		.cfi_def_cfa_offset 0
 783 001a 7047     		bx	lr
 784              		.cfi_endproc
 785              	.LFE120:
 787              		.section	.text.osTimerStart,"ax",%progbits
ARM GAS  /tmp/cc4ZeGpA.s 			page 25


 788              		.align	1
 789              		.global	osTimerStart
 790              		.syntax unified
 791              		.thumb
 792              		.thumb_func
 793              		.fpu fpv5-d16
 795              	osTimerStart:
 796              	.LFB121:
 396:Middlewares/Third_Party/FreeRTOS/Source/CMSIS_RTOS/cmsis_os.c **** 
 397:Middlewares/Third_Party/FreeRTOS/Source/CMSIS_RTOS/cmsis_os.c **** /**
 398:Middlewares/Third_Party/FreeRTOS/Source/CMSIS_RTOS/cmsis_os.c **** * @brief  Start or restart a timer.
 399:Middlewares/Third_Party/FreeRTOS/Source/CMSIS_RTOS/cmsis_os.c **** * @param  timer_id      timer ID obtained by \ref osTimerCreate.
 400:Middlewares/Third_Party/FreeRTOS/Source/CMSIS_RTOS/cmsis_os.c **** * @param  millisec      time delay value of the timer.
 401:Middlewares/Third_Party/FreeRTOS/Source/CMSIS_RTOS/cmsis_os.c **** * @retval  status code that indicates the execution status of the function
 402:Middlewares/Third_Party/FreeRTOS/Source/CMSIS_RTOS/cmsis_os.c **** * @note   MUST REMAIN UNCHANGED: \b osTimerStart shall be consistent in every CMSIS-RTOS.
 403:Middlewares/Third_Party/FreeRTOS/Source/CMSIS_RTOS/cmsis_os.c **** */
 404:Middlewares/Third_Party/FreeRTOS/Source/CMSIS_RTOS/cmsis_os.c **** osStatus osTimerStart (osTimerId timer_id, uint32_t millisec)
 405:Middlewares/Third_Party/FreeRTOS/Source/CMSIS_RTOS/cmsis_os.c **** {
 797              		.loc 1 405 1
 798              		.cfi_startproc
 799              		@ args = 0, pretend = 0, frame = 16
 800              		@ frame_needed = 1, uses_anonymous_args = 0
 801              		@ link register save eliminated.
 802 0000 80B4     		push	{r7}
 803              	.LCFI61:
 804              		.cfi_def_cfa_offset 4
 805              		.cfi_offset 7, -4
 806 0002 85B0     		sub	sp, sp, #20
 807              	.LCFI62:
 808              		.cfi_def_cfa_offset 24
 809 0004 00AF     		add	r7, sp, #0
 810              	.LCFI63:
 811              		.cfi_def_cfa_register 7
 812 0006 7860     		str	r0, [r7, #4]
 813 0008 3960     		str	r1, [r7]
 406:Middlewares/Third_Party/FreeRTOS/Source/CMSIS_RTOS/cmsis_os.c ****   osStatus result = osOK;
 814              		.loc 1 406 12
 815 000a 0023     		movs	r3, #0
 816 000c FB60     		str	r3, [r7, #12]
 407:Middlewares/Third_Party/FreeRTOS/Source/CMSIS_RTOS/cmsis_os.c **** #if (configUSE_TIMERS == 1)  
 408:Middlewares/Third_Party/FreeRTOS/Source/CMSIS_RTOS/cmsis_os.c ****   portBASE_TYPE taskWoken = pdFALSE;
 409:Middlewares/Third_Party/FreeRTOS/Source/CMSIS_RTOS/cmsis_os.c ****   TickType_t ticks = millisec / portTICK_PERIOD_MS;
 410:Middlewares/Third_Party/FreeRTOS/Source/CMSIS_RTOS/cmsis_os.c **** 
 411:Middlewares/Third_Party/FreeRTOS/Source/CMSIS_RTOS/cmsis_os.c ****   if (ticks == 0)
 412:Middlewares/Third_Party/FreeRTOS/Source/CMSIS_RTOS/cmsis_os.c ****     ticks = 1;
 413:Middlewares/Third_Party/FreeRTOS/Source/CMSIS_RTOS/cmsis_os.c ****     
 414:Middlewares/Third_Party/FreeRTOS/Source/CMSIS_RTOS/cmsis_os.c ****   if (inHandlerMode()) 
 415:Middlewares/Third_Party/FreeRTOS/Source/CMSIS_RTOS/cmsis_os.c ****   {
 416:Middlewares/Third_Party/FreeRTOS/Source/CMSIS_RTOS/cmsis_os.c ****     if (xTimerChangePeriodFromISR(timer_id, ticks, &taskWoken) != pdPASS)
 417:Middlewares/Third_Party/FreeRTOS/Source/CMSIS_RTOS/cmsis_os.c ****     {
 418:Middlewares/Third_Party/FreeRTOS/Source/CMSIS_RTOS/cmsis_os.c ****       result = osErrorOS;
 419:Middlewares/Third_Party/FreeRTOS/Source/CMSIS_RTOS/cmsis_os.c ****     }
 420:Middlewares/Third_Party/FreeRTOS/Source/CMSIS_RTOS/cmsis_os.c ****     else
 421:Middlewares/Third_Party/FreeRTOS/Source/CMSIS_RTOS/cmsis_os.c ****     {
 422:Middlewares/Third_Party/FreeRTOS/Source/CMSIS_RTOS/cmsis_os.c ****       portEND_SWITCHING_ISR(taskWoken);     
 423:Middlewares/Third_Party/FreeRTOS/Source/CMSIS_RTOS/cmsis_os.c ****     }
 424:Middlewares/Third_Party/FreeRTOS/Source/CMSIS_RTOS/cmsis_os.c ****   }
ARM GAS  /tmp/cc4ZeGpA.s 			page 26


 425:Middlewares/Third_Party/FreeRTOS/Source/CMSIS_RTOS/cmsis_os.c ****   else 
 426:Middlewares/Third_Party/FreeRTOS/Source/CMSIS_RTOS/cmsis_os.c ****   {
 427:Middlewares/Third_Party/FreeRTOS/Source/CMSIS_RTOS/cmsis_os.c ****     if (xTimerChangePeriod(timer_id, ticks, 0) != pdPASS)
 428:Middlewares/Third_Party/FreeRTOS/Source/CMSIS_RTOS/cmsis_os.c ****       result = osErrorOS;
 429:Middlewares/Third_Party/FreeRTOS/Source/CMSIS_RTOS/cmsis_os.c ****   }
 430:Middlewares/Third_Party/FreeRTOS/Source/CMSIS_RTOS/cmsis_os.c **** 
 431:Middlewares/Third_Party/FreeRTOS/Source/CMSIS_RTOS/cmsis_os.c **** #else 
 432:Middlewares/Third_Party/FreeRTOS/Source/CMSIS_RTOS/cmsis_os.c ****   result = osErrorOS;
 817              		.loc 1 432 10
 818 000e FF23     		movs	r3, #255
 819 0010 FB60     		str	r3, [r7, #12]
 433:Middlewares/Third_Party/FreeRTOS/Source/CMSIS_RTOS/cmsis_os.c **** #endif
 434:Middlewares/Third_Party/FreeRTOS/Source/CMSIS_RTOS/cmsis_os.c ****   return result;
 820              		.loc 1 434 10
 821 0012 FB68     		ldr	r3, [r7, #12]
 435:Middlewares/Third_Party/FreeRTOS/Source/CMSIS_RTOS/cmsis_os.c **** }
 822              		.loc 1 435 1
 823 0014 1846     		mov	r0, r3
 824 0016 1437     		adds	r7, r7, #20
 825              	.LCFI64:
 826              		.cfi_def_cfa_offset 4
 827 0018 BD46     		mov	sp, r7
 828              	.LCFI65:
 829              		.cfi_def_cfa_register 13
 830              		@ sp needed
 831 001a 5DF8047B 		ldr	r7, [sp], #4
 832              	.LCFI66:
 833              		.cfi_restore 7
 834              		.cfi_def_cfa_offset 0
 835 001e 7047     		bx	lr
 836              		.cfi_endproc
 837              	.LFE121:
 839              		.section	.text.osTimerStop,"ax",%progbits
 840              		.align	1
 841              		.global	osTimerStop
 842              		.syntax unified
 843              		.thumb
 844              		.thumb_func
 845              		.fpu fpv5-d16
 847              	osTimerStop:
 848              	.LFB122:
 436:Middlewares/Third_Party/FreeRTOS/Source/CMSIS_RTOS/cmsis_os.c **** 
 437:Middlewares/Third_Party/FreeRTOS/Source/CMSIS_RTOS/cmsis_os.c **** /**
 438:Middlewares/Third_Party/FreeRTOS/Source/CMSIS_RTOS/cmsis_os.c **** * @brief  Stop a timer.
 439:Middlewares/Third_Party/FreeRTOS/Source/CMSIS_RTOS/cmsis_os.c **** * @param  timer_id      timer ID obtained by \ref osTimerCreate
 440:Middlewares/Third_Party/FreeRTOS/Source/CMSIS_RTOS/cmsis_os.c **** * @retval  status code that indicates the execution status of the function.
 441:Middlewares/Third_Party/FreeRTOS/Source/CMSIS_RTOS/cmsis_os.c **** * @note   MUST REMAIN UNCHANGED: \b osTimerStop shall be consistent in every CMSIS-RTOS.
 442:Middlewares/Third_Party/FreeRTOS/Source/CMSIS_RTOS/cmsis_os.c **** */
 443:Middlewares/Third_Party/FreeRTOS/Source/CMSIS_RTOS/cmsis_os.c **** osStatus osTimerStop (osTimerId timer_id)
 444:Middlewares/Third_Party/FreeRTOS/Source/CMSIS_RTOS/cmsis_os.c **** {
 849              		.loc 1 444 1
 850              		.cfi_startproc
 851              		@ args = 0, pretend = 0, frame = 16
 852              		@ frame_needed = 1, uses_anonymous_args = 0
 853              		@ link register save eliminated.
 854 0000 80B4     		push	{r7}
 855              	.LCFI67:
ARM GAS  /tmp/cc4ZeGpA.s 			page 27


 856              		.cfi_def_cfa_offset 4
 857              		.cfi_offset 7, -4
 858 0002 85B0     		sub	sp, sp, #20
 859              	.LCFI68:
 860              		.cfi_def_cfa_offset 24
 861 0004 00AF     		add	r7, sp, #0
 862              	.LCFI69:
 863              		.cfi_def_cfa_register 7
 864 0006 7860     		str	r0, [r7, #4]
 445:Middlewares/Third_Party/FreeRTOS/Source/CMSIS_RTOS/cmsis_os.c ****   osStatus result = osOK;
 865              		.loc 1 445 12
 866 0008 0023     		movs	r3, #0
 867 000a FB60     		str	r3, [r7, #12]
 446:Middlewares/Third_Party/FreeRTOS/Source/CMSIS_RTOS/cmsis_os.c **** #if (configUSE_TIMERS == 1)  
 447:Middlewares/Third_Party/FreeRTOS/Source/CMSIS_RTOS/cmsis_os.c ****   portBASE_TYPE taskWoken = pdFALSE;
 448:Middlewares/Third_Party/FreeRTOS/Source/CMSIS_RTOS/cmsis_os.c **** 
 449:Middlewares/Third_Party/FreeRTOS/Source/CMSIS_RTOS/cmsis_os.c ****   if (inHandlerMode()) {
 450:Middlewares/Third_Party/FreeRTOS/Source/CMSIS_RTOS/cmsis_os.c ****     if (xTimerStopFromISR(timer_id, &taskWoken) != pdPASS) {
 451:Middlewares/Third_Party/FreeRTOS/Source/CMSIS_RTOS/cmsis_os.c ****       return osErrorOS;
 452:Middlewares/Third_Party/FreeRTOS/Source/CMSIS_RTOS/cmsis_os.c ****     }
 453:Middlewares/Third_Party/FreeRTOS/Source/CMSIS_RTOS/cmsis_os.c ****     portEND_SWITCHING_ISR(taskWoken);
 454:Middlewares/Third_Party/FreeRTOS/Source/CMSIS_RTOS/cmsis_os.c ****   }
 455:Middlewares/Third_Party/FreeRTOS/Source/CMSIS_RTOS/cmsis_os.c ****   else {
 456:Middlewares/Third_Party/FreeRTOS/Source/CMSIS_RTOS/cmsis_os.c ****     if (xTimerStop(timer_id, 0) != pdPASS) {
 457:Middlewares/Third_Party/FreeRTOS/Source/CMSIS_RTOS/cmsis_os.c ****       result = osErrorOS;
 458:Middlewares/Third_Party/FreeRTOS/Source/CMSIS_RTOS/cmsis_os.c ****     }
 459:Middlewares/Third_Party/FreeRTOS/Source/CMSIS_RTOS/cmsis_os.c ****   }
 460:Middlewares/Third_Party/FreeRTOS/Source/CMSIS_RTOS/cmsis_os.c **** #else 
 461:Middlewares/Third_Party/FreeRTOS/Source/CMSIS_RTOS/cmsis_os.c ****   result = osErrorOS;
 868              		.loc 1 461 10
 869 000c FF23     		movs	r3, #255
 870 000e FB60     		str	r3, [r7, #12]
 462:Middlewares/Third_Party/FreeRTOS/Source/CMSIS_RTOS/cmsis_os.c **** #endif 
 463:Middlewares/Third_Party/FreeRTOS/Source/CMSIS_RTOS/cmsis_os.c ****   return result;
 871              		.loc 1 463 10
 872 0010 FB68     		ldr	r3, [r7, #12]
 464:Middlewares/Third_Party/FreeRTOS/Source/CMSIS_RTOS/cmsis_os.c **** }
 873              		.loc 1 464 1
 874 0012 1846     		mov	r0, r3
 875 0014 1437     		adds	r7, r7, #20
 876              	.LCFI70:
 877              		.cfi_def_cfa_offset 4
 878 0016 BD46     		mov	sp, r7
 879              	.LCFI71:
 880              		.cfi_def_cfa_register 13
 881              		@ sp needed
 882 0018 5DF8047B 		ldr	r7, [sp], #4
 883              	.LCFI72:
 884              		.cfi_restore 7
 885              		.cfi_def_cfa_offset 0
 886 001c 7047     		bx	lr
 887              		.cfi_endproc
 888              	.LFE122:
 890              		.section	.text.osTimerDelete,"ax",%progbits
 891              		.align	1
 892              		.global	osTimerDelete
 893              		.syntax unified
ARM GAS  /tmp/cc4ZeGpA.s 			page 28


 894              		.thumb
 895              		.thumb_func
 896              		.fpu fpv5-d16
 898              	osTimerDelete:
 899              	.LFB123:
 465:Middlewares/Third_Party/FreeRTOS/Source/CMSIS_RTOS/cmsis_os.c **** 
 466:Middlewares/Third_Party/FreeRTOS/Source/CMSIS_RTOS/cmsis_os.c **** /**
 467:Middlewares/Third_Party/FreeRTOS/Source/CMSIS_RTOS/cmsis_os.c **** * @brief  Delete a timer.
 468:Middlewares/Third_Party/FreeRTOS/Source/CMSIS_RTOS/cmsis_os.c **** * @param  timer_id      timer ID obtained by \ref osTimerCreate
 469:Middlewares/Third_Party/FreeRTOS/Source/CMSIS_RTOS/cmsis_os.c **** * @retval  status code that indicates the execution status of the function.
 470:Middlewares/Third_Party/FreeRTOS/Source/CMSIS_RTOS/cmsis_os.c **** * @note   MUST REMAIN UNCHANGED: \b osTimerDelete shall be consistent in every CMSIS-RTOS.
 471:Middlewares/Third_Party/FreeRTOS/Source/CMSIS_RTOS/cmsis_os.c **** */
 472:Middlewares/Third_Party/FreeRTOS/Source/CMSIS_RTOS/cmsis_os.c **** osStatus osTimerDelete (osTimerId timer_id)
 473:Middlewares/Third_Party/FreeRTOS/Source/CMSIS_RTOS/cmsis_os.c **** {
 900              		.loc 1 473 1
 901              		.cfi_startproc
 902              		@ args = 0, pretend = 0, frame = 16
 903              		@ frame_needed = 1, uses_anonymous_args = 0
 904              		@ link register save eliminated.
 905 0000 80B4     		push	{r7}
 906              	.LCFI73:
 907              		.cfi_def_cfa_offset 4
 908              		.cfi_offset 7, -4
 909 0002 85B0     		sub	sp, sp, #20
 910              	.LCFI74:
 911              		.cfi_def_cfa_offset 24
 912 0004 00AF     		add	r7, sp, #0
 913              	.LCFI75:
 914              		.cfi_def_cfa_register 7
 915 0006 7860     		str	r0, [r7, #4]
 474:Middlewares/Third_Party/FreeRTOS/Source/CMSIS_RTOS/cmsis_os.c **** osStatus result = osOK;
 916              		.loc 1 474 10
 917 0008 0023     		movs	r3, #0
 918 000a FB60     		str	r3, [r7, #12]
 475:Middlewares/Third_Party/FreeRTOS/Source/CMSIS_RTOS/cmsis_os.c **** 
 476:Middlewares/Third_Party/FreeRTOS/Source/CMSIS_RTOS/cmsis_os.c **** #if (configUSE_TIMERS == 1)
 477:Middlewares/Third_Party/FreeRTOS/Source/CMSIS_RTOS/cmsis_os.c **** 
 478:Middlewares/Third_Party/FreeRTOS/Source/CMSIS_RTOS/cmsis_os.c ****    if (inHandlerMode()) {
 479:Middlewares/Third_Party/FreeRTOS/Source/CMSIS_RTOS/cmsis_os.c ****      return osErrorISR;
 480:Middlewares/Third_Party/FreeRTOS/Source/CMSIS_RTOS/cmsis_os.c ****   }
 481:Middlewares/Third_Party/FreeRTOS/Source/CMSIS_RTOS/cmsis_os.c ****   else { 
 482:Middlewares/Third_Party/FreeRTOS/Source/CMSIS_RTOS/cmsis_os.c ****     if ((xTimerDelete(timer_id, osWaitForever )) != pdPASS) {
 483:Middlewares/Third_Party/FreeRTOS/Source/CMSIS_RTOS/cmsis_os.c ****       result = osErrorOS;
 484:Middlewares/Third_Party/FreeRTOS/Source/CMSIS_RTOS/cmsis_os.c ****     }
 485:Middlewares/Third_Party/FreeRTOS/Source/CMSIS_RTOS/cmsis_os.c ****   } 
 486:Middlewares/Third_Party/FreeRTOS/Source/CMSIS_RTOS/cmsis_os.c ****     
 487:Middlewares/Third_Party/FreeRTOS/Source/CMSIS_RTOS/cmsis_os.c **** #else 
 488:Middlewares/Third_Party/FreeRTOS/Source/CMSIS_RTOS/cmsis_os.c ****   result = osErrorOS;
 919              		.loc 1 488 10
 920 000c FF23     		movs	r3, #255
 921 000e FB60     		str	r3, [r7, #12]
 489:Middlewares/Third_Party/FreeRTOS/Source/CMSIS_RTOS/cmsis_os.c **** #endif 
 490:Middlewares/Third_Party/FreeRTOS/Source/CMSIS_RTOS/cmsis_os.c ****  
 491:Middlewares/Third_Party/FreeRTOS/Source/CMSIS_RTOS/cmsis_os.c ****   return result;
 922              		.loc 1 491 10
 923 0010 FB68     		ldr	r3, [r7, #12]
 492:Middlewares/Third_Party/FreeRTOS/Source/CMSIS_RTOS/cmsis_os.c **** }
ARM GAS  /tmp/cc4ZeGpA.s 			page 29


 924              		.loc 1 492 1
 925 0012 1846     		mov	r0, r3
 926 0014 1437     		adds	r7, r7, #20
 927              	.LCFI76:
 928              		.cfi_def_cfa_offset 4
 929 0016 BD46     		mov	sp, r7
 930              	.LCFI77:
 931              		.cfi_def_cfa_register 13
 932              		@ sp needed
 933 0018 5DF8047B 		ldr	r7, [sp], #4
 934              	.LCFI78:
 935              		.cfi_restore 7
 936              		.cfi_def_cfa_offset 0
 937 001c 7047     		bx	lr
 938              		.cfi_endproc
 939              	.LFE123:
 941              		.section	.text.osSignalSet,"ax",%progbits
 942              		.align	1
 943              		.global	osSignalSet
 944              		.syntax unified
 945              		.thumb
 946              		.thumb_func
 947              		.fpu fpv5-d16
 949              	osSignalSet:
 950              	.LFB124:
 493:Middlewares/Third_Party/FreeRTOS/Source/CMSIS_RTOS/cmsis_os.c **** 
 494:Middlewares/Third_Party/FreeRTOS/Source/CMSIS_RTOS/cmsis_os.c **** /***************************  Signal Management ********************************/
 495:Middlewares/Third_Party/FreeRTOS/Source/CMSIS_RTOS/cmsis_os.c **** /**
 496:Middlewares/Third_Party/FreeRTOS/Source/CMSIS_RTOS/cmsis_os.c **** * @brief  Set the specified Signal Flags of an active thread.
 497:Middlewares/Third_Party/FreeRTOS/Source/CMSIS_RTOS/cmsis_os.c **** * @param  thread_id     thread ID obtained by \ref osThreadCreate or \ref osThreadGetId.
 498:Middlewares/Third_Party/FreeRTOS/Source/CMSIS_RTOS/cmsis_os.c **** * @param  signals       specifies the signal flags of the thread that should be set.
 499:Middlewares/Third_Party/FreeRTOS/Source/CMSIS_RTOS/cmsis_os.c **** * @retval previous signal flags of the specified thread or 0x80000000 in case of incorrect paramete
 500:Middlewares/Third_Party/FreeRTOS/Source/CMSIS_RTOS/cmsis_os.c **** * @note   MUST REMAIN UNCHANGED: \b osSignalSet shall be consistent in every CMSIS-RTOS.
 501:Middlewares/Third_Party/FreeRTOS/Source/CMSIS_RTOS/cmsis_os.c **** */
 502:Middlewares/Third_Party/FreeRTOS/Source/CMSIS_RTOS/cmsis_os.c **** int32_t osSignalSet (osThreadId thread_id, int32_t signal)
 503:Middlewares/Third_Party/FreeRTOS/Source/CMSIS_RTOS/cmsis_os.c **** {
 951              		.loc 1 503 1
 952              		.cfi_startproc
 953              		@ args = 0, pretend = 0, frame = 16
 954              		@ frame_needed = 1, uses_anonymous_args = 0
 955 0000 80B5     		push	{r7, lr}
 956              	.LCFI79:
 957              		.cfi_def_cfa_offset 8
 958              		.cfi_offset 7, -8
 959              		.cfi_offset 14, -4
 960 0002 86B0     		sub	sp, sp, #24
 961              	.LCFI80:
 962              		.cfi_def_cfa_offset 32
 963 0004 02AF     		add	r7, sp, #8
 964              	.LCFI81:
 965              		.cfi_def_cfa 7, 24
 966 0006 7860     		str	r0, [r7, #4]
 967 0008 3960     		str	r1, [r7]
 504:Middlewares/Third_Party/FreeRTOS/Source/CMSIS_RTOS/cmsis_os.c **** #if( configUSE_TASK_NOTIFICATIONS == 1 )	
 505:Middlewares/Third_Party/FreeRTOS/Source/CMSIS_RTOS/cmsis_os.c ****   BaseType_t xHigherPriorityTaskWoken = pdFALSE;
 968              		.loc 1 505 14
 969 000a 0023     		movs	r3, #0
ARM GAS  /tmp/cc4ZeGpA.s 			page 30


 970 000c FB60     		str	r3, [r7, #12]
 506:Middlewares/Third_Party/FreeRTOS/Source/CMSIS_RTOS/cmsis_os.c ****   uint32_t ulPreviousNotificationValue = 0;
 971              		.loc 1 506 12
 972 000e 0023     		movs	r3, #0
 973 0010 BB60     		str	r3, [r7, #8]
 507:Middlewares/Third_Party/FreeRTOS/Source/CMSIS_RTOS/cmsis_os.c ****   
 508:Middlewares/Third_Party/FreeRTOS/Source/CMSIS_RTOS/cmsis_os.c ****   if (inHandlerMode())
 974              		.loc 1 508 7
 975 0012 FFF7FEFF 		bl	inHandlerMode
 976 0016 0346     		mov	r3, r0
 977              		.loc 1 508 6
 978 0018 002B     		cmp	r3, #0
 979 001a 1CD0     		beq	.L49
 509:Middlewares/Third_Party/FreeRTOS/Source/CMSIS_RTOS/cmsis_os.c ****   {
 510:Middlewares/Third_Party/FreeRTOS/Source/CMSIS_RTOS/cmsis_os.c ****     if(xTaskGenericNotifyFromISR( thread_id , (uint32_t)signal, eSetBits, &ulPreviousNotificationVa
 980              		.loc 1 510 8
 981 001c 3968     		ldr	r1, [r7]
 982 001e 07F10802 		add	r2, r7, #8
 983 0022 07F10C03 		add	r3, r7, #12
 984 0026 0093     		str	r3, [sp]
 985 0028 1346     		mov	r3, r2
 986 002a 0122     		movs	r2, #1
 987 002c 7868     		ldr	r0, [r7, #4]
 988 002e FFF7FEFF 		bl	xTaskGenericNotifyFromISR
 989 0032 0346     		mov	r3, r0
 990              		.loc 1 510 7
 991 0034 012B     		cmp	r3, #1
 992 0036 02D0     		beq	.L50
 511:Middlewares/Third_Party/FreeRTOS/Source/CMSIS_RTOS/cmsis_os.c ****       return 0x80000000;
 993              		.loc 1 511 14
 994 0038 4FF00043 		mov	r3, #-2147483648
 995 003c 19E0     		b	.L53
 996              	.L50:
 512:Middlewares/Third_Party/FreeRTOS/Source/CMSIS_RTOS/cmsis_os.c ****     
 513:Middlewares/Third_Party/FreeRTOS/Source/CMSIS_RTOS/cmsis_os.c ****     portYIELD_FROM_ISR( xHigherPriorityTaskWoken );
 997              		.loc 1 513 5
 998 003e FB68     		ldr	r3, [r7, #12]
 999 0040 002B     		cmp	r3, #0
 1000 0042 15D0     		beq	.L52
 1001              		.loc 1 513 5 is_stmt 0 discriminator 1
 1002 0044 0D4B     		ldr	r3, .L54
 1003 0046 4FF08052 		mov	r2, #268435456
 1004 004a 1A60     		str	r2, [r3]
 1005              		.syntax unified
 1006              	@ 513 "Middlewares/Third_Party/FreeRTOS/Source/CMSIS_RTOS/cmsis_os.c" 1
 1007 004c BFF34F8F 		dsb
 1008              	@ 0 "" 2
 1009              	@ 513 "Middlewares/Third_Party/FreeRTOS/Source/CMSIS_RTOS/cmsis_os.c" 1
 1010 0050 BFF36F8F 		isb
 1011              	@ 0 "" 2
 1012              		.thumb
 1013              		.syntax unified
 1014 0054 0CE0     		b	.L52
 1015              	.L49:
 514:Middlewares/Third_Party/FreeRTOS/Source/CMSIS_RTOS/cmsis_os.c ****   }  
 515:Middlewares/Third_Party/FreeRTOS/Source/CMSIS_RTOS/cmsis_os.c ****   else if(xTaskGenericNotify( thread_id , (uint32_t)signal, eSetBits, &ulPreviousNotificationValue)
 1016              		.loc 1 515 11 is_stmt 1
ARM GAS  /tmp/cc4ZeGpA.s 			page 31


 1017 0056 3968     		ldr	r1, [r7]
 1018 0058 07F10803 		add	r3, r7, #8
 1019 005c 0122     		movs	r2, #1
 1020 005e 7868     		ldr	r0, [r7, #4]
 1021 0060 FFF7FEFF 		bl	xTaskGenericNotify
 1022 0064 0346     		mov	r3, r0
 1023              		.loc 1 515 10
 1024 0066 012B     		cmp	r3, #1
 1025 0068 02D0     		beq	.L52
 516:Middlewares/Third_Party/FreeRTOS/Source/CMSIS_RTOS/cmsis_os.c ****     return 0x80000000;
 1026              		.loc 1 516 12
 1027 006a 4FF00043 		mov	r3, #-2147483648
 1028 006e 00E0     		b	.L53
 1029              	.L52:
 517:Middlewares/Third_Party/FreeRTOS/Source/CMSIS_RTOS/cmsis_os.c ****   
 518:Middlewares/Third_Party/FreeRTOS/Source/CMSIS_RTOS/cmsis_os.c ****   return ulPreviousNotificationValue;
 1030              		.loc 1 518 10
 1031 0070 BB68     		ldr	r3, [r7, #8]
 1032              	.L53:
 519:Middlewares/Third_Party/FreeRTOS/Source/CMSIS_RTOS/cmsis_os.c **** #else
 520:Middlewares/Third_Party/FreeRTOS/Source/CMSIS_RTOS/cmsis_os.c ****   (void) thread_id;
 521:Middlewares/Third_Party/FreeRTOS/Source/CMSIS_RTOS/cmsis_os.c ****   (void) signal;
 522:Middlewares/Third_Party/FreeRTOS/Source/CMSIS_RTOS/cmsis_os.c **** 
 523:Middlewares/Third_Party/FreeRTOS/Source/CMSIS_RTOS/cmsis_os.c ****   return 0x80000000; /* Task Notification not supported */ 	
 524:Middlewares/Third_Party/FreeRTOS/Source/CMSIS_RTOS/cmsis_os.c **** #endif
 525:Middlewares/Third_Party/FreeRTOS/Source/CMSIS_RTOS/cmsis_os.c **** }
 1033              		.loc 1 525 1 discriminator 1
 1034 0072 1846     		mov	r0, r3
 1035 0074 1037     		adds	r7, r7, #16
 1036              	.LCFI82:
 1037              		.cfi_def_cfa_offset 8
 1038 0076 BD46     		mov	sp, r7
 1039              	.LCFI83:
 1040              		.cfi_def_cfa_register 13
 1041              		@ sp needed
 1042 0078 80BD     		pop	{r7, pc}
 1043              	.L55:
 1044 007a 00BF     		.align	2
 1045              	.L54:
 1046 007c 04ED00E0 		.word	-536810236
 1047              		.cfi_endproc
 1048              	.LFE124:
 1050              		.section	.text.osSignalWait,"ax",%progbits
 1051              		.align	1
 1052              		.global	osSignalWait
 1053              		.syntax unified
 1054              		.thumb
 1055              		.thumb_func
 1056              		.fpu fpv5-d16
 1058              	osSignalWait:
 1059              	.LFB125:
 526:Middlewares/Third_Party/FreeRTOS/Source/CMSIS_RTOS/cmsis_os.c **** 
 527:Middlewares/Third_Party/FreeRTOS/Source/CMSIS_RTOS/cmsis_os.c **** /**
 528:Middlewares/Third_Party/FreeRTOS/Source/CMSIS_RTOS/cmsis_os.c **** * @brief  Clear the specified Signal Flags of an active thread.
 529:Middlewares/Third_Party/FreeRTOS/Source/CMSIS_RTOS/cmsis_os.c **** * @param  thread_id  thread ID obtained by \ref osThreadCreate or \ref osThreadGetId.
 530:Middlewares/Third_Party/FreeRTOS/Source/CMSIS_RTOS/cmsis_os.c **** * @param  signals    specifies the signal flags of the thread that shall be cleared.
 531:Middlewares/Third_Party/FreeRTOS/Source/CMSIS_RTOS/cmsis_os.c **** * @retval  previous signal flags of the specified thread or 0x80000000 in case of incorrect paramet
ARM GAS  /tmp/cc4ZeGpA.s 			page 32


 532:Middlewares/Third_Party/FreeRTOS/Source/CMSIS_RTOS/cmsis_os.c **** * @note   MUST REMAIN UNCHANGED: \b osSignalClear shall be consistent in every CMSIS-RTOS.
 533:Middlewares/Third_Party/FreeRTOS/Source/CMSIS_RTOS/cmsis_os.c **** */
 534:Middlewares/Third_Party/FreeRTOS/Source/CMSIS_RTOS/cmsis_os.c **** int32_t osSignalClear (osThreadId thread_id, int32_t signal);
 535:Middlewares/Third_Party/FreeRTOS/Source/CMSIS_RTOS/cmsis_os.c **** 
 536:Middlewares/Third_Party/FreeRTOS/Source/CMSIS_RTOS/cmsis_os.c **** /**
 537:Middlewares/Third_Party/FreeRTOS/Source/CMSIS_RTOS/cmsis_os.c **** * @brief  Wait for one or more Signal Flags to become signaled for the current \b RUNNING thread.
 538:Middlewares/Third_Party/FreeRTOS/Source/CMSIS_RTOS/cmsis_os.c **** * @param  signals   wait until all specified signal flags set or 0 for any single signal flag.
 539:Middlewares/Third_Party/FreeRTOS/Source/CMSIS_RTOS/cmsis_os.c **** * @param  millisec  timeout value or 0 in case of no time-out.
 540:Middlewares/Third_Party/FreeRTOS/Source/CMSIS_RTOS/cmsis_os.c **** * @retval  event flag information or error code.
 541:Middlewares/Third_Party/FreeRTOS/Source/CMSIS_RTOS/cmsis_os.c **** * @note   MUST REMAIN UNCHANGED: \b osSignalWait shall be consistent in every CMSIS-RTOS.
 542:Middlewares/Third_Party/FreeRTOS/Source/CMSIS_RTOS/cmsis_os.c **** */
 543:Middlewares/Third_Party/FreeRTOS/Source/CMSIS_RTOS/cmsis_os.c **** osEvent osSignalWait (int32_t signals, uint32_t millisec)
 544:Middlewares/Third_Party/FreeRTOS/Source/CMSIS_RTOS/cmsis_os.c **** {
 1060              		.loc 1 544 1
 1061              		.cfi_startproc
 1062              		@ args = 0, pretend = 0, frame = 32
 1063              		@ frame_needed = 1, uses_anonymous_args = 0
 1064 0000 90B5     		push	{r4, r7, lr}
 1065              	.LCFI84:
 1066              		.cfi_def_cfa_offset 12
 1067              		.cfi_offset 4, -12
 1068              		.cfi_offset 7, -8
 1069              		.cfi_offset 14, -4
 1070 0002 89B0     		sub	sp, sp, #36
 1071              	.LCFI85:
 1072              		.cfi_def_cfa_offset 48
 1073 0004 00AF     		add	r7, sp, #0
 1074              	.LCFI86:
 1075              		.cfi_def_cfa_register 7
 1076 0006 F860     		str	r0, [r7, #12]
 1077 0008 B960     		str	r1, [r7, #8]
 1078 000a 7A60     		str	r2, [r7, #4]
 545:Middlewares/Third_Party/FreeRTOS/Source/CMSIS_RTOS/cmsis_os.c ****   osEvent ret;
 546:Middlewares/Third_Party/FreeRTOS/Source/CMSIS_RTOS/cmsis_os.c **** 
 547:Middlewares/Third_Party/FreeRTOS/Source/CMSIS_RTOS/cmsis_os.c **** #if( configUSE_TASK_NOTIFICATIONS == 1 )
 548:Middlewares/Third_Party/FreeRTOS/Source/CMSIS_RTOS/cmsis_os.c **** 	
 549:Middlewares/Third_Party/FreeRTOS/Source/CMSIS_RTOS/cmsis_os.c ****   TickType_t ticks;
 550:Middlewares/Third_Party/FreeRTOS/Source/CMSIS_RTOS/cmsis_os.c **** 
 551:Middlewares/Third_Party/FreeRTOS/Source/CMSIS_RTOS/cmsis_os.c ****   ret.value.signals = 0;  
 1079              		.loc 1 551 21
 1080 000c 0023     		movs	r3, #0
 1081 000e 7B61     		str	r3, [r7, #20]
 552:Middlewares/Third_Party/FreeRTOS/Source/CMSIS_RTOS/cmsis_os.c ****   ticks = 0;
 1082              		.loc 1 552 9
 1083 0010 0023     		movs	r3, #0
 1084 0012 FB61     		str	r3, [r7, #28]
 553:Middlewares/Third_Party/FreeRTOS/Source/CMSIS_RTOS/cmsis_os.c ****   if (millisec == osWaitForever) {
 1085              		.loc 1 553 6
 1086 0014 7B68     		ldr	r3, [r7, #4]
 1087 0016 B3F1FF3F 		cmp	r3, #-1
 1088 001a 03D1     		bne	.L57
 554:Middlewares/Third_Party/FreeRTOS/Source/CMSIS_RTOS/cmsis_os.c ****     ticks = portMAX_DELAY;
 1089              		.loc 1 554 11
 1090 001c 4FF0FF33 		mov	r3, #-1
 1091 0020 FB61     		str	r3, [r7, #28]
 1092 0022 09E0     		b	.L58
 1093              	.L57:
ARM GAS  /tmp/cc4ZeGpA.s 			page 33


 555:Middlewares/Third_Party/FreeRTOS/Source/CMSIS_RTOS/cmsis_os.c ****   }
 556:Middlewares/Third_Party/FreeRTOS/Source/CMSIS_RTOS/cmsis_os.c ****   else if (millisec != 0) {
 1094              		.loc 1 556 11
 1095 0024 7B68     		ldr	r3, [r7, #4]
 1096 0026 002B     		cmp	r3, #0
 1097 0028 06D0     		beq	.L58
 557:Middlewares/Third_Party/FreeRTOS/Source/CMSIS_RTOS/cmsis_os.c ****     ticks = millisec / portTICK_PERIOD_MS;
 1098              		.loc 1 557 11
 1099 002a 7B68     		ldr	r3, [r7, #4]
 1100 002c FB61     		str	r3, [r7, #28]
 558:Middlewares/Third_Party/FreeRTOS/Source/CMSIS_RTOS/cmsis_os.c ****     if (ticks == 0) {
 1101              		.loc 1 558 8
 1102 002e FB69     		ldr	r3, [r7, #28]
 1103 0030 002B     		cmp	r3, #0
 1104 0032 01D1     		bne	.L58
 559:Middlewares/Third_Party/FreeRTOS/Source/CMSIS_RTOS/cmsis_os.c ****       ticks = 1;
 1105              		.loc 1 559 13
 1106 0034 0123     		movs	r3, #1
 1107 0036 FB61     		str	r3, [r7, #28]
 1108              	.L58:
 560:Middlewares/Third_Party/FreeRTOS/Source/CMSIS_RTOS/cmsis_os.c ****     }
 561:Middlewares/Third_Party/FreeRTOS/Source/CMSIS_RTOS/cmsis_os.c ****   }  
 562:Middlewares/Third_Party/FreeRTOS/Source/CMSIS_RTOS/cmsis_os.c ****   
 563:Middlewares/Third_Party/FreeRTOS/Source/CMSIS_RTOS/cmsis_os.c ****   if (inHandlerMode())
 1109              		.loc 1 563 7
 1110 0038 FFF7FEFF 		bl	inHandlerMode
 1111 003c 0346     		mov	r3, r0
 1112              		.loc 1 563 6
 1113 003e 002B     		cmp	r3, #0
 1114 0040 02D0     		beq	.L59
 564:Middlewares/Third_Party/FreeRTOS/Source/CMSIS_RTOS/cmsis_os.c ****   {
 565:Middlewares/Third_Party/FreeRTOS/Source/CMSIS_RTOS/cmsis_os.c ****     ret.status = osErrorISR;  /*Not allowed in ISR*/
 1115              		.loc 1 565 16
 1116 0042 8223     		movs	r3, #130
 1117 0044 3B61     		str	r3, [r7, #16]
 1118 0046 1BE0     		b	.L60
 1119              	.L59:
 566:Middlewares/Third_Party/FreeRTOS/Source/CMSIS_RTOS/cmsis_os.c ****   }
 567:Middlewares/Third_Party/FreeRTOS/Source/CMSIS_RTOS/cmsis_os.c ****   else
 568:Middlewares/Third_Party/FreeRTOS/Source/CMSIS_RTOS/cmsis_os.c ****   {
 569:Middlewares/Third_Party/FreeRTOS/Source/CMSIS_RTOS/cmsis_os.c ****     if(xTaskNotifyWait( 0,(uint32_t) signals, (uint32_t *)&ret.value.signals, ticks) != pdTRUE)
 1120              		.loc 1 569 8
 1121 0048 B968     		ldr	r1, [r7, #8]
 1122 004a 07F11003 		add	r3, r7, #16
 1123 004e 1A1D     		adds	r2, r3, #4
 1124 0050 FB69     		ldr	r3, [r7, #28]
 1125 0052 0020     		movs	r0, #0
 1126 0054 FFF7FEFF 		bl	xTaskNotifyWait
 1127 0058 0346     		mov	r3, r0
 1128              		.loc 1 569 7
 1129 005a 012B     		cmp	r3, #1
 1130 005c 08D0     		beq	.L61
 570:Middlewares/Third_Party/FreeRTOS/Source/CMSIS_RTOS/cmsis_os.c ****     {
 571:Middlewares/Third_Party/FreeRTOS/Source/CMSIS_RTOS/cmsis_os.c ****       if(ticks == 0)  ret.status = osOK;
 1131              		.loc 1 571 9
 1132 005e FB69     		ldr	r3, [r7, #28]
 1133 0060 002B     		cmp	r3, #0
ARM GAS  /tmp/cc4ZeGpA.s 			page 34


 1134 0062 02D1     		bne	.L62
 1135              		.loc 1 571 34 discriminator 1
 1136 0064 0023     		movs	r3, #0
 1137 0066 3B61     		str	r3, [r7, #16]
 1138 0068 0AE0     		b	.L60
 1139              	.L62:
 572:Middlewares/Third_Party/FreeRTOS/Source/CMSIS_RTOS/cmsis_os.c ****       else  ret.status = osEventTimeout;
 1140              		.loc 1 572 24
 1141 006a 4023     		movs	r3, #64
 1142 006c 3B61     		str	r3, [r7, #16]
 1143 006e 07E0     		b	.L60
 1144              	.L61:
 573:Middlewares/Third_Party/FreeRTOS/Source/CMSIS_RTOS/cmsis_os.c ****     }
 574:Middlewares/Third_Party/FreeRTOS/Source/CMSIS_RTOS/cmsis_os.c ****     else if(ret.value.signals < 0)
 1145              		.loc 1 574 22
 1146 0070 7B69     		ldr	r3, [r7, #20]
 1147              		.loc 1 574 12
 1148 0072 002B     		cmp	r3, #0
 1149 0074 02DA     		bge	.L63
 575:Middlewares/Third_Party/FreeRTOS/Source/CMSIS_RTOS/cmsis_os.c ****     {
 576:Middlewares/Third_Party/FreeRTOS/Source/CMSIS_RTOS/cmsis_os.c ****       ret.status =  osErrorValue;     
 1150              		.loc 1 576 18
 1151 0076 8623     		movs	r3, #134
 1152 0078 3B61     		str	r3, [r7, #16]
 1153 007a 01E0     		b	.L60
 1154              	.L63:
 577:Middlewares/Third_Party/FreeRTOS/Source/CMSIS_RTOS/cmsis_os.c ****     }
 578:Middlewares/Third_Party/FreeRTOS/Source/CMSIS_RTOS/cmsis_os.c ****     else  ret.status =  osEventSignal;
 1155              		.loc 1 578 22
 1156 007c 0823     		movs	r3, #8
 1157 007e 3B61     		str	r3, [r7, #16]
 1158              	.L60:
 579:Middlewares/Third_Party/FreeRTOS/Source/CMSIS_RTOS/cmsis_os.c ****   }
 580:Middlewares/Third_Party/FreeRTOS/Source/CMSIS_RTOS/cmsis_os.c **** #else
 581:Middlewares/Third_Party/FreeRTOS/Source/CMSIS_RTOS/cmsis_os.c ****   (void) signals;
 582:Middlewares/Third_Party/FreeRTOS/Source/CMSIS_RTOS/cmsis_os.c ****   (void) millisec;
 583:Middlewares/Third_Party/FreeRTOS/Source/CMSIS_RTOS/cmsis_os.c **** 	
 584:Middlewares/Third_Party/FreeRTOS/Source/CMSIS_RTOS/cmsis_os.c ****   ret.status =  osErrorOS;	/* Task Notification not supported */
 585:Middlewares/Third_Party/FreeRTOS/Source/CMSIS_RTOS/cmsis_os.c **** #endif
 586:Middlewares/Third_Party/FreeRTOS/Source/CMSIS_RTOS/cmsis_os.c ****   
 587:Middlewares/Third_Party/FreeRTOS/Source/CMSIS_RTOS/cmsis_os.c ****   return ret;
 1159              		.loc 1 587 10
 1160 0080 FB68     		ldr	r3, [r7, #12]
 1161 0082 1C46     		mov	r4, r3
 1162 0084 07F11003 		add	r3, r7, #16
 1163 0088 93E80700 		ldm	r3, {r0, r1, r2}
 1164 008c 84E80700 		stm	r4, {r0, r1, r2}
 588:Middlewares/Third_Party/FreeRTOS/Source/CMSIS_RTOS/cmsis_os.c **** }
 1165              		.loc 1 588 1
 1166 0090 F868     		ldr	r0, [r7, #12]
 1167 0092 2437     		adds	r7, r7, #36
 1168              	.LCFI87:
 1169              		.cfi_def_cfa_offset 12
 1170 0094 BD46     		mov	sp, r7
 1171              	.LCFI88:
 1172              		.cfi_def_cfa_register 13
 1173              		@ sp needed
ARM GAS  /tmp/cc4ZeGpA.s 			page 35


 1174 0096 90BD     		pop	{r4, r7, pc}
 1175              		.cfi_endproc
 1176              	.LFE125:
 1178              		.section	.text.osMutexCreate,"ax",%progbits
 1179              		.align	1
 1180              		.global	osMutexCreate
 1181              		.syntax unified
 1182              		.thumb
 1183              		.thumb_func
 1184              		.fpu fpv5-d16
 1186              	osMutexCreate:
 1187              	.LFB126:
 589:Middlewares/Third_Party/FreeRTOS/Source/CMSIS_RTOS/cmsis_os.c **** 
 590:Middlewares/Third_Party/FreeRTOS/Source/CMSIS_RTOS/cmsis_os.c **** /****************************  Mutex Management ********************************/
 591:Middlewares/Third_Party/FreeRTOS/Source/CMSIS_RTOS/cmsis_os.c **** /**
 592:Middlewares/Third_Party/FreeRTOS/Source/CMSIS_RTOS/cmsis_os.c **** * @brief  Create and Initialize a Mutex object
 593:Middlewares/Third_Party/FreeRTOS/Source/CMSIS_RTOS/cmsis_os.c **** * @param  mutex_def     mutex definition referenced with \ref osMutex.
 594:Middlewares/Third_Party/FreeRTOS/Source/CMSIS_RTOS/cmsis_os.c **** * @retval  mutex ID for reference by other functions or NULL in case of error.
 595:Middlewares/Third_Party/FreeRTOS/Source/CMSIS_RTOS/cmsis_os.c **** * @note   MUST REMAIN UNCHANGED: \b osMutexCreate shall be consistent in every CMSIS-RTOS.
 596:Middlewares/Third_Party/FreeRTOS/Source/CMSIS_RTOS/cmsis_os.c **** */
 597:Middlewares/Third_Party/FreeRTOS/Source/CMSIS_RTOS/cmsis_os.c **** osMutexId osMutexCreate (const osMutexDef_t *mutex_def)
 598:Middlewares/Third_Party/FreeRTOS/Source/CMSIS_RTOS/cmsis_os.c **** {
 1188              		.loc 1 598 1
 1189              		.cfi_startproc
 1190              		@ args = 0, pretend = 0, frame = 8
 1191              		@ frame_needed = 1, uses_anonymous_args = 0
 1192 0000 80B5     		push	{r7, lr}
 1193              	.LCFI89:
 1194              		.cfi_def_cfa_offset 8
 1195              		.cfi_offset 7, -8
 1196              		.cfi_offset 14, -4
 1197 0002 82B0     		sub	sp, sp, #8
 1198              	.LCFI90:
 1199              		.cfi_def_cfa_offset 16
 1200 0004 00AF     		add	r7, sp, #0
 1201              	.LCFI91:
 1202              		.cfi_def_cfa_register 7
 1203 0006 7860     		str	r0, [r7, #4]
 599:Middlewares/Third_Party/FreeRTOS/Source/CMSIS_RTOS/cmsis_os.c **** #if ( configUSE_MUTEXES == 1)
 600:Middlewares/Third_Party/FreeRTOS/Source/CMSIS_RTOS/cmsis_os.c **** 
 601:Middlewares/Third_Party/FreeRTOS/Source/CMSIS_RTOS/cmsis_os.c **** #if( configSUPPORT_STATIC_ALLOCATION == 1 ) && ( configSUPPORT_DYNAMIC_ALLOCATION == 1 )
 602:Middlewares/Third_Party/FreeRTOS/Source/CMSIS_RTOS/cmsis_os.c **** 
 603:Middlewares/Third_Party/FreeRTOS/Source/CMSIS_RTOS/cmsis_os.c ****   if (mutex_def->controlblock != NULL) {
 1204              		.loc 1 603 16
 1205 0008 7B68     		ldr	r3, [r7, #4]
 1206 000a 5B68     		ldr	r3, [r3, #4]
 1207              		.loc 1 603 6
 1208 000c 002B     		cmp	r3, #0
 1209 000e 07D0     		beq	.L66
 604:Middlewares/Third_Party/FreeRTOS/Source/CMSIS_RTOS/cmsis_os.c ****     return xSemaphoreCreateMutexStatic( mutex_def->controlblock );
 1210              		.loc 1 604 12
 1211 0010 7B68     		ldr	r3, [r7, #4]
 1212 0012 5B68     		ldr	r3, [r3, #4]
 1213 0014 1946     		mov	r1, r3
 1214 0016 0120     		movs	r0, #1
 1215 0018 FFF7FEFF 		bl	xQueueCreateMutexStatic
 1216 001c 0346     		mov	r3, r0
ARM GAS  /tmp/cc4ZeGpA.s 			page 36


 1217 001e 03E0     		b	.L67
 1218              	.L66:
 605:Middlewares/Third_Party/FreeRTOS/Source/CMSIS_RTOS/cmsis_os.c ****      }
 606:Middlewares/Third_Party/FreeRTOS/Source/CMSIS_RTOS/cmsis_os.c ****   else {
 607:Middlewares/Third_Party/FreeRTOS/Source/CMSIS_RTOS/cmsis_os.c ****     return xSemaphoreCreateMutex(); 
 1219              		.loc 1 607 12
 1220 0020 0120     		movs	r0, #1
 1221 0022 FFF7FEFF 		bl	xQueueCreateMutex
 1222 0026 0346     		mov	r3, r0
 1223              	.L67:
 608:Middlewares/Third_Party/FreeRTOS/Source/CMSIS_RTOS/cmsis_os.c ****   }
 609:Middlewares/Third_Party/FreeRTOS/Source/CMSIS_RTOS/cmsis_os.c **** #elif ( configSUPPORT_STATIC_ALLOCATION == 1 )
 610:Middlewares/Third_Party/FreeRTOS/Source/CMSIS_RTOS/cmsis_os.c ****   return xSemaphoreCreateMutexStatic( mutex_def->controlblock );
 611:Middlewares/Third_Party/FreeRTOS/Source/CMSIS_RTOS/cmsis_os.c **** #else  
 612:Middlewares/Third_Party/FreeRTOS/Source/CMSIS_RTOS/cmsis_os.c ****     return xSemaphoreCreateMutex(); 
 613:Middlewares/Third_Party/FreeRTOS/Source/CMSIS_RTOS/cmsis_os.c **** #endif
 614:Middlewares/Third_Party/FreeRTOS/Source/CMSIS_RTOS/cmsis_os.c **** #else
 615:Middlewares/Third_Party/FreeRTOS/Source/CMSIS_RTOS/cmsis_os.c ****   return NULL;
 616:Middlewares/Third_Party/FreeRTOS/Source/CMSIS_RTOS/cmsis_os.c **** #endif
 617:Middlewares/Third_Party/FreeRTOS/Source/CMSIS_RTOS/cmsis_os.c **** }
 1224              		.loc 1 617 1
 1225 0028 1846     		mov	r0, r3
 1226 002a 0837     		adds	r7, r7, #8
 1227              	.LCFI92:
 1228              		.cfi_def_cfa_offset 8
 1229 002c BD46     		mov	sp, r7
 1230              	.LCFI93:
 1231              		.cfi_def_cfa_register 13
 1232              		@ sp needed
 1233 002e 80BD     		pop	{r7, pc}
 1234              		.cfi_endproc
 1235              	.LFE126:
 1237              		.section	.text.osMutexWait,"ax",%progbits
 1238              		.align	1
 1239              		.global	osMutexWait
 1240              		.syntax unified
 1241              		.thumb
 1242              		.thumb_func
 1243              		.fpu fpv5-d16
 1245              	osMutexWait:
 1246              	.LFB127:
 618:Middlewares/Third_Party/FreeRTOS/Source/CMSIS_RTOS/cmsis_os.c **** 
 619:Middlewares/Third_Party/FreeRTOS/Source/CMSIS_RTOS/cmsis_os.c **** /**
 620:Middlewares/Third_Party/FreeRTOS/Source/CMSIS_RTOS/cmsis_os.c **** * @brief Wait until a Mutex becomes available
 621:Middlewares/Third_Party/FreeRTOS/Source/CMSIS_RTOS/cmsis_os.c **** * @param mutex_id      mutex ID obtained by \ref osMutexCreate.
 622:Middlewares/Third_Party/FreeRTOS/Source/CMSIS_RTOS/cmsis_os.c **** * @param millisec      timeout value or 0 in case of no time-out.
 623:Middlewares/Third_Party/FreeRTOS/Source/CMSIS_RTOS/cmsis_os.c **** * @retval  status code that indicates the execution status of the function.
 624:Middlewares/Third_Party/FreeRTOS/Source/CMSIS_RTOS/cmsis_os.c **** * @note   MUST REMAIN UNCHANGED: \b osMutexWait shall be consistent in every CMSIS-RTOS.
 625:Middlewares/Third_Party/FreeRTOS/Source/CMSIS_RTOS/cmsis_os.c **** */
 626:Middlewares/Third_Party/FreeRTOS/Source/CMSIS_RTOS/cmsis_os.c **** osStatus osMutexWait (osMutexId mutex_id, uint32_t millisec)
 627:Middlewares/Third_Party/FreeRTOS/Source/CMSIS_RTOS/cmsis_os.c **** {
 1247              		.loc 1 627 1
 1248              		.cfi_startproc
 1249              		@ args = 0, pretend = 0, frame = 16
 1250              		@ frame_needed = 1, uses_anonymous_args = 0
 1251 0000 80B5     		push	{r7, lr}
 1252              	.LCFI94:
ARM GAS  /tmp/cc4ZeGpA.s 			page 37


 1253              		.cfi_def_cfa_offset 8
 1254              		.cfi_offset 7, -8
 1255              		.cfi_offset 14, -4
 1256 0002 84B0     		sub	sp, sp, #16
 1257              	.LCFI95:
 1258              		.cfi_def_cfa_offset 24
 1259 0004 00AF     		add	r7, sp, #0
 1260              	.LCFI96:
 1261              		.cfi_def_cfa_register 7
 1262 0006 7860     		str	r0, [r7, #4]
 1263 0008 3960     		str	r1, [r7]
 628:Middlewares/Third_Party/FreeRTOS/Source/CMSIS_RTOS/cmsis_os.c ****   TickType_t ticks;
 629:Middlewares/Third_Party/FreeRTOS/Source/CMSIS_RTOS/cmsis_os.c ****   portBASE_TYPE taskWoken = pdFALSE;  
 1264              		.loc 1 629 17
 1265 000a 0023     		movs	r3, #0
 1266 000c BB60     		str	r3, [r7, #8]
 630:Middlewares/Third_Party/FreeRTOS/Source/CMSIS_RTOS/cmsis_os.c ****   
 631:Middlewares/Third_Party/FreeRTOS/Source/CMSIS_RTOS/cmsis_os.c ****   
 632:Middlewares/Third_Party/FreeRTOS/Source/CMSIS_RTOS/cmsis_os.c ****   if (mutex_id == NULL) {
 1267              		.loc 1 632 6
 1268 000e 7B68     		ldr	r3, [r7, #4]
 1269 0010 002B     		cmp	r3, #0
 1270 0012 01D1     		bne	.L69
 633:Middlewares/Third_Party/FreeRTOS/Source/CMSIS_RTOS/cmsis_os.c ****     return osErrorParameter;
 1271              		.loc 1 633 12
 1272 0014 8023     		movs	r3, #128
 1273 0016 3AE0     		b	.L76
 1274              	.L69:
 634:Middlewares/Third_Party/FreeRTOS/Source/CMSIS_RTOS/cmsis_os.c ****   }
 635:Middlewares/Third_Party/FreeRTOS/Source/CMSIS_RTOS/cmsis_os.c ****   
 636:Middlewares/Third_Party/FreeRTOS/Source/CMSIS_RTOS/cmsis_os.c ****   ticks = 0;
 1275              		.loc 1 636 9
 1276 0018 0023     		movs	r3, #0
 1277 001a FB60     		str	r3, [r7, #12]
 637:Middlewares/Third_Party/FreeRTOS/Source/CMSIS_RTOS/cmsis_os.c ****   if (millisec == osWaitForever) {
 1278              		.loc 1 637 6
 1279 001c 3B68     		ldr	r3, [r7]
 1280 001e B3F1FF3F 		cmp	r3, #-1
 1281 0022 03D1     		bne	.L71
 638:Middlewares/Third_Party/FreeRTOS/Source/CMSIS_RTOS/cmsis_os.c ****     ticks = portMAX_DELAY;
 1282              		.loc 1 638 11
 1283 0024 4FF0FF33 		mov	r3, #-1
 1284 0028 FB60     		str	r3, [r7, #12]
 1285 002a 09E0     		b	.L72
 1286              	.L71:
 639:Middlewares/Third_Party/FreeRTOS/Source/CMSIS_RTOS/cmsis_os.c ****   }
 640:Middlewares/Third_Party/FreeRTOS/Source/CMSIS_RTOS/cmsis_os.c ****   else if (millisec != 0) {
 1287              		.loc 1 640 11
 1288 002c 3B68     		ldr	r3, [r7]
 1289 002e 002B     		cmp	r3, #0
 1290 0030 06D0     		beq	.L72
 641:Middlewares/Third_Party/FreeRTOS/Source/CMSIS_RTOS/cmsis_os.c ****     ticks = millisec / portTICK_PERIOD_MS;
 1291              		.loc 1 641 11
 1292 0032 3B68     		ldr	r3, [r7]
 1293 0034 FB60     		str	r3, [r7, #12]
 642:Middlewares/Third_Party/FreeRTOS/Source/CMSIS_RTOS/cmsis_os.c ****     if (ticks == 0) {
 1294              		.loc 1 642 8
ARM GAS  /tmp/cc4ZeGpA.s 			page 38


 1295 0036 FB68     		ldr	r3, [r7, #12]
 1296 0038 002B     		cmp	r3, #0
 1297 003a 01D1     		bne	.L72
 643:Middlewares/Third_Party/FreeRTOS/Source/CMSIS_RTOS/cmsis_os.c ****       ticks = 1;
 1298              		.loc 1 643 13
 1299 003c 0123     		movs	r3, #1
 1300 003e FB60     		str	r3, [r7, #12]
 1301              	.L72:
 644:Middlewares/Third_Party/FreeRTOS/Source/CMSIS_RTOS/cmsis_os.c ****     }
 645:Middlewares/Third_Party/FreeRTOS/Source/CMSIS_RTOS/cmsis_os.c ****   }
 646:Middlewares/Third_Party/FreeRTOS/Source/CMSIS_RTOS/cmsis_os.c ****   
 647:Middlewares/Third_Party/FreeRTOS/Source/CMSIS_RTOS/cmsis_os.c ****   if (inHandlerMode()) {
 1302              		.loc 1 647 7
 1303 0040 FFF7FEFF 		bl	inHandlerMode
 1304 0044 0346     		mov	r3, r0
 1305              		.loc 1 647 6
 1306 0046 002B     		cmp	r3, #0
 1307 0048 17D0     		beq	.L73
 648:Middlewares/Third_Party/FreeRTOS/Source/CMSIS_RTOS/cmsis_os.c ****     if (xSemaphoreTakeFromISR(mutex_id, &taskWoken) != pdTRUE) {
 1308              		.loc 1 648 9
 1309 004a 07F10803 		add	r3, r7, #8
 1310 004e 1A46     		mov	r2, r3
 1311 0050 0021     		movs	r1, #0
 1312 0052 7868     		ldr	r0, [r7, #4]
 1313 0054 FFF7FEFF 		bl	xQueueReceiveFromISR
 1314 0058 0346     		mov	r3, r0
 1315              		.loc 1 648 8
 1316 005a 012B     		cmp	r3, #1
 1317 005c 01D0     		beq	.L74
 649:Middlewares/Third_Party/FreeRTOS/Source/CMSIS_RTOS/cmsis_os.c ****       return osErrorOS;
 1318              		.loc 1 649 14
 1319 005e FF23     		movs	r3, #255
 1320 0060 15E0     		b	.L76
 1321              	.L74:
 650:Middlewares/Third_Party/FreeRTOS/Source/CMSIS_RTOS/cmsis_os.c ****     }
 651:Middlewares/Third_Party/FreeRTOS/Source/CMSIS_RTOS/cmsis_os.c **** 	portEND_SWITCHING_ISR(taskWoken);
 1322              		.loc 1 651 2
 1323 0062 BB68     		ldr	r3, [r7, #8]
 1324 0064 002B     		cmp	r3, #0
 1325 0066 11D0     		beq	.L75
 1326              		.loc 1 651 2 is_stmt 0 discriminator 1
 1327 0068 0B4B     		ldr	r3, .L77
 1328 006a 4FF08052 		mov	r2, #268435456
 1329 006e 1A60     		str	r2, [r3]
 1330              		.syntax unified
 1331              	@ 651 "Middlewares/Third_Party/FreeRTOS/Source/CMSIS_RTOS/cmsis_os.c" 1
 1332 0070 BFF34F8F 		dsb
 1333              	@ 0 "" 2
 1334              	@ 651 "Middlewares/Third_Party/FreeRTOS/Source/CMSIS_RTOS/cmsis_os.c" 1
 1335 0074 BFF36F8F 		isb
 1336              	@ 0 "" 2
 1337              		.thumb
 1338              		.syntax unified
 1339 0078 08E0     		b	.L75
 1340              	.L73:
 652:Middlewares/Third_Party/FreeRTOS/Source/CMSIS_RTOS/cmsis_os.c ****   } 
 653:Middlewares/Third_Party/FreeRTOS/Source/CMSIS_RTOS/cmsis_os.c ****   else if (xSemaphoreTake(mutex_id, ticks) != pdTRUE) {
ARM GAS  /tmp/cc4ZeGpA.s 			page 39


 1341              		.loc 1 653 12 is_stmt 1
 1342 007a F968     		ldr	r1, [r7, #12]
 1343 007c 7868     		ldr	r0, [r7, #4]
 1344 007e FFF7FEFF 		bl	xQueueSemaphoreTake
 1345 0082 0346     		mov	r3, r0
 1346              		.loc 1 653 11
 1347 0084 012B     		cmp	r3, #1
 1348 0086 01D0     		beq	.L75
 654:Middlewares/Third_Party/FreeRTOS/Source/CMSIS_RTOS/cmsis_os.c ****     return osErrorOS;
 1349              		.loc 1 654 12
 1350 0088 FF23     		movs	r3, #255
 1351 008a 00E0     		b	.L76
 1352              	.L75:
 655:Middlewares/Third_Party/FreeRTOS/Source/CMSIS_RTOS/cmsis_os.c ****   }
 656:Middlewares/Third_Party/FreeRTOS/Source/CMSIS_RTOS/cmsis_os.c ****   
 657:Middlewares/Third_Party/FreeRTOS/Source/CMSIS_RTOS/cmsis_os.c ****   return osOK;
 1353              		.loc 1 657 10
 1354 008c 0023     		movs	r3, #0
 1355              	.L76:
 658:Middlewares/Third_Party/FreeRTOS/Source/CMSIS_RTOS/cmsis_os.c **** }
 1356              		.loc 1 658 1 discriminator 1
 1357 008e 1846     		mov	r0, r3
 1358 0090 1037     		adds	r7, r7, #16
 1359              	.LCFI97:
 1360              		.cfi_def_cfa_offset 8
 1361 0092 BD46     		mov	sp, r7
 1362              	.LCFI98:
 1363              		.cfi_def_cfa_register 13
 1364              		@ sp needed
 1365 0094 80BD     		pop	{r7, pc}
 1366              	.L78:
 1367 0096 00BF     		.align	2
 1368              	.L77:
 1369 0098 04ED00E0 		.word	-536810236
 1370              		.cfi_endproc
 1371              	.LFE127:
 1373              		.section	.text.osMutexRelease,"ax",%progbits
 1374              		.align	1
 1375              		.global	osMutexRelease
 1376              		.syntax unified
 1377              		.thumb
 1378              		.thumb_func
 1379              		.fpu fpv5-d16
 1381              	osMutexRelease:
 1382              	.LFB128:
 659:Middlewares/Third_Party/FreeRTOS/Source/CMSIS_RTOS/cmsis_os.c **** 
 660:Middlewares/Third_Party/FreeRTOS/Source/CMSIS_RTOS/cmsis_os.c **** /**
 661:Middlewares/Third_Party/FreeRTOS/Source/CMSIS_RTOS/cmsis_os.c **** * @brief Release a Mutex that was obtained by \ref osMutexWait
 662:Middlewares/Third_Party/FreeRTOS/Source/CMSIS_RTOS/cmsis_os.c **** * @param mutex_id      mutex ID obtained by \ref osMutexCreate.
 663:Middlewares/Third_Party/FreeRTOS/Source/CMSIS_RTOS/cmsis_os.c **** * @retval  status code that indicates the execution status of the function.
 664:Middlewares/Third_Party/FreeRTOS/Source/CMSIS_RTOS/cmsis_os.c **** * @note   MUST REMAIN UNCHANGED: \b osMutexRelease shall be consistent in every CMSIS-RTOS.
 665:Middlewares/Third_Party/FreeRTOS/Source/CMSIS_RTOS/cmsis_os.c **** */
 666:Middlewares/Third_Party/FreeRTOS/Source/CMSIS_RTOS/cmsis_os.c **** osStatus osMutexRelease (osMutexId mutex_id)
 667:Middlewares/Third_Party/FreeRTOS/Source/CMSIS_RTOS/cmsis_os.c **** {
 1383              		.loc 1 667 1
 1384              		.cfi_startproc
 1385              		@ args = 0, pretend = 0, frame = 16
ARM GAS  /tmp/cc4ZeGpA.s 			page 40


 1386              		@ frame_needed = 1, uses_anonymous_args = 0
 1387 0000 80B5     		push	{r7, lr}
 1388              	.LCFI99:
 1389              		.cfi_def_cfa_offset 8
 1390              		.cfi_offset 7, -8
 1391              		.cfi_offset 14, -4
 1392 0002 84B0     		sub	sp, sp, #16
 1393              	.LCFI100:
 1394              		.cfi_def_cfa_offset 24
 1395 0004 00AF     		add	r7, sp, #0
 1396              	.LCFI101:
 1397              		.cfi_def_cfa_register 7
 1398 0006 7860     		str	r0, [r7, #4]
 668:Middlewares/Third_Party/FreeRTOS/Source/CMSIS_RTOS/cmsis_os.c ****   osStatus result = osOK;
 1399              		.loc 1 668 12
 1400 0008 0023     		movs	r3, #0
 1401 000a FB60     		str	r3, [r7, #12]
 669:Middlewares/Third_Party/FreeRTOS/Source/CMSIS_RTOS/cmsis_os.c ****   portBASE_TYPE taskWoken = pdFALSE;
 1402              		.loc 1 669 17
 1403 000c 0023     		movs	r3, #0
 1404 000e BB60     		str	r3, [r7, #8]
 670:Middlewares/Third_Party/FreeRTOS/Source/CMSIS_RTOS/cmsis_os.c ****   
 671:Middlewares/Third_Party/FreeRTOS/Source/CMSIS_RTOS/cmsis_os.c ****   if (inHandlerMode()) {
 1405              		.loc 1 671 7
 1406 0010 FFF7FEFF 		bl	inHandlerMode
 1407 0014 0346     		mov	r3, r0
 1408              		.loc 1 671 6
 1409 0016 002B     		cmp	r3, #0
 1410 0018 16D0     		beq	.L80
 672:Middlewares/Third_Party/FreeRTOS/Source/CMSIS_RTOS/cmsis_os.c ****     if (xSemaphoreGiveFromISR(mutex_id, &taskWoken) != pdTRUE) {
 1411              		.loc 1 672 9
 1412 001a 07F10803 		add	r3, r7, #8
 1413 001e 1946     		mov	r1, r3
 1414 0020 7868     		ldr	r0, [r7, #4]
 1415 0022 FFF7FEFF 		bl	xQueueGiveFromISR
 1416 0026 0346     		mov	r3, r0
 1417              		.loc 1 672 8
 1418 0028 012B     		cmp	r3, #1
 1419 002a 01D0     		beq	.L81
 673:Middlewares/Third_Party/FreeRTOS/Source/CMSIS_RTOS/cmsis_os.c ****       return osErrorOS;
 1420              		.loc 1 673 14
 1421 002c FF23     		movs	r3, #255
 1422 002e 17E0     		b	.L84
 1423              	.L81:
 674:Middlewares/Third_Party/FreeRTOS/Source/CMSIS_RTOS/cmsis_os.c ****     }
 675:Middlewares/Third_Party/FreeRTOS/Source/CMSIS_RTOS/cmsis_os.c ****     portEND_SWITCHING_ISR(taskWoken);
 1424              		.loc 1 675 5
 1425 0030 BB68     		ldr	r3, [r7, #8]
 1426 0032 002B     		cmp	r3, #0
 1427 0034 13D0     		beq	.L83
 1428              		.loc 1 675 5 is_stmt 0 discriminator 1
 1429 0036 0C4B     		ldr	r3, .L85
 1430 0038 4FF08052 		mov	r2, #268435456
 1431 003c 1A60     		str	r2, [r3]
 1432              		.syntax unified
 1433              	@ 675 "Middlewares/Third_Party/FreeRTOS/Source/CMSIS_RTOS/cmsis_os.c" 1
 1434 003e BFF34F8F 		dsb
ARM GAS  /tmp/cc4ZeGpA.s 			page 41


 1435              	@ 0 "" 2
 1436              	@ 675 "Middlewares/Third_Party/FreeRTOS/Source/CMSIS_RTOS/cmsis_os.c" 1
 1437 0042 BFF36F8F 		isb
 1438              	@ 0 "" 2
 1439              		.thumb
 1440              		.syntax unified
 1441 0046 0AE0     		b	.L83
 1442              	.L80:
 676:Middlewares/Third_Party/FreeRTOS/Source/CMSIS_RTOS/cmsis_os.c ****   }
 677:Middlewares/Third_Party/FreeRTOS/Source/CMSIS_RTOS/cmsis_os.c ****   else if (xSemaphoreGive(mutex_id) != pdTRUE) 
 1443              		.loc 1 677 12 is_stmt 1
 1444 0048 0023     		movs	r3, #0
 1445 004a 0022     		movs	r2, #0
 1446 004c 0021     		movs	r1, #0
 1447 004e 7868     		ldr	r0, [r7, #4]
 1448 0050 FFF7FEFF 		bl	xQueueGenericSend
 1449 0054 0346     		mov	r3, r0
 1450              		.loc 1 677 11
 1451 0056 012B     		cmp	r3, #1
 1452 0058 01D0     		beq	.L83
 678:Middlewares/Third_Party/FreeRTOS/Source/CMSIS_RTOS/cmsis_os.c ****   {
 679:Middlewares/Third_Party/FreeRTOS/Source/CMSIS_RTOS/cmsis_os.c ****     result = osErrorOS;
 1453              		.loc 1 679 12
 1454 005a FF23     		movs	r3, #255
 1455 005c FB60     		str	r3, [r7, #12]
 1456              	.L83:
 680:Middlewares/Third_Party/FreeRTOS/Source/CMSIS_RTOS/cmsis_os.c ****   }
 681:Middlewares/Third_Party/FreeRTOS/Source/CMSIS_RTOS/cmsis_os.c ****   return result;
 1457              		.loc 1 681 10
 1458 005e FB68     		ldr	r3, [r7, #12]
 1459              	.L84:
 682:Middlewares/Third_Party/FreeRTOS/Source/CMSIS_RTOS/cmsis_os.c **** }
 1460              		.loc 1 682 1 discriminator 1
 1461 0060 1846     		mov	r0, r3
 1462 0062 1037     		adds	r7, r7, #16
 1463              	.LCFI102:
 1464              		.cfi_def_cfa_offset 8
 1465 0064 BD46     		mov	sp, r7
 1466              	.LCFI103:
 1467              		.cfi_def_cfa_register 13
 1468              		@ sp needed
 1469 0066 80BD     		pop	{r7, pc}
 1470              	.L86:
 1471              		.align	2
 1472              	.L85:
 1473 0068 04ED00E0 		.word	-536810236
 1474              		.cfi_endproc
 1475              	.LFE128:
 1477              		.section	.text.osMutexDelete,"ax",%progbits
 1478              		.align	1
 1479              		.global	osMutexDelete
 1480              		.syntax unified
 1481              		.thumb
 1482              		.thumb_func
 1483              		.fpu fpv5-d16
 1485              	osMutexDelete:
 1486              	.LFB129:
ARM GAS  /tmp/cc4ZeGpA.s 			page 42


 683:Middlewares/Third_Party/FreeRTOS/Source/CMSIS_RTOS/cmsis_os.c **** 
 684:Middlewares/Third_Party/FreeRTOS/Source/CMSIS_RTOS/cmsis_os.c **** /**
 685:Middlewares/Third_Party/FreeRTOS/Source/CMSIS_RTOS/cmsis_os.c **** * @brief Delete a Mutex
 686:Middlewares/Third_Party/FreeRTOS/Source/CMSIS_RTOS/cmsis_os.c **** * @param mutex_id  mutex ID obtained by \ref osMutexCreate.
 687:Middlewares/Third_Party/FreeRTOS/Source/CMSIS_RTOS/cmsis_os.c **** * @retval  status code that indicates the execution status of the function.
 688:Middlewares/Third_Party/FreeRTOS/Source/CMSIS_RTOS/cmsis_os.c **** * @note   MUST REMAIN UNCHANGED: \b osMutexDelete shall be consistent in every CMSIS-RTOS.
 689:Middlewares/Third_Party/FreeRTOS/Source/CMSIS_RTOS/cmsis_os.c **** */
 690:Middlewares/Third_Party/FreeRTOS/Source/CMSIS_RTOS/cmsis_os.c **** osStatus osMutexDelete (osMutexId mutex_id)
 691:Middlewares/Third_Party/FreeRTOS/Source/CMSIS_RTOS/cmsis_os.c **** {
 1487              		.loc 1 691 1
 1488              		.cfi_startproc
 1489              		@ args = 0, pretend = 0, frame = 8
 1490              		@ frame_needed = 1, uses_anonymous_args = 0
 1491 0000 80B5     		push	{r7, lr}
 1492              	.LCFI104:
 1493              		.cfi_def_cfa_offset 8
 1494              		.cfi_offset 7, -8
 1495              		.cfi_offset 14, -4
 1496 0002 82B0     		sub	sp, sp, #8
 1497              	.LCFI105:
 1498              		.cfi_def_cfa_offset 16
 1499 0004 00AF     		add	r7, sp, #0
 1500              	.LCFI106:
 1501              		.cfi_def_cfa_register 7
 1502 0006 7860     		str	r0, [r7, #4]
 692:Middlewares/Third_Party/FreeRTOS/Source/CMSIS_RTOS/cmsis_os.c ****   if (inHandlerMode()) {
 1503              		.loc 1 692 7
 1504 0008 FFF7FEFF 		bl	inHandlerMode
 1505 000c 0346     		mov	r3, r0
 1506              		.loc 1 692 6
 1507 000e 002B     		cmp	r3, #0
 1508 0010 01D0     		beq	.L88
 693:Middlewares/Third_Party/FreeRTOS/Source/CMSIS_RTOS/cmsis_os.c ****     return osErrorISR;
 1509              		.loc 1 693 12
 1510 0012 8223     		movs	r3, #130
 1511 0014 03E0     		b	.L89
 1512              	.L88:
 694:Middlewares/Third_Party/FreeRTOS/Source/CMSIS_RTOS/cmsis_os.c ****   }
 695:Middlewares/Third_Party/FreeRTOS/Source/CMSIS_RTOS/cmsis_os.c **** 
 696:Middlewares/Third_Party/FreeRTOS/Source/CMSIS_RTOS/cmsis_os.c ****   vQueueDelete(mutex_id);
 1513              		.loc 1 696 3
 1514 0016 7868     		ldr	r0, [r7, #4]
 1515 0018 FFF7FEFF 		bl	vQueueDelete
 697:Middlewares/Third_Party/FreeRTOS/Source/CMSIS_RTOS/cmsis_os.c **** 
 698:Middlewares/Third_Party/FreeRTOS/Source/CMSIS_RTOS/cmsis_os.c ****   return osOK;
 1516              		.loc 1 698 10
 1517 001c 0023     		movs	r3, #0
 1518              	.L89:
 699:Middlewares/Third_Party/FreeRTOS/Source/CMSIS_RTOS/cmsis_os.c **** }
 1519              		.loc 1 699 1
 1520 001e 1846     		mov	r0, r3
 1521 0020 0837     		adds	r7, r7, #8
 1522              	.LCFI107:
 1523              		.cfi_def_cfa_offset 8
 1524 0022 BD46     		mov	sp, r7
 1525              	.LCFI108:
 1526              		.cfi_def_cfa_register 13
ARM GAS  /tmp/cc4ZeGpA.s 			page 43


 1527              		@ sp needed
 1528 0024 80BD     		pop	{r7, pc}
 1529              		.cfi_endproc
 1530              	.LFE129:
 1532              		.section	.text.osSemaphoreCreate,"ax",%progbits
 1533              		.align	1
 1534              		.global	osSemaphoreCreate
 1535              		.syntax unified
 1536              		.thumb
 1537              		.thumb_func
 1538              		.fpu fpv5-d16
 1540              	osSemaphoreCreate:
 1541              	.LFB130:
 700:Middlewares/Third_Party/FreeRTOS/Source/CMSIS_RTOS/cmsis_os.c **** 
 701:Middlewares/Third_Party/FreeRTOS/Source/CMSIS_RTOS/cmsis_os.c **** /********************  Semaphore Management Functions **************************/
 702:Middlewares/Third_Party/FreeRTOS/Source/CMSIS_RTOS/cmsis_os.c **** 
 703:Middlewares/Third_Party/FreeRTOS/Source/CMSIS_RTOS/cmsis_os.c **** #if (defined (osFeature_Semaphore)  &&  (osFeature_Semaphore != 0))
 704:Middlewares/Third_Party/FreeRTOS/Source/CMSIS_RTOS/cmsis_os.c **** 
 705:Middlewares/Third_Party/FreeRTOS/Source/CMSIS_RTOS/cmsis_os.c **** /**
 706:Middlewares/Third_Party/FreeRTOS/Source/CMSIS_RTOS/cmsis_os.c **** * @brief Create and Initialize a Semaphore object used for managing resources
 707:Middlewares/Third_Party/FreeRTOS/Source/CMSIS_RTOS/cmsis_os.c **** * @param semaphore_def semaphore definition referenced with \ref osSemaphore.
 708:Middlewares/Third_Party/FreeRTOS/Source/CMSIS_RTOS/cmsis_os.c **** * @param count         number of available resources.
 709:Middlewares/Third_Party/FreeRTOS/Source/CMSIS_RTOS/cmsis_os.c **** * @retval  semaphore ID for reference by other functions or NULL in case of error.
 710:Middlewares/Third_Party/FreeRTOS/Source/CMSIS_RTOS/cmsis_os.c **** * @note   MUST REMAIN UNCHANGED: \b osSemaphoreCreate shall be consistent in every CMSIS-RTOS.
 711:Middlewares/Third_Party/FreeRTOS/Source/CMSIS_RTOS/cmsis_os.c **** */
 712:Middlewares/Third_Party/FreeRTOS/Source/CMSIS_RTOS/cmsis_os.c **** osSemaphoreId osSemaphoreCreate (const osSemaphoreDef_t *semaphore_def, int32_t count)
 713:Middlewares/Third_Party/FreeRTOS/Source/CMSIS_RTOS/cmsis_os.c **** { 
 1542              		.loc 1 713 1
 1543              		.cfi_startproc
 1544              		@ args = 0, pretend = 0, frame = 16
 1545              		@ frame_needed = 1, uses_anonymous_args = 0
 1546 0000 80B5     		push	{r7, lr}
 1547              	.LCFI109:
 1548              		.cfi_def_cfa_offset 8
 1549              		.cfi_offset 7, -8
 1550              		.cfi_offset 14, -4
 1551 0002 86B0     		sub	sp, sp, #24
 1552              	.LCFI110:
 1553              		.cfi_def_cfa_offset 32
 1554 0004 02AF     		add	r7, sp, #8
 1555              	.LCFI111:
 1556              		.cfi_def_cfa 7, 24
 1557 0006 7860     		str	r0, [r7, #4]
 1558 0008 3960     		str	r1, [r7]
 714:Middlewares/Third_Party/FreeRTOS/Source/CMSIS_RTOS/cmsis_os.c **** #if( configSUPPORT_STATIC_ALLOCATION == 1 ) && ( configSUPPORT_DYNAMIC_ALLOCATION == 1 )
 715:Middlewares/Third_Party/FreeRTOS/Source/CMSIS_RTOS/cmsis_os.c **** 
 716:Middlewares/Third_Party/FreeRTOS/Source/CMSIS_RTOS/cmsis_os.c ****   osSemaphoreId sema;
 717:Middlewares/Third_Party/FreeRTOS/Source/CMSIS_RTOS/cmsis_os.c ****   
 718:Middlewares/Third_Party/FreeRTOS/Source/CMSIS_RTOS/cmsis_os.c ****   if (semaphore_def->controlblock != NULL){
 1559              		.loc 1 718 20
 1560 000a 7B68     		ldr	r3, [r7, #4]
 1561 000c 5B68     		ldr	r3, [r3, #4]
 1562              		.loc 1 718 6
 1563 000e 002B     		cmp	r3, #0
 1564 0010 0FD0     		beq	.L91
 719:Middlewares/Third_Party/FreeRTOS/Source/CMSIS_RTOS/cmsis_os.c ****     if (count == 1) {
 1565              		.loc 1 719 8
ARM GAS  /tmp/cc4ZeGpA.s 			page 44


 1566 0012 3B68     		ldr	r3, [r7]
 1567 0014 012B     		cmp	r3, #1
 1568 0016 0AD1     		bne	.L92
 720:Middlewares/Third_Party/FreeRTOS/Source/CMSIS_RTOS/cmsis_os.c ****       return xSemaphoreCreateBinaryStatic( semaphore_def->controlblock );
 1569              		.loc 1 720 14
 1570 0018 7B68     		ldr	r3, [r7, #4]
 1571 001a 5B68     		ldr	r3, [r3, #4]
 1572 001c 0322     		movs	r2, #3
 1573 001e 0092     		str	r2, [sp]
 1574 0020 0022     		movs	r2, #0
 1575 0022 0021     		movs	r1, #0
 1576 0024 0120     		movs	r0, #1
 1577 0026 FFF7FEFF 		bl	xQueueGenericCreateStatic
 1578 002a 0346     		mov	r3, r0
 1579 002c 16E0     		b	.L93
 1580              	.L92:
 721:Middlewares/Third_Party/FreeRTOS/Source/CMSIS_RTOS/cmsis_os.c ****     }
 722:Middlewares/Third_Party/FreeRTOS/Source/CMSIS_RTOS/cmsis_os.c ****     else {
 723:Middlewares/Third_Party/FreeRTOS/Source/CMSIS_RTOS/cmsis_os.c **** #if (configUSE_COUNTING_SEMAPHORES == 1 )
 724:Middlewares/Third_Party/FreeRTOS/Source/CMSIS_RTOS/cmsis_os.c ****       return xSemaphoreCreateCountingStatic( count, count, semaphore_def->controlblock );
 725:Middlewares/Third_Party/FreeRTOS/Source/CMSIS_RTOS/cmsis_os.c **** #else
 726:Middlewares/Third_Party/FreeRTOS/Source/CMSIS_RTOS/cmsis_os.c ****       return NULL;
 1581              		.loc 1 726 14
 1582 002e 0023     		movs	r3, #0
 1583 0030 14E0     		b	.L93
 1584              	.L91:
 727:Middlewares/Third_Party/FreeRTOS/Source/CMSIS_RTOS/cmsis_os.c **** #endif
 728:Middlewares/Third_Party/FreeRTOS/Source/CMSIS_RTOS/cmsis_os.c ****     }
 729:Middlewares/Third_Party/FreeRTOS/Source/CMSIS_RTOS/cmsis_os.c ****   }
 730:Middlewares/Third_Party/FreeRTOS/Source/CMSIS_RTOS/cmsis_os.c ****   else {
 731:Middlewares/Third_Party/FreeRTOS/Source/CMSIS_RTOS/cmsis_os.c ****     if (count == 1) {
 1585              		.loc 1 731 8
 1586 0032 3B68     		ldr	r3, [r7]
 1587 0034 012B     		cmp	r3, #1
 1588 0036 10D1     		bne	.L94
 732:Middlewares/Third_Party/FreeRTOS/Source/CMSIS_RTOS/cmsis_os.c ****       vSemaphoreCreateBinary(sema);
 1589              		.loc 1 732 7
 1590 0038 0322     		movs	r2, #3
 1591 003a 0021     		movs	r1, #0
 1592 003c 0120     		movs	r0, #1
 1593 003e FFF7FEFF 		bl	xQueueGenericCreate
 1594 0042 F860     		str	r0, [r7, #12]
 1595 0044 FB68     		ldr	r3, [r7, #12]
 1596 0046 002B     		cmp	r3, #0
 1597 0048 05D0     		beq	.L95
 1598              		.loc 1 732 7 is_stmt 0 discriminator 1
 1599 004a 0023     		movs	r3, #0
 1600 004c 0022     		movs	r2, #0
 1601 004e 0021     		movs	r1, #0
 1602 0050 F868     		ldr	r0, [r7, #12]
 1603 0052 FFF7FEFF 		bl	xQueueGenericSend
 1604              	.L95:
 733:Middlewares/Third_Party/FreeRTOS/Source/CMSIS_RTOS/cmsis_os.c ****       return sema;
 1605              		.loc 1 733 14 is_stmt 1
 1606 0056 FB68     		ldr	r3, [r7, #12]
 1607 0058 00E0     		b	.L93
 1608              	.L94:
ARM GAS  /tmp/cc4ZeGpA.s 			page 45


 734:Middlewares/Third_Party/FreeRTOS/Source/CMSIS_RTOS/cmsis_os.c ****     }
 735:Middlewares/Third_Party/FreeRTOS/Source/CMSIS_RTOS/cmsis_os.c ****     else {
 736:Middlewares/Third_Party/FreeRTOS/Source/CMSIS_RTOS/cmsis_os.c **** #if (configUSE_COUNTING_SEMAPHORES == 1 )	
 737:Middlewares/Third_Party/FreeRTOS/Source/CMSIS_RTOS/cmsis_os.c ****       return xSemaphoreCreateCounting(count, count);
 738:Middlewares/Third_Party/FreeRTOS/Source/CMSIS_RTOS/cmsis_os.c **** #else
 739:Middlewares/Third_Party/FreeRTOS/Source/CMSIS_RTOS/cmsis_os.c ****       return NULL;
 1609              		.loc 1 739 14
 1610 005a 0023     		movs	r3, #0
 1611              	.L93:
 740:Middlewares/Third_Party/FreeRTOS/Source/CMSIS_RTOS/cmsis_os.c **** #endif    
 741:Middlewares/Third_Party/FreeRTOS/Source/CMSIS_RTOS/cmsis_os.c ****     }
 742:Middlewares/Third_Party/FreeRTOS/Source/CMSIS_RTOS/cmsis_os.c ****   }
 743:Middlewares/Third_Party/FreeRTOS/Source/CMSIS_RTOS/cmsis_os.c **** #elif ( configSUPPORT_STATIC_ALLOCATION == 1 ) // configSUPPORT_DYNAMIC_ALLOCATION == 0
 744:Middlewares/Third_Party/FreeRTOS/Source/CMSIS_RTOS/cmsis_os.c ****   if(count == 1) {
 745:Middlewares/Third_Party/FreeRTOS/Source/CMSIS_RTOS/cmsis_os.c ****     return xSemaphoreCreateBinaryStatic( semaphore_def->controlblock );
 746:Middlewares/Third_Party/FreeRTOS/Source/CMSIS_RTOS/cmsis_os.c ****   }
 747:Middlewares/Third_Party/FreeRTOS/Source/CMSIS_RTOS/cmsis_os.c ****   else
 748:Middlewares/Third_Party/FreeRTOS/Source/CMSIS_RTOS/cmsis_os.c ****   {
 749:Middlewares/Third_Party/FreeRTOS/Source/CMSIS_RTOS/cmsis_os.c **** #if (configUSE_COUNTING_SEMAPHORES == 1 )
 750:Middlewares/Third_Party/FreeRTOS/Source/CMSIS_RTOS/cmsis_os.c ****       return xSemaphoreCreateCountingStatic( count, count, semaphore_def->controlblock );
 751:Middlewares/Third_Party/FreeRTOS/Source/CMSIS_RTOS/cmsis_os.c **** #else
 752:Middlewares/Third_Party/FreeRTOS/Source/CMSIS_RTOS/cmsis_os.c ****       return NULL;
 753:Middlewares/Third_Party/FreeRTOS/Source/CMSIS_RTOS/cmsis_os.c **** #endif    
 754:Middlewares/Third_Party/FreeRTOS/Source/CMSIS_RTOS/cmsis_os.c ****   }
 755:Middlewares/Third_Party/FreeRTOS/Source/CMSIS_RTOS/cmsis_os.c **** #else  // configSUPPORT_STATIC_ALLOCATION == 0  && configSUPPORT_DYNAMIC_ALLOCATION == 1
 756:Middlewares/Third_Party/FreeRTOS/Source/CMSIS_RTOS/cmsis_os.c ****   osSemaphoreId sema;
 757:Middlewares/Third_Party/FreeRTOS/Source/CMSIS_RTOS/cmsis_os.c ****  
 758:Middlewares/Third_Party/FreeRTOS/Source/CMSIS_RTOS/cmsis_os.c ****   if (count == 1) {
 759:Middlewares/Third_Party/FreeRTOS/Source/CMSIS_RTOS/cmsis_os.c ****     vSemaphoreCreateBinary(sema);
 760:Middlewares/Third_Party/FreeRTOS/Source/CMSIS_RTOS/cmsis_os.c ****     return sema;
 761:Middlewares/Third_Party/FreeRTOS/Source/CMSIS_RTOS/cmsis_os.c ****   }
 762:Middlewares/Third_Party/FreeRTOS/Source/CMSIS_RTOS/cmsis_os.c ****   else {
 763:Middlewares/Third_Party/FreeRTOS/Source/CMSIS_RTOS/cmsis_os.c **** #if (configUSE_COUNTING_SEMAPHORES == 1 )	
 764:Middlewares/Third_Party/FreeRTOS/Source/CMSIS_RTOS/cmsis_os.c ****     return xSemaphoreCreateCounting(count, count);
 765:Middlewares/Third_Party/FreeRTOS/Source/CMSIS_RTOS/cmsis_os.c **** #else
 766:Middlewares/Third_Party/FreeRTOS/Source/CMSIS_RTOS/cmsis_os.c ****     return NULL;
 767:Middlewares/Third_Party/FreeRTOS/Source/CMSIS_RTOS/cmsis_os.c **** #endif
 768:Middlewares/Third_Party/FreeRTOS/Source/CMSIS_RTOS/cmsis_os.c ****   }
 769:Middlewares/Third_Party/FreeRTOS/Source/CMSIS_RTOS/cmsis_os.c **** #endif
 770:Middlewares/Third_Party/FreeRTOS/Source/CMSIS_RTOS/cmsis_os.c **** }
 1612              		.loc 1 770 1
 1613 005c 1846     		mov	r0, r3
 1614 005e 1037     		adds	r7, r7, #16
 1615              	.LCFI112:
 1616              		.cfi_def_cfa_offset 8
 1617 0060 BD46     		mov	sp, r7
 1618              	.LCFI113:
 1619              		.cfi_def_cfa_register 13
 1620              		@ sp needed
 1621 0062 80BD     		pop	{r7, pc}
 1622              		.cfi_endproc
 1623              	.LFE130:
 1625              		.section	.text.osSemaphoreWait,"ax",%progbits
 1626              		.align	1
 1627              		.global	osSemaphoreWait
 1628              		.syntax unified
 1629              		.thumb
ARM GAS  /tmp/cc4ZeGpA.s 			page 46


 1630              		.thumb_func
 1631              		.fpu fpv5-d16
 1633              	osSemaphoreWait:
 1634              	.LFB131:
 771:Middlewares/Third_Party/FreeRTOS/Source/CMSIS_RTOS/cmsis_os.c **** 
 772:Middlewares/Third_Party/FreeRTOS/Source/CMSIS_RTOS/cmsis_os.c **** /**
 773:Middlewares/Third_Party/FreeRTOS/Source/CMSIS_RTOS/cmsis_os.c **** * @brief Wait until a Semaphore token becomes available
 774:Middlewares/Third_Party/FreeRTOS/Source/CMSIS_RTOS/cmsis_os.c **** * @param  semaphore_id  semaphore object referenced with \ref osSemaphore.
 775:Middlewares/Third_Party/FreeRTOS/Source/CMSIS_RTOS/cmsis_os.c **** * @param  millisec      timeout value or 0 in case of no time-out.
 776:Middlewares/Third_Party/FreeRTOS/Source/CMSIS_RTOS/cmsis_os.c **** * @retval  number of available tokens, or -1 in case of incorrect parameters.
 777:Middlewares/Third_Party/FreeRTOS/Source/CMSIS_RTOS/cmsis_os.c **** * @note   MUST REMAIN UNCHANGED: \b osSemaphoreWait shall be consistent in every CMSIS-RTOS.
 778:Middlewares/Third_Party/FreeRTOS/Source/CMSIS_RTOS/cmsis_os.c **** */
 779:Middlewares/Third_Party/FreeRTOS/Source/CMSIS_RTOS/cmsis_os.c **** int32_t osSemaphoreWait (osSemaphoreId semaphore_id, uint32_t millisec)
 780:Middlewares/Third_Party/FreeRTOS/Source/CMSIS_RTOS/cmsis_os.c **** {
 1635              		.loc 1 780 1
 1636              		.cfi_startproc
 1637              		@ args = 0, pretend = 0, frame = 16
 1638              		@ frame_needed = 1, uses_anonymous_args = 0
 1639 0000 80B5     		push	{r7, lr}
 1640              	.LCFI114:
 1641              		.cfi_def_cfa_offset 8
 1642              		.cfi_offset 7, -8
 1643              		.cfi_offset 14, -4
 1644 0002 84B0     		sub	sp, sp, #16
 1645              	.LCFI115:
 1646              		.cfi_def_cfa_offset 24
 1647 0004 00AF     		add	r7, sp, #0
 1648              	.LCFI116:
 1649              		.cfi_def_cfa_register 7
 1650 0006 7860     		str	r0, [r7, #4]
 1651 0008 3960     		str	r1, [r7]
 781:Middlewares/Third_Party/FreeRTOS/Source/CMSIS_RTOS/cmsis_os.c ****   TickType_t ticks;
 782:Middlewares/Third_Party/FreeRTOS/Source/CMSIS_RTOS/cmsis_os.c ****   portBASE_TYPE taskWoken = pdFALSE;  
 1652              		.loc 1 782 17
 1653 000a 0023     		movs	r3, #0
 1654 000c BB60     		str	r3, [r7, #8]
 783:Middlewares/Third_Party/FreeRTOS/Source/CMSIS_RTOS/cmsis_os.c ****   
 784:Middlewares/Third_Party/FreeRTOS/Source/CMSIS_RTOS/cmsis_os.c ****   
 785:Middlewares/Third_Party/FreeRTOS/Source/CMSIS_RTOS/cmsis_os.c ****   if (semaphore_id == NULL) {
 1655              		.loc 1 785 6
 1656 000e 7B68     		ldr	r3, [r7, #4]
 1657 0010 002B     		cmp	r3, #0
 1658 0012 01D1     		bne	.L97
 786:Middlewares/Third_Party/FreeRTOS/Source/CMSIS_RTOS/cmsis_os.c ****     return osErrorParameter;
 1659              		.loc 1 786 12
 1660 0014 8023     		movs	r3, #128
 1661 0016 3AE0     		b	.L104
 1662              	.L97:
 787:Middlewares/Third_Party/FreeRTOS/Source/CMSIS_RTOS/cmsis_os.c ****   }
 788:Middlewares/Third_Party/FreeRTOS/Source/CMSIS_RTOS/cmsis_os.c ****   
 789:Middlewares/Third_Party/FreeRTOS/Source/CMSIS_RTOS/cmsis_os.c ****   ticks = 0;
 1663              		.loc 1 789 9
 1664 0018 0023     		movs	r3, #0
 1665 001a FB60     		str	r3, [r7, #12]
 790:Middlewares/Third_Party/FreeRTOS/Source/CMSIS_RTOS/cmsis_os.c ****   if (millisec == osWaitForever) {
 1666              		.loc 1 790 6
 1667 001c 3B68     		ldr	r3, [r7]
ARM GAS  /tmp/cc4ZeGpA.s 			page 47


 1668 001e B3F1FF3F 		cmp	r3, #-1
 1669 0022 03D1     		bne	.L99
 791:Middlewares/Third_Party/FreeRTOS/Source/CMSIS_RTOS/cmsis_os.c ****     ticks = portMAX_DELAY;
 1670              		.loc 1 791 11
 1671 0024 4FF0FF33 		mov	r3, #-1
 1672 0028 FB60     		str	r3, [r7, #12]
 1673 002a 09E0     		b	.L100
 1674              	.L99:
 792:Middlewares/Third_Party/FreeRTOS/Source/CMSIS_RTOS/cmsis_os.c ****   }
 793:Middlewares/Third_Party/FreeRTOS/Source/CMSIS_RTOS/cmsis_os.c ****   else if (millisec != 0) {
 1675              		.loc 1 793 11
 1676 002c 3B68     		ldr	r3, [r7]
 1677 002e 002B     		cmp	r3, #0
 1678 0030 06D0     		beq	.L100
 794:Middlewares/Third_Party/FreeRTOS/Source/CMSIS_RTOS/cmsis_os.c ****     ticks = millisec / portTICK_PERIOD_MS;
 1679              		.loc 1 794 11
 1680 0032 3B68     		ldr	r3, [r7]
 1681 0034 FB60     		str	r3, [r7, #12]
 795:Middlewares/Third_Party/FreeRTOS/Source/CMSIS_RTOS/cmsis_os.c ****     if (ticks == 0) {
 1682              		.loc 1 795 8
 1683 0036 FB68     		ldr	r3, [r7, #12]
 1684 0038 002B     		cmp	r3, #0
 1685 003a 01D1     		bne	.L100
 796:Middlewares/Third_Party/FreeRTOS/Source/CMSIS_RTOS/cmsis_os.c ****       ticks = 1;
 1686              		.loc 1 796 13
 1687 003c 0123     		movs	r3, #1
 1688 003e FB60     		str	r3, [r7, #12]
 1689              	.L100:
 797:Middlewares/Third_Party/FreeRTOS/Source/CMSIS_RTOS/cmsis_os.c ****     }
 798:Middlewares/Third_Party/FreeRTOS/Source/CMSIS_RTOS/cmsis_os.c ****   }
 799:Middlewares/Third_Party/FreeRTOS/Source/CMSIS_RTOS/cmsis_os.c ****   
 800:Middlewares/Third_Party/FreeRTOS/Source/CMSIS_RTOS/cmsis_os.c ****   if (inHandlerMode()) {
 1690              		.loc 1 800 7
 1691 0040 FFF7FEFF 		bl	inHandlerMode
 1692 0044 0346     		mov	r3, r0
 1693              		.loc 1 800 6
 1694 0046 002B     		cmp	r3, #0
 1695 0048 17D0     		beq	.L101
 801:Middlewares/Third_Party/FreeRTOS/Source/CMSIS_RTOS/cmsis_os.c ****     if (xSemaphoreTakeFromISR(semaphore_id, &taskWoken) != pdTRUE) {
 1696              		.loc 1 801 9
 1697 004a 07F10803 		add	r3, r7, #8
 1698 004e 1A46     		mov	r2, r3
 1699 0050 0021     		movs	r1, #0
 1700 0052 7868     		ldr	r0, [r7, #4]
 1701 0054 FFF7FEFF 		bl	xQueueReceiveFromISR
 1702 0058 0346     		mov	r3, r0
 1703              		.loc 1 801 8
 1704 005a 012B     		cmp	r3, #1
 1705 005c 01D0     		beq	.L102
 802:Middlewares/Third_Party/FreeRTOS/Source/CMSIS_RTOS/cmsis_os.c ****       return osErrorOS;
 1706              		.loc 1 802 14
 1707 005e FF23     		movs	r3, #255
 1708 0060 15E0     		b	.L104
 1709              	.L102:
 803:Middlewares/Third_Party/FreeRTOS/Source/CMSIS_RTOS/cmsis_os.c ****     }
 804:Middlewares/Third_Party/FreeRTOS/Source/CMSIS_RTOS/cmsis_os.c **** 	portEND_SWITCHING_ISR(taskWoken);
 1710              		.loc 1 804 2
ARM GAS  /tmp/cc4ZeGpA.s 			page 48


 1711 0062 BB68     		ldr	r3, [r7, #8]
 1712 0064 002B     		cmp	r3, #0
 1713 0066 11D0     		beq	.L103
 1714              		.loc 1 804 2 is_stmt 0 discriminator 1
 1715 0068 0B4B     		ldr	r3, .L105
 1716 006a 4FF08052 		mov	r2, #268435456
 1717 006e 1A60     		str	r2, [r3]
 1718              		.syntax unified
 1719              	@ 804 "Middlewares/Third_Party/FreeRTOS/Source/CMSIS_RTOS/cmsis_os.c" 1
 1720 0070 BFF34F8F 		dsb
 1721              	@ 0 "" 2
 1722              	@ 804 "Middlewares/Third_Party/FreeRTOS/Source/CMSIS_RTOS/cmsis_os.c" 1
 1723 0074 BFF36F8F 		isb
 1724              	@ 0 "" 2
 1725              		.thumb
 1726              		.syntax unified
 1727 0078 08E0     		b	.L103
 1728              	.L101:
 805:Middlewares/Third_Party/FreeRTOS/Source/CMSIS_RTOS/cmsis_os.c ****   }  
 806:Middlewares/Third_Party/FreeRTOS/Source/CMSIS_RTOS/cmsis_os.c ****   else if (xSemaphoreTake(semaphore_id, ticks) != pdTRUE) {
 1729              		.loc 1 806 12 is_stmt 1
 1730 007a F968     		ldr	r1, [r7, #12]
 1731 007c 7868     		ldr	r0, [r7, #4]
 1732 007e FFF7FEFF 		bl	xQueueSemaphoreTake
 1733 0082 0346     		mov	r3, r0
 1734              		.loc 1 806 11
 1735 0084 012B     		cmp	r3, #1
 1736 0086 01D0     		beq	.L103
 807:Middlewares/Third_Party/FreeRTOS/Source/CMSIS_RTOS/cmsis_os.c ****     return osErrorOS;
 1737              		.loc 1 807 12
 1738 0088 FF23     		movs	r3, #255
 1739 008a 00E0     		b	.L104
 1740              	.L103:
 808:Middlewares/Third_Party/FreeRTOS/Source/CMSIS_RTOS/cmsis_os.c ****   }
 809:Middlewares/Third_Party/FreeRTOS/Source/CMSIS_RTOS/cmsis_os.c ****   
 810:Middlewares/Third_Party/FreeRTOS/Source/CMSIS_RTOS/cmsis_os.c ****   return osOK;
 1741              		.loc 1 810 10
 1742 008c 0023     		movs	r3, #0
 1743              	.L104:
 811:Middlewares/Third_Party/FreeRTOS/Source/CMSIS_RTOS/cmsis_os.c **** }
 1744              		.loc 1 811 1 discriminator 1
 1745 008e 1846     		mov	r0, r3
 1746 0090 1037     		adds	r7, r7, #16
 1747              	.LCFI117:
 1748              		.cfi_def_cfa_offset 8
 1749 0092 BD46     		mov	sp, r7
 1750              	.LCFI118:
 1751              		.cfi_def_cfa_register 13
 1752              		@ sp needed
 1753 0094 80BD     		pop	{r7, pc}
 1754              	.L106:
 1755 0096 00BF     		.align	2
 1756              	.L105:
 1757 0098 04ED00E0 		.word	-536810236
 1758              		.cfi_endproc
 1759              	.LFE131:
 1761              		.section	.text.osSemaphoreRelease,"ax",%progbits
ARM GAS  /tmp/cc4ZeGpA.s 			page 49


 1762              		.align	1
 1763              		.global	osSemaphoreRelease
 1764              		.syntax unified
 1765              		.thumb
 1766              		.thumb_func
 1767              		.fpu fpv5-d16
 1769              	osSemaphoreRelease:
 1770              	.LFB132:
 812:Middlewares/Third_Party/FreeRTOS/Source/CMSIS_RTOS/cmsis_os.c **** 
 813:Middlewares/Third_Party/FreeRTOS/Source/CMSIS_RTOS/cmsis_os.c **** /**
 814:Middlewares/Third_Party/FreeRTOS/Source/CMSIS_RTOS/cmsis_os.c **** * @brief Release a Semaphore token
 815:Middlewares/Third_Party/FreeRTOS/Source/CMSIS_RTOS/cmsis_os.c **** * @param  semaphore_id  semaphore object referenced with \ref osSemaphore.
 816:Middlewares/Third_Party/FreeRTOS/Source/CMSIS_RTOS/cmsis_os.c **** * @retval  status code that indicates the execution status of the function.
 817:Middlewares/Third_Party/FreeRTOS/Source/CMSIS_RTOS/cmsis_os.c **** * @note   MUST REMAIN UNCHANGED: \b osSemaphoreRelease shall be consistent in every CMSIS-RTOS.
 818:Middlewares/Third_Party/FreeRTOS/Source/CMSIS_RTOS/cmsis_os.c **** */
 819:Middlewares/Third_Party/FreeRTOS/Source/CMSIS_RTOS/cmsis_os.c **** osStatus osSemaphoreRelease (osSemaphoreId semaphore_id)
 820:Middlewares/Third_Party/FreeRTOS/Source/CMSIS_RTOS/cmsis_os.c **** {
 1771              		.loc 1 820 1
 1772              		.cfi_startproc
 1773              		@ args = 0, pretend = 0, frame = 16
 1774              		@ frame_needed = 1, uses_anonymous_args = 0
 1775 0000 80B5     		push	{r7, lr}
 1776              	.LCFI119:
 1777              		.cfi_def_cfa_offset 8
 1778              		.cfi_offset 7, -8
 1779              		.cfi_offset 14, -4
 1780 0002 84B0     		sub	sp, sp, #16
 1781              	.LCFI120:
 1782              		.cfi_def_cfa_offset 24
 1783 0004 00AF     		add	r7, sp, #0
 1784              	.LCFI121:
 1785              		.cfi_def_cfa_register 7
 1786 0006 7860     		str	r0, [r7, #4]
 821:Middlewares/Third_Party/FreeRTOS/Source/CMSIS_RTOS/cmsis_os.c ****   osStatus result = osOK;
 1787              		.loc 1 821 12
 1788 0008 0023     		movs	r3, #0
 1789 000a FB60     		str	r3, [r7, #12]
 822:Middlewares/Third_Party/FreeRTOS/Source/CMSIS_RTOS/cmsis_os.c ****   portBASE_TYPE taskWoken = pdFALSE;
 1790              		.loc 1 822 17
 1791 000c 0023     		movs	r3, #0
 1792 000e BB60     		str	r3, [r7, #8]
 823:Middlewares/Third_Party/FreeRTOS/Source/CMSIS_RTOS/cmsis_os.c ****   
 824:Middlewares/Third_Party/FreeRTOS/Source/CMSIS_RTOS/cmsis_os.c ****   
 825:Middlewares/Third_Party/FreeRTOS/Source/CMSIS_RTOS/cmsis_os.c ****   if (inHandlerMode()) {
 1793              		.loc 1 825 7
 1794 0010 FFF7FEFF 		bl	inHandlerMode
 1795 0014 0346     		mov	r3, r0
 1796              		.loc 1 825 6
 1797 0016 002B     		cmp	r3, #0
 1798 0018 16D0     		beq	.L108
 826:Middlewares/Third_Party/FreeRTOS/Source/CMSIS_RTOS/cmsis_os.c ****     if (xSemaphoreGiveFromISR(semaphore_id, &taskWoken) != pdTRUE) {
 1799              		.loc 1 826 9
 1800 001a 07F10803 		add	r3, r7, #8
 1801 001e 1946     		mov	r1, r3
 1802 0020 7868     		ldr	r0, [r7, #4]
 1803 0022 FFF7FEFF 		bl	xQueueGiveFromISR
 1804 0026 0346     		mov	r3, r0
ARM GAS  /tmp/cc4ZeGpA.s 			page 50


 1805              		.loc 1 826 8
 1806 0028 012B     		cmp	r3, #1
 1807 002a 01D0     		beq	.L109
 827:Middlewares/Third_Party/FreeRTOS/Source/CMSIS_RTOS/cmsis_os.c ****       return osErrorOS;
 1808              		.loc 1 827 14
 1809 002c FF23     		movs	r3, #255
 1810 002e 17E0     		b	.L112
 1811              	.L109:
 828:Middlewares/Third_Party/FreeRTOS/Source/CMSIS_RTOS/cmsis_os.c ****     }
 829:Middlewares/Third_Party/FreeRTOS/Source/CMSIS_RTOS/cmsis_os.c ****     portEND_SWITCHING_ISR(taskWoken);
 1812              		.loc 1 829 5
 1813 0030 BB68     		ldr	r3, [r7, #8]
 1814 0032 002B     		cmp	r3, #0
 1815 0034 13D0     		beq	.L111
 1816              		.loc 1 829 5 is_stmt 0 discriminator 1
 1817 0036 0C4B     		ldr	r3, .L113
 1818 0038 4FF08052 		mov	r2, #268435456
 1819 003c 1A60     		str	r2, [r3]
 1820              		.syntax unified
 1821              	@ 829 "Middlewares/Third_Party/FreeRTOS/Source/CMSIS_RTOS/cmsis_os.c" 1
 1822 003e BFF34F8F 		dsb
 1823              	@ 0 "" 2
 1824              	@ 829 "Middlewares/Third_Party/FreeRTOS/Source/CMSIS_RTOS/cmsis_os.c" 1
 1825 0042 BFF36F8F 		isb
 1826              	@ 0 "" 2
 1827              		.thumb
 1828              		.syntax unified
 1829 0046 0AE0     		b	.L111
 1830              	.L108:
 830:Middlewares/Third_Party/FreeRTOS/Source/CMSIS_RTOS/cmsis_os.c ****   }
 831:Middlewares/Third_Party/FreeRTOS/Source/CMSIS_RTOS/cmsis_os.c ****   else {
 832:Middlewares/Third_Party/FreeRTOS/Source/CMSIS_RTOS/cmsis_os.c ****     if (xSemaphoreGive(semaphore_id) != pdTRUE) {
 1831              		.loc 1 832 9 is_stmt 1
 1832 0048 0023     		movs	r3, #0
 1833 004a 0022     		movs	r2, #0
 1834 004c 0021     		movs	r1, #0
 1835 004e 7868     		ldr	r0, [r7, #4]
 1836 0050 FFF7FEFF 		bl	xQueueGenericSend
 1837 0054 0346     		mov	r3, r0
 1838              		.loc 1 832 8
 1839 0056 012B     		cmp	r3, #1
 1840 0058 01D0     		beq	.L111
 833:Middlewares/Third_Party/FreeRTOS/Source/CMSIS_RTOS/cmsis_os.c ****       result = osErrorOS;
 1841              		.loc 1 833 14
 1842 005a FF23     		movs	r3, #255
 1843 005c FB60     		str	r3, [r7, #12]
 1844              	.L111:
 834:Middlewares/Third_Party/FreeRTOS/Source/CMSIS_RTOS/cmsis_os.c ****     }
 835:Middlewares/Third_Party/FreeRTOS/Source/CMSIS_RTOS/cmsis_os.c ****   }
 836:Middlewares/Third_Party/FreeRTOS/Source/CMSIS_RTOS/cmsis_os.c ****   
 837:Middlewares/Third_Party/FreeRTOS/Source/CMSIS_RTOS/cmsis_os.c ****   return result;
 1845              		.loc 1 837 10
 1846 005e FB68     		ldr	r3, [r7, #12]
 1847              	.L112:
 838:Middlewares/Third_Party/FreeRTOS/Source/CMSIS_RTOS/cmsis_os.c **** }
 1848              		.loc 1 838 1 discriminator 1
 1849 0060 1846     		mov	r0, r3
ARM GAS  /tmp/cc4ZeGpA.s 			page 51


 1850 0062 1037     		adds	r7, r7, #16
 1851              	.LCFI122:
 1852              		.cfi_def_cfa_offset 8
 1853 0064 BD46     		mov	sp, r7
 1854              	.LCFI123:
 1855              		.cfi_def_cfa_register 13
 1856              		@ sp needed
 1857 0066 80BD     		pop	{r7, pc}
 1858              	.L114:
 1859              		.align	2
 1860              	.L113:
 1861 0068 04ED00E0 		.word	-536810236
 1862              		.cfi_endproc
 1863              	.LFE132:
 1865              		.section	.text.osSemaphoreDelete,"ax",%progbits
 1866              		.align	1
 1867              		.global	osSemaphoreDelete
 1868              		.syntax unified
 1869              		.thumb
 1870              		.thumb_func
 1871              		.fpu fpv5-d16
 1873              	osSemaphoreDelete:
 1874              	.LFB133:
 839:Middlewares/Third_Party/FreeRTOS/Source/CMSIS_RTOS/cmsis_os.c **** 
 840:Middlewares/Third_Party/FreeRTOS/Source/CMSIS_RTOS/cmsis_os.c **** /**
 841:Middlewares/Third_Party/FreeRTOS/Source/CMSIS_RTOS/cmsis_os.c **** * @brief Delete a Semaphore
 842:Middlewares/Third_Party/FreeRTOS/Source/CMSIS_RTOS/cmsis_os.c **** * @param  semaphore_id  semaphore object referenced with \ref osSemaphore.
 843:Middlewares/Third_Party/FreeRTOS/Source/CMSIS_RTOS/cmsis_os.c **** * @retval  status code that indicates the execution status of the function.
 844:Middlewares/Third_Party/FreeRTOS/Source/CMSIS_RTOS/cmsis_os.c **** * @note   MUST REMAIN UNCHANGED: \b osSemaphoreDelete shall be consistent in every CMSIS-RTOS.
 845:Middlewares/Third_Party/FreeRTOS/Source/CMSIS_RTOS/cmsis_os.c **** */
 846:Middlewares/Third_Party/FreeRTOS/Source/CMSIS_RTOS/cmsis_os.c **** osStatus osSemaphoreDelete (osSemaphoreId semaphore_id)
 847:Middlewares/Third_Party/FreeRTOS/Source/CMSIS_RTOS/cmsis_os.c **** {
 1875              		.loc 1 847 1
 1876              		.cfi_startproc
 1877              		@ args = 0, pretend = 0, frame = 8
 1878              		@ frame_needed = 1, uses_anonymous_args = 0
 1879 0000 80B5     		push	{r7, lr}
 1880              	.LCFI124:
 1881              		.cfi_def_cfa_offset 8
 1882              		.cfi_offset 7, -8
 1883              		.cfi_offset 14, -4
 1884 0002 82B0     		sub	sp, sp, #8
 1885              	.LCFI125:
 1886              		.cfi_def_cfa_offset 16
 1887 0004 00AF     		add	r7, sp, #0
 1888              	.LCFI126:
 1889              		.cfi_def_cfa_register 7
 1890 0006 7860     		str	r0, [r7, #4]
 848:Middlewares/Third_Party/FreeRTOS/Source/CMSIS_RTOS/cmsis_os.c ****   if (inHandlerMode()) {
 1891              		.loc 1 848 7
 1892 0008 FFF7FEFF 		bl	inHandlerMode
 1893 000c 0346     		mov	r3, r0
 1894              		.loc 1 848 6
 1895 000e 002B     		cmp	r3, #0
 1896 0010 01D0     		beq	.L116
 849:Middlewares/Third_Party/FreeRTOS/Source/CMSIS_RTOS/cmsis_os.c ****     return osErrorISR;
 1897              		.loc 1 849 12
ARM GAS  /tmp/cc4ZeGpA.s 			page 52


 1898 0012 8223     		movs	r3, #130
 1899 0014 03E0     		b	.L117
 1900              	.L116:
 850:Middlewares/Third_Party/FreeRTOS/Source/CMSIS_RTOS/cmsis_os.c ****   }
 851:Middlewares/Third_Party/FreeRTOS/Source/CMSIS_RTOS/cmsis_os.c **** 
 852:Middlewares/Third_Party/FreeRTOS/Source/CMSIS_RTOS/cmsis_os.c ****   vSemaphoreDelete(semaphore_id);
 1901              		.loc 1 852 3
 1902 0016 7868     		ldr	r0, [r7, #4]
 1903 0018 FFF7FEFF 		bl	vQueueDelete
 853:Middlewares/Third_Party/FreeRTOS/Source/CMSIS_RTOS/cmsis_os.c **** 
 854:Middlewares/Third_Party/FreeRTOS/Source/CMSIS_RTOS/cmsis_os.c ****   return osOK; 
 1904              		.loc 1 854 10
 1905 001c 0023     		movs	r3, #0
 1906              	.L117:
 855:Middlewares/Third_Party/FreeRTOS/Source/CMSIS_RTOS/cmsis_os.c **** }
 1907              		.loc 1 855 1
 1908 001e 1846     		mov	r0, r3
 1909 0020 0837     		adds	r7, r7, #8
 1910              	.LCFI127:
 1911              		.cfi_def_cfa_offset 8
 1912 0022 BD46     		mov	sp, r7
 1913              	.LCFI128:
 1914              		.cfi_def_cfa_register 13
 1915              		@ sp needed
 1916 0024 80BD     		pop	{r7, pc}
 1917              		.cfi_endproc
 1918              	.LFE133:
 1920              		.section	.text.osPoolCreate,"ax",%progbits
 1921              		.align	1
 1922              		.global	osPoolCreate
 1923              		.syntax unified
 1924              		.thumb
 1925              		.thumb_func
 1926              		.fpu fpv5-d16
 1928              	osPoolCreate:
 1929              	.LFB134:
 856:Middlewares/Third_Party/FreeRTOS/Source/CMSIS_RTOS/cmsis_os.c **** 
 857:Middlewares/Third_Party/FreeRTOS/Source/CMSIS_RTOS/cmsis_os.c **** #endif    /* Use Semaphores */
 858:Middlewares/Third_Party/FreeRTOS/Source/CMSIS_RTOS/cmsis_os.c **** 
 859:Middlewares/Third_Party/FreeRTOS/Source/CMSIS_RTOS/cmsis_os.c **** /*******************   Memory Pool Management Functions  ***********************/
 860:Middlewares/Third_Party/FreeRTOS/Source/CMSIS_RTOS/cmsis_os.c **** 
 861:Middlewares/Third_Party/FreeRTOS/Source/CMSIS_RTOS/cmsis_os.c **** #if (defined (osFeature_Pool)  &&  (osFeature_Pool != 0)) 
 862:Middlewares/Third_Party/FreeRTOS/Source/CMSIS_RTOS/cmsis_os.c **** 
 863:Middlewares/Third_Party/FreeRTOS/Source/CMSIS_RTOS/cmsis_os.c **** //TODO
 864:Middlewares/Third_Party/FreeRTOS/Source/CMSIS_RTOS/cmsis_os.c **** //This is a primitive and inefficient wrapper around the existing FreeRTOS memory management.
 865:Middlewares/Third_Party/FreeRTOS/Source/CMSIS_RTOS/cmsis_os.c **** //A better implementation will have to modify heap_x.c!
 866:Middlewares/Third_Party/FreeRTOS/Source/CMSIS_RTOS/cmsis_os.c **** 
 867:Middlewares/Third_Party/FreeRTOS/Source/CMSIS_RTOS/cmsis_os.c **** 
 868:Middlewares/Third_Party/FreeRTOS/Source/CMSIS_RTOS/cmsis_os.c **** typedef struct os_pool_cb {
 869:Middlewares/Third_Party/FreeRTOS/Source/CMSIS_RTOS/cmsis_os.c ****   void *pool;
 870:Middlewares/Third_Party/FreeRTOS/Source/CMSIS_RTOS/cmsis_os.c ****   uint8_t *markers;
 871:Middlewares/Third_Party/FreeRTOS/Source/CMSIS_RTOS/cmsis_os.c ****   uint32_t pool_sz;
 872:Middlewares/Third_Party/FreeRTOS/Source/CMSIS_RTOS/cmsis_os.c ****   uint32_t item_sz;
 873:Middlewares/Third_Party/FreeRTOS/Source/CMSIS_RTOS/cmsis_os.c ****   uint32_t currentIndex;
 874:Middlewares/Third_Party/FreeRTOS/Source/CMSIS_RTOS/cmsis_os.c **** } os_pool_cb_t;
 875:Middlewares/Third_Party/FreeRTOS/Source/CMSIS_RTOS/cmsis_os.c **** 
 876:Middlewares/Third_Party/FreeRTOS/Source/CMSIS_RTOS/cmsis_os.c **** 
ARM GAS  /tmp/cc4ZeGpA.s 			page 53


 877:Middlewares/Third_Party/FreeRTOS/Source/CMSIS_RTOS/cmsis_os.c **** /**
 878:Middlewares/Third_Party/FreeRTOS/Source/CMSIS_RTOS/cmsis_os.c **** * @brief Create and Initialize a memory pool
 879:Middlewares/Third_Party/FreeRTOS/Source/CMSIS_RTOS/cmsis_os.c **** * @param  pool_def      memory pool definition referenced with \ref osPool.
 880:Middlewares/Third_Party/FreeRTOS/Source/CMSIS_RTOS/cmsis_os.c **** * @retval  memory pool ID for reference by other functions or NULL in case of error.
 881:Middlewares/Third_Party/FreeRTOS/Source/CMSIS_RTOS/cmsis_os.c **** * @note   MUST REMAIN UNCHANGED: \b osPoolCreate shall be consistent in every CMSIS-RTOS.
 882:Middlewares/Third_Party/FreeRTOS/Source/CMSIS_RTOS/cmsis_os.c **** */
 883:Middlewares/Third_Party/FreeRTOS/Source/CMSIS_RTOS/cmsis_os.c **** osPoolId osPoolCreate (const osPoolDef_t *pool_def)
 884:Middlewares/Third_Party/FreeRTOS/Source/CMSIS_RTOS/cmsis_os.c **** {
 1930              		.loc 1 884 1
 1931              		.cfi_startproc
 1932              		@ args = 0, pretend = 0, frame = 24
 1933              		@ frame_needed = 1, uses_anonymous_args = 0
 1934 0000 80B5     		push	{r7, lr}
 1935              	.LCFI129:
 1936              		.cfi_def_cfa_offset 8
 1937              		.cfi_offset 7, -8
 1938              		.cfi_offset 14, -4
 1939 0002 86B0     		sub	sp, sp, #24
 1940              	.LCFI130:
 1941              		.cfi_def_cfa_offset 32
 1942 0004 00AF     		add	r7, sp, #0
 1943              	.LCFI131:
 1944              		.cfi_def_cfa_register 7
 1945 0006 7860     		str	r0, [r7, #4]
 885:Middlewares/Third_Party/FreeRTOS/Source/CMSIS_RTOS/cmsis_os.c **** #if (configSUPPORT_DYNAMIC_ALLOCATION == 1)
 886:Middlewares/Third_Party/FreeRTOS/Source/CMSIS_RTOS/cmsis_os.c ****   osPoolId thePool;
 887:Middlewares/Third_Party/FreeRTOS/Source/CMSIS_RTOS/cmsis_os.c ****   int itemSize = 4 * ((pool_def->item_sz + 3) / 4);
 1946              		.loc 1 887 32
 1947 0008 7B68     		ldr	r3, [r7, #4]
 1948 000a 5B68     		ldr	r3, [r3, #4]
 1949              		.loc 1 887 42
 1950 000c 0333     		adds	r3, r3, #3
 1951              		.loc 1 887 7
 1952 000e 23F00303 		bic	r3, r3, #3
 1953 0012 FB60     		str	r3, [r7, #12]
 888:Middlewares/Third_Party/FreeRTOS/Source/CMSIS_RTOS/cmsis_os.c ****   uint32_t i;
 889:Middlewares/Third_Party/FreeRTOS/Source/CMSIS_RTOS/cmsis_os.c ****   
 890:Middlewares/Third_Party/FreeRTOS/Source/CMSIS_RTOS/cmsis_os.c ****   /* First have to allocate memory for the pool control block. */
 891:Middlewares/Third_Party/FreeRTOS/Source/CMSIS_RTOS/cmsis_os.c ****  thePool = pvPortMalloc(sizeof(os_pool_cb_t));
 1954              		.loc 1 891 12
 1955 0014 1420     		movs	r0, #20
 1956 0016 FFF7FEFF 		bl	pvPortMalloc
 1957 001a 7861     		str	r0, [r7, #20]
 892:Middlewares/Third_Party/FreeRTOS/Source/CMSIS_RTOS/cmsis_os.c **** 
 893:Middlewares/Third_Party/FreeRTOS/Source/CMSIS_RTOS/cmsis_os.c ****   
 894:Middlewares/Third_Party/FreeRTOS/Source/CMSIS_RTOS/cmsis_os.c ****   if (thePool) {
 1958              		.loc 1 894 6
 1959 001c 7B69     		ldr	r3, [r7, #20]
 1960 001e 002B     		cmp	r3, #0
 1961 0020 46D0     		beq	.L119
 895:Middlewares/Third_Party/FreeRTOS/Source/CMSIS_RTOS/cmsis_os.c ****     thePool->pool_sz = pool_def->pool_sz;
 1962              		.loc 1 895 32
 1963 0022 7B68     		ldr	r3, [r7, #4]
 1964 0024 1A68     		ldr	r2, [r3]
 1965              		.loc 1 895 22
 1966 0026 7B69     		ldr	r3, [r7, #20]
 1967 0028 9A60     		str	r2, [r3, #8]
ARM GAS  /tmp/cc4ZeGpA.s 			page 54


 896:Middlewares/Third_Party/FreeRTOS/Source/CMSIS_RTOS/cmsis_os.c ****     thePool->item_sz = itemSize;
 1968              		.loc 1 896 22
 1969 002a FA68     		ldr	r2, [r7, #12]
 1970 002c 7B69     		ldr	r3, [r7, #20]
 1971 002e DA60     		str	r2, [r3, #12]
 897:Middlewares/Third_Party/FreeRTOS/Source/CMSIS_RTOS/cmsis_os.c ****     thePool->currentIndex = 0;
 1972              		.loc 1 897 27
 1973 0030 7B69     		ldr	r3, [r7, #20]
 1974 0032 0022     		movs	r2, #0
 1975 0034 1A61     		str	r2, [r3, #16]
 898:Middlewares/Third_Party/FreeRTOS/Source/CMSIS_RTOS/cmsis_os.c ****     
 899:Middlewares/Third_Party/FreeRTOS/Source/CMSIS_RTOS/cmsis_os.c ****     /* Memory for markers */
 900:Middlewares/Third_Party/FreeRTOS/Source/CMSIS_RTOS/cmsis_os.c ****     thePool->markers = pvPortMalloc(pool_def->pool_sz);
 1976              		.loc 1 900 45
 1977 0036 7B68     		ldr	r3, [r7, #4]
 1978 0038 1B68     		ldr	r3, [r3]
 1979              		.loc 1 900 24
 1980 003a 1846     		mov	r0, r3
 1981 003c FFF7FEFF 		bl	pvPortMalloc
 1982 0040 0246     		mov	r2, r0
 1983              		.loc 1 900 22
 1984 0042 7B69     		ldr	r3, [r7, #20]
 1985 0044 5A60     		str	r2, [r3, #4]
 901:Middlewares/Third_Party/FreeRTOS/Source/CMSIS_RTOS/cmsis_os.c ****    
 902:Middlewares/Third_Party/FreeRTOS/Source/CMSIS_RTOS/cmsis_os.c ****     if (thePool->markers) {
 1986              		.loc 1 902 16
 1987 0046 7B69     		ldr	r3, [r7, #20]
 1988 0048 5B68     		ldr	r3, [r3, #4]
 1989              		.loc 1 902 8
 1990 004a 002B     		cmp	r3, #0
 1991 004c 2BD0     		beq	.L120
 903:Middlewares/Third_Party/FreeRTOS/Source/CMSIS_RTOS/cmsis_os.c ****       /* Now allocate the pool itself. */
 904:Middlewares/Third_Party/FreeRTOS/Source/CMSIS_RTOS/cmsis_os.c ****      thePool->pool = pvPortMalloc(pool_def->pool_sz * itemSize);
 1992              		.loc 1 904 43
 1993 004e 7B68     		ldr	r3, [r7, #4]
 1994 0050 1B68     		ldr	r3, [r3]
 1995              		.loc 1 904 22
 1996 0052 FA68     		ldr	r2, [r7, #12]
 1997              		.loc 1 904 53
 1998 0054 02FB03F3 		mul	r3, r2, r3
 1999              		.loc 1 904 22
 2000 0058 1846     		mov	r0, r3
 2001 005a FFF7FEFF 		bl	pvPortMalloc
 2002 005e 0246     		mov	r2, r0
 2003              		.loc 1 904 20
 2004 0060 7B69     		ldr	r3, [r7, #20]
 2005 0062 1A60     		str	r2, [r3]
 905:Middlewares/Third_Party/FreeRTOS/Source/CMSIS_RTOS/cmsis_os.c ****       
 906:Middlewares/Third_Party/FreeRTOS/Source/CMSIS_RTOS/cmsis_os.c ****       if (thePool->pool) {
 2006              		.loc 1 906 18
 2007 0064 7B69     		ldr	r3, [r7, #20]
 2008 0066 1B68     		ldr	r3, [r3]
 2009              		.loc 1 906 10
 2010 0068 002B     		cmp	r3, #0
 2011 006a 11D0     		beq	.L121
 907:Middlewares/Third_Party/FreeRTOS/Source/CMSIS_RTOS/cmsis_os.c ****         for (i = 0; i < pool_def->pool_sz; i++) {
 2012              		.loc 1 907 16
ARM GAS  /tmp/cc4ZeGpA.s 			page 55


 2013 006c 0023     		movs	r3, #0
 2014 006e 3B61     		str	r3, [r7, #16]
 2015              		.loc 1 907 9
 2016 0070 08E0     		b	.L122
 2017              	.L123:
 908:Middlewares/Third_Party/FreeRTOS/Source/CMSIS_RTOS/cmsis_os.c ****           thePool->markers[i] = 0;
 2018              		.loc 1 908 18 discriminator 3
 2019 0072 7B69     		ldr	r3, [r7, #20]
 2020 0074 5A68     		ldr	r2, [r3, #4]
 2021              		.loc 1 908 27 discriminator 3
 2022 0076 3B69     		ldr	r3, [r7, #16]
 2023 0078 1344     		add	r3, r3, r2
 2024              		.loc 1 908 31 discriminator 3
 2025 007a 0022     		movs	r2, #0
 2026 007c 1A70     		strb	r2, [r3]
 907:Middlewares/Third_Party/FreeRTOS/Source/CMSIS_RTOS/cmsis_os.c ****         for (i = 0; i < pool_def->pool_sz; i++) {
 2027              		.loc 1 907 45 discriminator 3
 2028 007e 3B69     		ldr	r3, [r7, #16]
 2029 0080 0133     		adds	r3, r3, #1
 2030 0082 3B61     		str	r3, [r7, #16]
 2031              	.L122:
 907:Middlewares/Third_Party/FreeRTOS/Source/CMSIS_RTOS/cmsis_os.c ****         for (i = 0; i < pool_def->pool_sz; i++) {
 2032              		.loc 1 907 33 discriminator 1
 2033 0084 7B68     		ldr	r3, [r7, #4]
 2034 0086 1B68     		ldr	r3, [r3]
 907:Middlewares/Third_Party/FreeRTOS/Source/CMSIS_RTOS/cmsis_os.c ****         for (i = 0; i < pool_def->pool_sz; i++) {
 2035              		.loc 1 907 9 discriminator 1
 2036 0088 3A69     		ldr	r2, [r7, #16]
 2037 008a 9A42     		cmp	r2, r3
 2038 008c F1D3     		bcc	.L123
 2039 008e 0FE0     		b	.L119
 2040              	.L121:
 909:Middlewares/Third_Party/FreeRTOS/Source/CMSIS_RTOS/cmsis_os.c ****         }
 910:Middlewares/Third_Party/FreeRTOS/Source/CMSIS_RTOS/cmsis_os.c ****       }
 911:Middlewares/Third_Party/FreeRTOS/Source/CMSIS_RTOS/cmsis_os.c ****       else {
 912:Middlewares/Third_Party/FreeRTOS/Source/CMSIS_RTOS/cmsis_os.c ****         vPortFree(thePool->markers);
 2041              		.loc 1 912 26
 2042 0090 7B69     		ldr	r3, [r7, #20]
 2043 0092 5B68     		ldr	r3, [r3, #4]
 2044              		.loc 1 912 9
 2045 0094 1846     		mov	r0, r3
 2046 0096 FFF7FEFF 		bl	vPortFree
 913:Middlewares/Third_Party/FreeRTOS/Source/CMSIS_RTOS/cmsis_os.c ****         vPortFree(thePool);
 2047              		.loc 1 913 9
 2048 009a 7869     		ldr	r0, [r7, #20]
 2049 009c FFF7FEFF 		bl	vPortFree
 914:Middlewares/Third_Party/FreeRTOS/Source/CMSIS_RTOS/cmsis_os.c ****         thePool = NULL;
 2050              		.loc 1 914 17
 2051 00a0 0023     		movs	r3, #0
 2052 00a2 7B61     		str	r3, [r7, #20]
 2053 00a4 04E0     		b	.L119
 2054              	.L120:
 915:Middlewares/Third_Party/FreeRTOS/Source/CMSIS_RTOS/cmsis_os.c ****       }
 916:Middlewares/Third_Party/FreeRTOS/Source/CMSIS_RTOS/cmsis_os.c ****     }
 917:Middlewares/Third_Party/FreeRTOS/Source/CMSIS_RTOS/cmsis_os.c ****     else {
 918:Middlewares/Third_Party/FreeRTOS/Source/CMSIS_RTOS/cmsis_os.c ****       vPortFree(thePool);
 2055              		.loc 1 918 7
ARM GAS  /tmp/cc4ZeGpA.s 			page 56


 2056 00a6 7869     		ldr	r0, [r7, #20]
 2057 00a8 FFF7FEFF 		bl	vPortFree
 919:Middlewares/Third_Party/FreeRTOS/Source/CMSIS_RTOS/cmsis_os.c ****       thePool = NULL;
 2058              		.loc 1 919 15
 2059 00ac 0023     		movs	r3, #0
 2060 00ae 7B61     		str	r3, [r7, #20]
 2061              	.L119:
 920:Middlewares/Third_Party/FreeRTOS/Source/CMSIS_RTOS/cmsis_os.c ****     }
 921:Middlewares/Third_Party/FreeRTOS/Source/CMSIS_RTOS/cmsis_os.c ****   }
 922:Middlewares/Third_Party/FreeRTOS/Source/CMSIS_RTOS/cmsis_os.c **** 
 923:Middlewares/Third_Party/FreeRTOS/Source/CMSIS_RTOS/cmsis_os.c ****   return thePool;
 2062              		.loc 1 923 10
 2063 00b0 7B69     		ldr	r3, [r7, #20]
 924:Middlewares/Third_Party/FreeRTOS/Source/CMSIS_RTOS/cmsis_os.c ****  
 925:Middlewares/Third_Party/FreeRTOS/Source/CMSIS_RTOS/cmsis_os.c **** #else
 926:Middlewares/Third_Party/FreeRTOS/Source/CMSIS_RTOS/cmsis_os.c ****   return NULL;
 927:Middlewares/Third_Party/FreeRTOS/Source/CMSIS_RTOS/cmsis_os.c **** #endif
 928:Middlewares/Third_Party/FreeRTOS/Source/CMSIS_RTOS/cmsis_os.c **** }
 2064              		.loc 1 928 1
 2065 00b2 1846     		mov	r0, r3
 2066 00b4 1837     		adds	r7, r7, #24
 2067              	.LCFI132:
 2068              		.cfi_def_cfa_offset 8
 2069 00b6 BD46     		mov	sp, r7
 2070              	.LCFI133:
 2071              		.cfi_def_cfa_register 13
 2072              		@ sp needed
 2073 00b8 80BD     		pop	{r7, pc}
 2074              		.cfi_endproc
 2075              	.LFE134:
 2077              		.section	.text.osPoolAlloc,"ax",%progbits
 2078              		.align	1
 2079              		.global	osPoolAlloc
 2080              		.syntax unified
 2081              		.thumb
 2082              		.thumb_func
 2083              		.fpu fpv5-d16
 2085              	osPoolAlloc:
 2086              	.LFB135:
 929:Middlewares/Third_Party/FreeRTOS/Source/CMSIS_RTOS/cmsis_os.c **** 
 930:Middlewares/Third_Party/FreeRTOS/Source/CMSIS_RTOS/cmsis_os.c **** /**
 931:Middlewares/Third_Party/FreeRTOS/Source/CMSIS_RTOS/cmsis_os.c **** * @brief Allocate a memory block from a memory pool
 932:Middlewares/Third_Party/FreeRTOS/Source/CMSIS_RTOS/cmsis_os.c **** * @param pool_id       memory pool ID obtain referenced with \ref osPoolCreate.
 933:Middlewares/Third_Party/FreeRTOS/Source/CMSIS_RTOS/cmsis_os.c **** * @retval  address of the allocated memory block or NULL in case of no memory available.
 934:Middlewares/Third_Party/FreeRTOS/Source/CMSIS_RTOS/cmsis_os.c **** * @note   MUST REMAIN UNCHANGED: \b osPoolAlloc shall be consistent in every CMSIS-RTOS.
 935:Middlewares/Third_Party/FreeRTOS/Source/CMSIS_RTOS/cmsis_os.c **** */
 936:Middlewares/Third_Party/FreeRTOS/Source/CMSIS_RTOS/cmsis_os.c **** void *osPoolAlloc (osPoolId pool_id)
 937:Middlewares/Third_Party/FreeRTOS/Source/CMSIS_RTOS/cmsis_os.c **** {
 2087              		.loc 1 937 1
 2088              		.cfi_startproc
 2089              		@ args = 0, pretend = 0, frame = 40
 2090              		@ frame_needed = 1, uses_anonymous_args = 0
 2091 0000 80B5     		push	{r7, lr}
 2092              	.LCFI134:
 2093              		.cfi_def_cfa_offset 8
 2094              		.cfi_offset 7, -8
 2095              		.cfi_offset 14, -4
ARM GAS  /tmp/cc4ZeGpA.s 			page 57


 2096 0002 8AB0     		sub	sp, sp, #40
 2097              	.LCFI135:
 2098              		.cfi_def_cfa_offset 48
 2099 0004 00AF     		add	r7, sp, #0
 2100              	.LCFI136:
 2101              		.cfi_def_cfa_register 7
 2102 0006 7860     		str	r0, [r7, #4]
 938:Middlewares/Third_Party/FreeRTOS/Source/CMSIS_RTOS/cmsis_os.c ****   int dummy = 0;
 2103              		.loc 1 938 7
 2104 0008 0023     		movs	r3, #0
 2105 000a 7B62     		str	r3, [r7, #36]
 939:Middlewares/Third_Party/FreeRTOS/Source/CMSIS_RTOS/cmsis_os.c ****   void *p = NULL;
 2106              		.loc 1 939 9
 2107 000c 0023     		movs	r3, #0
 2108 000e 3B62     		str	r3, [r7, #32]
 940:Middlewares/Third_Party/FreeRTOS/Source/CMSIS_RTOS/cmsis_os.c ****   uint32_t i;
 941:Middlewares/Third_Party/FreeRTOS/Source/CMSIS_RTOS/cmsis_os.c ****   uint32_t index;
 942:Middlewares/Third_Party/FreeRTOS/Source/CMSIS_RTOS/cmsis_os.c ****   
 943:Middlewares/Third_Party/FreeRTOS/Source/CMSIS_RTOS/cmsis_os.c ****   if (inHandlerMode()) {
 2109              		.loc 1 943 7
 2110 0010 FFF7FEFF 		bl	inHandlerMode
 2111 0014 0346     		mov	r3, r0
 2112              		.loc 1 943 6
 2113 0016 002B     		cmp	r3, #0
 2114 0018 10D0     		beq	.L126
 2115              	.LBB10:
 2116              	.LBB11:
 2117              		.file 3 "Middlewares/Third_Party/FreeRTOS/Source/portable/GCC/ARM_CM7/r0p1/portmacro.h"
   1:Middlewares/Third_Party/FreeRTOS/Source/portable/GCC/ARM_CM7/r0p1/portmacro.h **** /*
   2:Middlewares/Third_Party/FreeRTOS/Source/portable/GCC/ARM_CM7/r0p1/portmacro.h ****  * FreeRTOS Kernel V10.2.1
   3:Middlewares/Third_Party/FreeRTOS/Source/portable/GCC/ARM_CM7/r0p1/portmacro.h ****  * Copyright (C) 2019 Amazon.com, Inc. or its affiliates.  All Rights Reserved.
   4:Middlewares/Third_Party/FreeRTOS/Source/portable/GCC/ARM_CM7/r0p1/portmacro.h ****  *
   5:Middlewares/Third_Party/FreeRTOS/Source/portable/GCC/ARM_CM7/r0p1/portmacro.h ****  * Permission is hereby granted, free of charge, to any person obtaining a copy of
   6:Middlewares/Third_Party/FreeRTOS/Source/portable/GCC/ARM_CM7/r0p1/portmacro.h ****  * this software and associated documentation files (the "Software"), to deal in
   7:Middlewares/Third_Party/FreeRTOS/Source/portable/GCC/ARM_CM7/r0p1/portmacro.h ****  * the Software without restriction, including without limitation the rights to
   8:Middlewares/Third_Party/FreeRTOS/Source/portable/GCC/ARM_CM7/r0p1/portmacro.h ****  * use, copy, modify, merge, publish, distribute, sublicense, and/or sell copies of
   9:Middlewares/Third_Party/FreeRTOS/Source/portable/GCC/ARM_CM7/r0p1/portmacro.h ****  * the Software, and to permit persons to whom the Software is furnished to do so,
  10:Middlewares/Third_Party/FreeRTOS/Source/portable/GCC/ARM_CM7/r0p1/portmacro.h ****  * subject to the following conditions:
  11:Middlewares/Third_Party/FreeRTOS/Source/portable/GCC/ARM_CM7/r0p1/portmacro.h ****  *
  12:Middlewares/Third_Party/FreeRTOS/Source/portable/GCC/ARM_CM7/r0p1/portmacro.h ****  * The above copyright notice and this permission notice shall be included in all
  13:Middlewares/Third_Party/FreeRTOS/Source/portable/GCC/ARM_CM7/r0p1/portmacro.h ****  * copies or substantial portions of the Software.
  14:Middlewares/Third_Party/FreeRTOS/Source/portable/GCC/ARM_CM7/r0p1/portmacro.h ****  *
  15:Middlewares/Third_Party/FreeRTOS/Source/portable/GCC/ARM_CM7/r0p1/portmacro.h ****  * THE SOFTWARE IS PROVIDED "AS IS", WITHOUT WARRANTY OF ANY KIND, EXPRESS OR
  16:Middlewares/Third_Party/FreeRTOS/Source/portable/GCC/ARM_CM7/r0p1/portmacro.h ****  * IMPLIED, INCLUDING BUT NOT LIMITED TO THE WARRANTIES OF MERCHANTABILITY, FITNESS
  17:Middlewares/Third_Party/FreeRTOS/Source/portable/GCC/ARM_CM7/r0p1/portmacro.h ****  * FOR A PARTICULAR PURPOSE AND NONINFRINGEMENT. IN NO EVENT SHALL THE AUTHORS OR
  18:Middlewares/Third_Party/FreeRTOS/Source/portable/GCC/ARM_CM7/r0p1/portmacro.h ****  * COPYRIGHT HOLDERS BE LIABLE FOR ANY CLAIM, DAMAGES OR OTHER LIABILITY, WHETHER
  19:Middlewares/Third_Party/FreeRTOS/Source/portable/GCC/ARM_CM7/r0p1/portmacro.h ****  * IN AN ACTION OF CONTRACT, TORT OR OTHERWISE, ARISING FROM, OUT OF OR IN
  20:Middlewares/Third_Party/FreeRTOS/Source/portable/GCC/ARM_CM7/r0p1/portmacro.h ****  * CONNECTION WITH THE SOFTWARE OR THE USE OR OTHER DEALINGS IN THE SOFTWARE.
  21:Middlewares/Third_Party/FreeRTOS/Source/portable/GCC/ARM_CM7/r0p1/portmacro.h ****  *
  22:Middlewares/Third_Party/FreeRTOS/Source/portable/GCC/ARM_CM7/r0p1/portmacro.h ****  * http://www.FreeRTOS.org
  23:Middlewares/Third_Party/FreeRTOS/Source/portable/GCC/ARM_CM7/r0p1/portmacro.h ****  * http://aws.amazon.com/freertos
  24:Middlewares/Third_Party/FreeRTOS/Source/portable/GCC/ARM_CM7/r0p1/portmacro.h ****  *
  25:Middlewares/Third_Party/FreeRTOS/Source/portable/GCC/ARM_CM7/r0p1/portmacro.h ****  * 1 tab == 4 spaces!
  26:Middlewares/Third_Party/FreeRTOS/Source/portable/GCC/ARM_CM7/r0p1/portmacro.h ****  */
  27:Middlewares/Third_Party/FreeRTOS/Source/portable/GCC/ARM_CM7/r0p1/portmacro.h **** 
  28:Middlewares/Third_Party/FreeRTOS/Source/portable/GCC/ARM_CM7/r0p1/portmacro.h **** 
  29:Middlewares/Third_Party/FreeRTOS/Source/portable/GCC/ARM_CM7/r0p1/portmacro.h **** #ifndef PORTMACRO_H
ARM GAS  /tmp/cc4ZeGpA.s 			page 58


  30:Middlewares/Third_Party/FreeRTOS/Source/portable/GCC/ARM_CM7/r0p1/portmacro.h **** #define PORTMACRO_H
  31:Middlewares/Third_Party/FreeRTOS/Source/portable/GCC/ARM_CM7/r0p1/portmacro.h **** 
  32:Middlewares/Third_Party/FreeRTOS/Source/portable/GCC/ARM_CM7/r0p1/portmacro.h **** #ifdef __cplusplus
  33:Middlewares/Third_Party/FreeRTOS/Source/portable/GCC/ARM_CM7/r0p1/portmacro.h **** extern "C" {
  34:Middlewares/Third_Party/FreeRTOS/Source/portable/GCC/ARM_CM7/r0p1/portmacro.h **** #endif
  35:Middlewares/Third_Party/FreeRTOS/Source/portable/GCC/ARM_CM7/r0p1/portmacro.h **** 
  36:Middlewares/Third_Party/FreeRTOS/Source/portable/GCC/ARM_CM7/r0p1/portmacro.h **** /*-----------------------------------------------------------
  37:Middlewares/Third_Party/FreeRTOS/Source/portable/GCC/ARM_CM7/r0p1/portmacro.h ****  * Port specific definitions.
  38:Middlewares/Third_Party/FreeRTOS/Source/portable/GCC/ARM_CM7/r0p1/portmacro.h ****  *
  39:Middlewares/Third_Party/FreeRTOS/Source/portable/GCC/ARM_CM7/r0p1/portmacro.h ****  * The settings in this file configure FreeRTOS correctly for the
  40:Middlewares/Third_Party/FreeRTOS/Source/portable/GCC/ARM_CM7/r0p1/portmacro.h ****  * given hardware and compiler.
  41:Middlewares/Third_Party/FreeRTOS/Source/portable/GCC/ARM_CM7/r0p1/portmacro.h ****  *
  42:Middlewares/Third_Party/FreeRTOS/Source/portable/GCC/ARM_CM7/r0p1/portmacro.h ****  * These settings should not be altered.
  43:Middlewares/Third_Party/FreeRTOS/Source/portable/GCC/ARM_CM7/r0p1/portmacro.h ****  *-----------------------------------------------------------
  44:Middlewares/Third_Party/FreeRTOS/Source/portable/GCC/ARM_CM7/r0p1/portmacro.h ****  */
  45:Middlewares/Third_Party/FreeRTOS/Source/portable/GCC/ARM_CM7/r0p1/portmacro.h **** 
  46:Middlewares/Third_Party/FreeRTOS/Source/portable/GCC/ARM_CM7/r0p1/portmacro.h **** /* Type definitions. */
  47:Middlewares/Third_Party/FreeRTOS/Source/portable/GCC/ARM_CM7/r0p1/portmacro.h **** #define portCHAR		char
  48:Middlewares/Third_Party/FreeRTOS/Source/portable/GCC/ARM_CM7/r0p1/portmacro.h **** #define portFLOAT		float
  49:Middlewares/Third_Party/FreeRTOS/Source/portable/GCC/ARM_CM7/r0p1/portmacro.h **** #define portDOUBLE		double
  50:Middlewares/Third_Party/FreeRTOS/Source/portable/GCC/ARM_CM7/r0p1/portmacro.h **** #define portLONG		long
  51:Middlewares/Third_Party/FreeRTOS/Source/portable/GCC/ARM_CM7/r0p1/portmacro.h **** #define portSHORT		short
  52:Middlewares/Third_Party/FreeRTOS/Source/portable/GCC/ARM_CM7/r0p1/portmacro.h **** #define portSTACK_TYPE	uint32_t
  53:Middlewares/Third_Party/FreeRTOS/Source/portable/GCC/ARM_CM7/r0p1/portmacro.h **** #define portBASE_TYPE	long
  54:Middlewares/Third_Party/FreeRTOS/Source/portable/GCC/ARM_CM7/r0p1/portmacro.h **** 
  55:Middlewares/Third_Party/FreeRTOS/Source/portable/GCC/ARM_CM7/r0p1/portmacro.h **** typedef portSTACK_TYPE StackType_t;
  56:Middlewares/Third_Party/FreeRTOS/Source/portable/GCC/ARM_CM7/r0p1/portmacro.h **** typedef long BaseType_t;
  57:Middlewares/Third_Party/FreeRTOS/Source/portable/GCC/ARM_CM7/r0p1/portmacro.h **** typedef unsigned long UBaseType_t;
  58:Middlewares/Third_Party/FreeRTOS/Source/portable/GCC/ARM_CM7/r0p1/portmacro.h **** 
  59:Middlewares/Third_Party/FreeRTOS/Source/portable/GCC/ARM_CM7/r0p1/portmacro.h **** #if( configUSE_16_BIT_TICKS == 1 )
  60:Middlewares/Third_Party/FreeRTOS/Source/portable/GCC/ARM_CM7/r0p1/portmacro.h **** 	typedef uint16_t TickType_t;
  61:Middlewares/Third_Party/FreeRTOS/Source/portable/GCC/ARM_CM7/r0p1/portmacro.h **** 	#define portMAX_DELAY ( TickType_t ) 0xffff
  62:Middlewares/Third_Party/FreeRTOS/Source/portable/GCC/ARM_CM7/r0p1/portmacro.h **** #else
  63:Middlewares/Third_Party/FreeRTOS/Source/portable/GCC/ARM_CM7/r0p1/portmacro.h **** 	typedef uint32_t TickType_t;
  64:Middlewares/Third_Party/FreeRTOS/Source/portable/GCC/ARM_CM7/r0p1/portmacro.h **** 	#define portMAX_DELAY ( TickType_t ) 0xffffffffUL
  65:Middlewares/Third_Party/FreeRTOS/Source/portable/GCC/ARM_CM7/r0p1/portmacro.h **** 
  66:Middlewares/Third_Party/FreeRTOS/Source/portable/GCC/ARM_CM7/r0p1/portmacro.h **** 	/* 32-bit tick type on a 32-bit architecture, so reads of the tick count do
  67:Middlewares/Third_Party/FreeRTOS/Source/portable/GCC/ARM_CM7/r0p1/portmacro.h **** 	not need to be guarded with a critical section. */
  68:Middlewares/Third_Party/FreeRTOS/Source/portable/GCC/ARM_CM7/r0p1/portmacro.h **** 	#define portTICK_TYPE_IS_ATOMIC 1
  69:Middlewares/Third_Party/FreeRTOS/Source/portable/GCC/ARM_CM7/r0p1/portmacro.h **** #endif
  70:Middlewares/Third_Party/FreeRTOS/Source/portable/GCC/ARM_CM7/r0p1/portmacro.h **** /*-----------------------------------------------------------*/
  71:Middlewares/Third_Party/FreeRTOS/Source/portable/GCC/ARM_CM7/r0p1/portmacro.h **** 
  72:Middlewares/Third_Party/FreeRTOS/Source/portable/GCC/ARM_CM7/r0p1/portmacro.h **** /* Architecture specifics. */
  73:Middlewares/Third_Party/FreeRTOS/Source/portable/GCC/ARM_CM7/r0p1/portmacro.h **** #define portSTACK_GROWTH			( -1 )
  74:Middlewares/Third_Party/FreeRTOS/Source/portable/GCC/ARM_CM7/r0p1/portmacro.h **** #define portTICK_PERIOD_MS			( ( TickType_t ) 1000 / configTICK_RATE_HZ )
  75:Middlewares/Third_Party/FreeRTOS/Source/portable/GCC/ARM_CM7/r0p1/portmacro.h **** #define portBYTE_ALIGNMENT			8
  76:Middlewares/Third_Party/FreeRTOS/Source/portable/GCC/ARM_CM7/r0p1/portmacro.h **** /*-----------------------------------------------------------*/
  77:Middlewares/Third_Party/FreeRTOS/Source/portable/GCC/ARM_CM7/r0p1/portmacro.h **** 
  78:Middlewares/Third_Party/FreeRTOS/Source/portable/GCC/ARM_CM7/r0p1/portmacro.h **** /* Scheduler utilities. */
  79:Middlewares/Third_Party/FreeRTOS/Source/portable/GCC/ARM_CM7/r0p1/portmacro.h **** #define portYIELD() 															\
  80:Middlewares/Third_Party/FreeRTOS/Source/portable/GCC/ARM_CM7/r0p1/portmacro.h **** {																				\
  81:Middlewares/Third_Party/FreeRTOS/Source/portable/GCC/ARM_CM7/r0p1/portmacro.h **** 	/* Set a PendSV to request a context switch. */								\
  82:Middlewares/Third_Party/FreeRTOS/Source/portable/GCC/ARM_CM7/r0p1/portmacro.h **** 	portNVIC_INT_CTRL_REG = portNVIC_PENDSVSET_BIT;								\
  83:Middlewares/Third_Party/FreeRTOS/Source/portable/GCC/ARM_CM7/r0p1/portmacro.h **** 																				\
  84:Middlewares/Third_Party/FreeRTOS/Source/portable/GCC/ARM_CM7/r0p1/portmacro.h **** 	/* Barriers are normally not required but do ensure the code is completely	\
  85:Middlewares/Third_Party/FreeRTOS/Source/portable/GCC/ARM_CM7/r0p1/portmacro.h **** 	within the specified behaviour for the architecture. */						\
  86:Middlewares/Third_Party/FreeRTOS/Source/portable/GCC/ARM_CM7/r0p1/portmacro.h **** 	__asm volatile( "dsb" ::: "memory" );										\
ARM GAS  /tmp/cc4ZeGpA.s 			page 59


  87:Middlewares/Third_Party/FreeRTOS/Source/portable/GCC/ARM_CM7/r0p1/portmacro.h **** 	__asm volatile( "isb" );													\
  88:Middlewares/Third_Party/FreeRTOS/Source/portable/GCC/ARM_CM7/r0p1/portmacro.h **** }
  89:Middlewares/Third_Party/FreeRTOS/Source/portable/GCC/ARM_CM7/r0p1/portmacro.h **** 
  90:Middlewares/Third_Party/FreeRTOS/Source/portable/GCC/ARM_CM7/r0p1/portmacro.h **** #define portNVIC_INT_CTRL_REG		( * ( ( volatile uint32_t * ) 0xe000ed04 ) )
  91:Middlewares/Third_Party/FreeRTOS/Source/portable/GCC/ARM_CM7/r0p1/portmacro.h **** #define portNVIC_PENDSVSET_BIT		( 1UL << 28UL )
  92:Middlewares/Third_Party/FreeRTOS/Source/portable/GCC/ARM_CM7/r0p1/portmacro.h **** #define portEND_SWITCHING_ISR( xSwitchRequired ) if( xSwitchRequired != pdFALSE ) portYIELD()
  93:Middlewares/Third_Party/FreeRTOS/Source/portable/GCC/ARM_CM7/r0p1/portmacro.h **** #define portYIELD_FROM_ISR( x ) portEND_SWITCHING_ISR( x )
  94:Middlewares/Third_Party/FreeRTOS/Source/portable/GCC/ARM_CM7/r0p1/portmacro.h **** /*-----------------------------------------------------------*/
  95:Middlewares/Third_Party/FreeRTOS/Source/portable/GCC/ARM_CM7/r0p1/portmacro.h **** 
  96:Middlewares/Third_Party/FreeRTOS/Source/portable/GCC/ARM_CM7/r0p1/portmacro.h **** /* Critical section management. */
  97:Middlewares/Third_Party/FreeRTOS/Source/portable/GCC/ARM_CM7/r0p1/portmacro.h **** extern void vPortEnterCritical( void );
  98:Middlewares/Third_Party/FreeRTOS/Source/portable/GCC/ARM_CM7/r0p1/portmacro.h **** extern void vPortExitCritical( void );
  99:Middlewares/Third_Party/FreeRTOS/Source/portable/GCC/ARM_CM7/r0p1/portmacro.h **** #define portSET_INTERRUPT_MASK_FROM_ISR()		ulPortRaiseBASEPRI()
 100:Middlewares/Third_Party/FreeRTOS/Source/portable/GCC/ARM_CM7/r0p1/portmacro.h **** #define portCLEAR_INTERRUPT_MASK_FROM_ISR(x)	vPortSetBASEPRI(x)
 101:Middlewares/Third_Party/FreeRTOS/Source/portable/GCC/ARM_CM7/r0p1/portmacro.h **** #define portDISABLE_INTERRUPTS()				vPortRaiseBASEPRI()
 102:Middlewares/Third_Party/FreeRTOS/Source/portable/GCC/ARM_CM7/r0p1/portmacro.h **** #define portENABLE_INTERRUPTS()					vPortSetBASEPRI(0)
 103:Middlewares/Third_Party/FreeRTOS/Source/portable/GCC/ARM_CM7/r0p1/portmacro.h **** #define portENTER_CRITICAL()					vPortEnterCritical()
 104:Middlewares/Third_Party/FreeRTOS/Source/portable/GCC/ARM_CM7/r0p1/portmacro.h **** #define portEXIT_CRITICAL()						vPortExitCritical()
 105:Middlewares/Third_Party/FreeRTOS/Source/portable/GCC/ARM_CM7/r0p1/portmacro.h **** 
 106:Middlewares/Third_Party/FreeRTOS/Source/portable/GCC/ARM_CM7/r0p1/portmacro.h **** /*-----------------------------------------------------------*/
 107:Middlewares/Third_Party/FreeRTOS/Source/portable/GCC/ARM_CM7/r0p1/portmacro.h **** 
 108:Middlewares/Third_Party/FreeRTOS/Source/portable/GCC/ARM_CM7/r0p1/portmacro.h **** /* Task function macros as described on the FreeRTOS.org WEB site.  These are
 109:Middlewares/Third_Party/FreeRTOS/Source/portable/GCC/ARM_CM7/r0p1/portmacro.h **** not necessary for to use this port.  They are defined so the common demo files
 110:Middlewares/Third_Party/FreeRTOS/Source/portable/GCC/ARM_CM7/r0p1/portmacro.h **** (which build with all the ports) will build. */
 111:Middlewares/Third_Party/FreeRTOS/Source/portable/GCC/ARM_CM7/r0p1/portmacro.h **** #define portTASK_FUNCTION_PROTO( vFunction, pvParameters ) void vFunction( void *pvParameters )
 112:Middlewares/Third_Party/FreeRTOS/Source/portable/GCC/ARM_CM7/r0p1/portmacro.h **** #define portTASK_FUNCTION( vFunction, pvParameters ) void vFunction( void *pvParameters )
 113:Middlewares/Third_Party/FreeRTOS/Source/portable/GCC/ARM_CM7/r0p1/portmacro.h **** /*-----------------------------------------------------------*/
 114:Middlewares/Third_Party/FreeRTOS/Source/portable/GCC/ARM_CM7/r0p1/portmacro.h **** 
 115:Middlewares/Third_Party/FreeRTOS/Source/portable/GCC/ARM_CM7/r0p1/portmacro.h **** /* Tickless idle/low power functionality. */
 116:Middlewares/Third_Party/FreeRTOS/Source/portable/GCC/ARM_CM7/r0p1/portmacro.h **** #ifndef portSUPPRESS_TICKS_AND_SLEEP
 117:Middlewares/Third_Party/FreeRTOS/Source/portable/GCC/ARM_CM7/r0p1/portmacro.h **** 	extern void vPortSuppressTicksAndSleep( TickType_t xExpectedIdleTime );
 118:Middlewares/Third_Party/FreeRTOS/Source/portable/GCC/ARM_CM7/r0p1/portmacro.h **** 	#define portSUPPRESS_TICKS_AND_SLEEP( xExpectedIdleTime ) vPortSuppressTicksAndSleep( xExpectedIdl
 119:Middlewares/Third_Party/FreeRTOS/Source/portable/GCC/ARM_CM7/r0p1/portmacro.h **** #endif
 120:Middlewares/Third_Party/FreeRTOS/Source/portable/GCC/ARM_CM7/r0p1/portmacro.h **** /*-----------------------------------------------------------*/
 121:Middlewares/Third_Party/FreeRTOS/Source/portable/GCC/ARM_CM7/r0p1/portmacro.h **** 
 122:Middlewares/Third_Party/FreeRTOS/Source/portable/GCC/ARM_CM7/r0p1/portmacro.h **** /* Architecture specific optimisations. */
 123:Middlewares/Third_Party/FreeRTOS/Source/portable/GCC/ARM_CM7/r0p1/portmacro.h **** #ifndef configUSE_PORT_OPTIMISED_TASK_SELECTION
 124:Middlewares/Third_Party/FreeRTOS/Source/portable/GCC/ARM_CM7/r0p1/portmacro.h **** 	#define configUSE_PORT_OPTIMISED_TASK_SELECTION 1
 125:Middlewares/Third_Party/FreeRTOS/Source/portable/GCC/ARM_CM7/r0p1/portmacro.h **** #endif
 126:Middlewares/Third_Party/FreeRTOS/Source/portable/GCC/ARM_CM7/r0p1/portmacro.h **** 
 127:Middlewares/Third_Party/FreeRTOS/Source/portable/GCC/ARM_CM7/r0p1/portmacro.h **** #if configUSE_PORT_OPTIMISED_TASK_SELECTION == 1
 128:Middlewares/Third_Party/FreeRTOS/Source/portable/GCC/ARM_CM7/r0p1/portmacro.h **** 
 129:Middlewares/Third_Party/FreeRTOS/Source/portable/GCC/ARM_CM7/r0p1/portmacro.h **** 	/* Generic helper function. */
 130:Middlewares/Third_Party/FreeRTOS/Source/portable/GCC/ARM_CM7/r0p1/portmacro.h **** 	__attribute__( ( always_inline ) ) static inline uint8_t ucPortCountLeadingZeros( uint32_t ulBitma
 131:Middlewares/Third_Party/FreeRTOS/Source/portable/GCC/ARM_CM7/r0p1/portmacro.h **** 	{
 132:Middlewares/Third_Party/FreeRTOS/Source/portable/GCC/ARM_CM7/r0p1/portmacro.h **** 	uint8_t ucReturn;
 133:Middlewares/Third_Party/FreeRTOS/Source/portable/GCC/ARM_CM7/r0p1/portmacro.h **** 
 134:Middlewares/Third_Party/FreeRTOS/Source/portable/GCC/ARM_CM7/r0p1/portmacro.h **** 		__asm volatile ( "clz %0, %1" : "=r" ( ucReturn ) : "r" ( ulBitmap ) : "memory" );
 135:Middlewares/Third_Party/FreeRTOS/Source/portable/GCC/ARM_CM7/r0p1/portmacro.h **** 		return ucReturn;
 136:Middlewares/Third_Party/FreeRTOS/Source/portable/GCC/ARM_CM7/r0p1/portmacro.h **** 	}
 137:Middlewares/Third_Party/FreeRTOS/Source/portable/GCC/ARM_CM7/r0p1/portmacro.h **** 
 138:Middlewares/Third_Party/FreeRTOS/Source/portable/GCC/ARM_CM7/r0p1/portmacro.h **** 	/* Check the configuration. */
 139:Middlewares/Third_Party/FreeRTOS/Source/portable/GCC/ARM_CM7/r0p1/portmacro.h **** 	#if( configMAX_PRIORITIES > 32 )
 140:Middlewares/Third_Party/FreeRTOS/Source/portable/GCC/ARM_CM7/r0p1/portmacro.h **** 		#error configUSE_PORT_OPTIMISED_TASK_SELECTION can only be set to 1 when configMAX_PRIORITIES is 
 141:Middlewares/Third_Party/FreeRTOS/Source/portable/GCC/ARM_CM7/r0p1/portmacro.h **** 	#endif
 142:Middlewares/Third_Party/FreeRTOS/Source/portable/GCC/ARM_CM7/r0p1/portmacro.h **** 
 143:Middlewares/Third_Party/FreeRTOS/Source/portable/GCC/ARM_CM7/r0p1/portmacro.h **** 	/* Store/clear the ready priorities in a bit map. */
ARM GAS  /tmp/cc4ZeGpA.s 			page 60


 144:Middlewares/Third_Party/FreeRTOS/Source/portable/GCC/ARM_CM7/r0p1/portmacro.h **** 	#define portRECORD_READY_PRIORITY( uxPriority, uxReadyPriorities ) ( uxReadyPriorities ) |= ( 1UL 
 145:Middlewares/Third_Party/FreeRTOS/Source/portable/GCC/ARM_CM7/r0p1/portmacro.h **** 	#define portRESET_READY_PRIORITY( uxPriority, uxReadyPriorities ) ( uxReadyPriorities ) &= ~( 1UL 
 146:Middlewares/Third_Party/FreeRTOS/Source/portable/GCC/ARM_CM7/r0p1/portmacro.h **** 
 147:Middlewares/Third_Party/FreeRTOS/Source/portable/GCC/ARM_CM7/r0p1/portmacro.h **** 	/*-----------------------------------------------------------*/
 148:Middlewares/Third_Party/FreeRTOS/Source/portable/GCC/ARM_CM7/r0p1/portmacro.h **** 
 149:Middlewares/Third_Party/FreeRTOS/Source/portable/GCC/ARM_CM7/r0p1/portmacro.h **** 	#define portGET_HIGHEST_PRIORITY( uxTopPriority, uxReadyPriorities ) uxTopPriority = ( 31UL - ( ui
 150:Middlewares/Third_Party/FreeRTOS/Source/portable/GCC/ARM_CM7/r0p1/portmacro.h **** 
 151:Middlewares/Third_Party/FreeRTOS/Source/portable/GCC/ARM_CM7/r0p1/portmacro.h **** #endif /* configUSE_PORT_OPTIMISED_TASK_SELECTION */
 152:Middlewares/Third_Party/FreeRTOS/Source/portable/GCC/ARM_CM7/r0p1/portmacro.h **** 
 153:Middlewares/Third_Party/FreeRTOS/Source/portable/GCC/ARM_CM7/r0p1/portmacro.h **** /*-----------------------------------------------------------*/
 154:Middlewares/Third_Party/FreeRTOS/Source/portable/GCC/ARM_CM7/r0p1/portmacro.h **** 
 155:Middlewares/Third_Party/FreeRTOS/Source/portable/GCC/ARM_CM7/r0p1/portmacro.h **** #ifdef configASSERT
 156:Middlewares/Third_Party/FreeRTOS/Source/portable/GCC/ARM_CM7/r0p1/portmacro.h **** 	void vPortValidateInterruptPriority( void );
 157:Middlewares/Third_Party/FreeRTOS/Source/portable/GCC/ARM_CM7/r0p1/portmacro.h **** 	#define portASSERT_IF_INTERRUPT_PRIORITY_INVALID() 	vPortValidateInterruptPriority()
 158:Middlewares/Third_Party/FreeRTOS/Source/portable/GCC/ARM_CM7/r0p1/portmacro.h **** #endif
 159:Middlewares/Third_Party/FreeRTOS/Source/portable/GCC/ARM_CM7/r0p1/portmacro.h **** 
 160:Middlewares/Third_Party/FreeRTOS/Source/portable/GCC/ARM_CM7/r0p1/portmacro.h **** /* portNOP() is not required by this port. */
 161:Middlewares/Third_Party/FreeRTOS/Source/portable/GCC/ARM_CM7/r0p1/portmacro.h **** #define portNOP()
 162:Middlewares/Third_Party/FreeRTOS/Source/portable/GCC/ARM_CM7/r0p1/portmacro.h **** 
 163:Middlewares/Third_Party/FreeRTOS/Source/portable/GCC/ARM_CM7/r0p1/portmacro.h **** #define portINLINE	__inline
 164:Middlewares/Third_Party/FreeRTOS/Source/portable/GCC/ARM_CM7/r0p1/portmacro.h **** 
 165:Middlewares/Third_Party/FreeRTOS/Source/portable/GCC/ARM_CM7/r0p1/portmacro.h **** #ifndef portFORCE_INLINE
 166:Middlewares/Third_Party/FreeRTOS/Source/portable/GCC/ARM_CM7/r0p1/portmacro.h **** 	#define portFORCE_INLINE inline __attribute__(( always_inline))
 167:Middlewares/Third_Party/FreeRTOS/Source/portable/GCC/ARM_CM7/r0p1/portmacro.h **** #endif
 168:Middlewares/Third_Party/FreeRTOS/Source/portable/GCC/ARM_CM7/r0p1/portmacro.h **** 
 169:Middlewares/Third_Party/FreeRTOS/Source/portable/GCC/ARM_CM7/r0p1/portmacro.h **** portFORCE_INLINE static BaseType_t xPortIsInsideInterrupt( void )
 170:Middlewares/Third_Party/FreeRTOS/Source/portable/GCC/ARM_CM7/r0p1/portmacro.h **** {
 171:Middlewares/Third_Party/FreeRTOS/Source/portable/GCC/ARM_CM7/r0p1/portmacro.h **** uint32_t ulCurrentInterrupt;
 172:Middlewares/Third_Party/FreeRTOS/Source/portable/GCC/ARM_CM7/r0p1/portmacro.h **** BaseType_t xReturn;
 173:Middlewares/Third_Party/FreeRTOS/Source/portable/GCC/ARM_CM7/r0p1/portmacro.h **** 
 174:Middlewares/Third_Party/FreeRTOS/Source/portable/GCC/ARM_CM7/r0p1/portmacro.h **** 	/* Obtain the number of the currently executing interrupt. */
 175:Middlewares/Third_Party/FreeRTOS/Source/portable/GCC/ARM_CM7/r0p1/portmacro.h **** 	__asm volatile( "mrs %0, ipsr" : "=r"( ulCurrentInterrupt ) :: "memory" );
 176:Middlewares/Third_Party/FreeRTOS/Source/portable/GCC/ARM_CM7/r0p1/portmacro.h **** 
 177:Middlewares/Third_Party/FreeRTOS/Source/portable/GCC/ARM_CM7/r0p1/portmacro.h **** 	if( ulCurrentInterrupt == 0 )
 178:Middlewares/Third_Party/FreeRTOS/Source/portable/GCC/ARM_CM7/r0p1/portmacro.h **** 	{
 179:Middlewares/Third_Party/FreeRTOS/Source/portable/GCC/ARM_CM7/r0p1/portmacro.h **** 		xReturn = pdFALSE;
 180:Middlewares/Third_Party/FreeRTOS/Source/portable/GCC/ARM_CM7/r0p1/portmacro.h **** 	}
 181:Middlewares/Third_Party/FreeRTOS/Source/portable/GCC/ARM_CM7/r0p1/portmacro.h **** 	else
 182:Middlewares/Third_Party/FreeRTOS/Source/portable/GCC/ARM_CM7/r0p1/portmacro.h **** 	{
 183:Middlewares/Third_Party/FreeRTOS/Source/portable/GCC/ARM_CM7/r0p1/portmacro.h **** 		xReturn = pdTRUE;
 184:Middlewares/Third_Party/FreeRTOS/Source/portable/GCC/ARM_CM7/r0p1/portmacro.h **** 	}
 185:Middlewares/Third_Party/FreeRTOS/Source/portable/GCC/ARM_CM7/r0p1/portmacro.h **** 
 186:Middlewares/Third_Party/FreeRTOS/Source/portable/GCC/ARM_CM7/r0p1/portmacro.h **** 	return xReturn;
 187:Middlewares/Third_Party/FreeRTOS/Source/portable/GCC/ARM_CM7/r0p1/portmacro.h **** }
 188:Middlewares/Third_Party/FreeRTOS/Source/portable/GCC/ARM_CM7/r0p1/portmacro.h **** 
 189:Middlewares/Third_Party/FreeRTOS/Source/portable/GCC/ARM_CM7/r0p1/portmacro.h **** /*-----------------------------------------------------------*/
 190:Middlewares/Third_Party/FreeRTOS/Source/portable/GCC/ARM_CM7/r0p1/portmacro.h **** 
 191:Middlewares/Third_Party/FreeRTOS/Source/portable/GCC/ARM_CM7/r0p1/portmacro.h **** portFORCE_INLINE static void vPortRaiseBASEPRI( void )
 192:Middlewares/Third_Party/FreeRTOS/Source/portable/GCC/ARM_CM7/r0p1/portmacro.h **** {
 193:Middlewares/Third_Party/FreeRTOS/Source/portable/GCC/ARM_CM7/r0p1/portmacro.h **** uint32_t ulNewBASEPRI;
 194:Middlewares/Third_Party/FreeRTOS/Source/portable/GCC/ARM_CM7/r0p1/portmacro.h **** 
 195:Middlewares/Third_Party/FreeRTOS/Source/portable/GCC/ARM_CM7/r0p1/portmacro.h **** 	__asm volatile
 196:Middlewares/Third_Party/FreeRTOS/Source/portable/GCC/ARM_CM7/r0p1/portmacro.h **** 	(
 197:Middlewares/Third_Party/FreeRTOS/Source/portable/GCC/ARM_CM7/r0p1/portmacro.h **** 		"	mov %0, %1												\n"	\
 198:Middlewares/Third_Party/FreeRTOS/Source/portable/GCC/ARM_CM7/r0p1/portmacro.h **** 		"	cpsid i													\n" \
 199:Middlewares/Third_Party/FreeRTOS/Source/portable/GCC/ARM_CM7/r0p1/portmacro.h **** 		"	msr basepri, %0											\n" \
 200:Middlewares/Third_Party/FreeRTOS/Source/portable/GCC/ARM_CM7/r0p1/portmacro.h **** 		"	isb														\n" \
ARM GAS  /tmp/cc4ZeGpA.s 			page 61


 201:Middlewares/Third_Party/FreeRTOS/Source/portable/GCC/ARM_CM7/r0p1/portmacro.h **** 		"	dsb														\n" \
 202:Middlewares/Third_Party/FreeRTOS/Source/portable/GCC/ARM_CM7/r0p1/portmacro.h **** 		"	cpsie i													\n" \
 203:Middlewares/Third_Party/FreeRTOS/Source/portable/GCC/ARM_CM7/r0p1/portmacro.h **** 		:"=r" (ulNewBASEPRI) : "i" ( configMAX_SYSCALL_INTERRUPT_PRIORITY ) : "memory"
 204:Middlewares/Third_Party/FreeRTOS/Source/portable/GCC/ARM_CM7/r0p1/portmacro.h **** 	);
 205:Middlewares/Third_Party/FreeRTOS/Source/portable/GCC/ARM_CM7/r0p1/portmacro.h **** }
 206:Middlewares/Third_Party/FreeRTOS/Source/portable/GCC/ARM_CM7/r0p1/portmacro.h **** 
 207:Middlewares/Third_Party/FreeRTOS/Source/portable/GCC/ARM_CM7/r0p1/portmacro.h **** /*-----------------------------------------------------------*/
 208:Middlewares/Third_Party/FreeRTOS/Source/portable/GCC/ARM_CM7/r0p1/portmacro.h **** 
 209:Middlewares/Third_Party/FreeRTOS/Source/portable/GCC/ARM_CM7/r0p1/portmacro.h **** portFORCE_INLINE static uint32_t ulPortRaiseBASEPRI( void )
 210:Middlewares/Third_Party/FreeRTOS/Source/portable/GCC/ARM_CM7/r0p1/portmacro.h **** {
 211:Middlewares/Third_Party/FreeRTOS/Source/portable/GCC/ARM_CM7/r0p1/portmacro.h **** uint32_t ulOriginalBASEPRI, ulNewBASEPRI;
 212:Middlewares/Third_Party/FreeRTOS/Source/portable/GCC/ARM_CM7/r0p1/portmacro.h **** 
 213:Middlewares/Third_Party/FreeRTOS/Source/portable/GCC/ARM_CM7/r0p1/portmacro.h **** 	__asm volatile
 2118              		.loc 3 213 2
 2119              		.syntax unified
 2120              	@ 213 "Middlewares/Third_Party/FreeRTOS/Source/portable/GCC/ARM_CM7/r0p1/portmacro.h" 1
 2121 001a EFF31182 			mrs r2, basepri											
 2122 001e 4FF05003 		mov r3, #80												
 2123 0022 72B6     		cpsid i													
 2124 0024 83F31188 		msr basepri, r3											
 2125 0028 BFF36F8F 		isb														
 2126 002c BFF34F8F 		dsb														
 2127 0030 62B6     		cpsie i													
 2128              	
 2129              	@ 0 "" 2
 2130              		.thumb
 2131              		.syntax unified
 2132 0032 7A61     		str	r2, [r7, #20]
 2133 0034 3B61     		str	r3, [r7, #16]
 214:Middlewares/Third_Party/FreeRTOS/Source/portable/GCC/ARM_CM7/r0p1/portmacro.h **** 	(
 215:Middlewares/Third_Party/FreeRTOS/Source/portable/GCC/ARM_CM7/r0p1/portmacro.h **** 		"	mrs %0, basepri											\n" \
 216:Middlewares/Third_Party/FreeRTOS/Source/portable/GCC/ARM_CM7/r0p1/portmacro.h **** 		"	mov %1, %2												\n"	\
 217:Middlewares/Third_Party/FreeRTOS/Source/portable/GCC/ARM_CM7/r0p1/portmacro.h **** 		"	cpsid i													\n" \
 218:Middlewares/Third_Party/FreeRTOS/Source/portable/GCC/ARM_CM7/r0p1/portmacro.h **** 		"	msr basepri, %1											\n" \
 219:Middlewares/Third_Party/FreeRTOS/Source/portable/GCC/ARM_CM7/r0p1/portmacro.h **** 		"	isb														\n" \
 220:Middlewares/Third_Party/FreeRTOS/Source/portable/GCC/ARM_CM7/r0p1/portmacro.h **** 		"	dsb														\n" \
 221:Middlewares/Third_Party/FreeRTOS/Source/portable/GCC/ARM_CM7/r0p1/portmacro.h **** 		"	cpsie i													\n" \
 222:Middlewares/Third_Party/FreeRTOS/Source/portable/GCC/ARM_CM7/r0p1/portmacro.h **** 		:"=r" (ulOriginalBASEPRI), "=r" (ulNewBASEPRI) : "i" ( configMAX_SYSCALL_INTERRUPT_PRIORITY ) : "
 223:Middlewares/Third_Party/FreeRTOS/Source/portable/GCC/ARM_CM7/r0p1/portmacro.h **** 	);
 224:Middlewares/Third_Party/FreeRTOS/Source/portable/GCC/ARM_CM7/r0p1/portmacro.h **** 
 225:Middlewares/Third_Party/FreeRTOS/Source/portable/GCC/ARM_CM7/r0p1/portmacro.h **** 	/* This return will not be reached but is necessary to prevent compiler
 226:Middlewares/Third_Party/FreeRTOS/Source/portable/GCC/ARM_CM7/r0p1/portmacro.h **** 	warnings. */
 227:Middlewares/Third_Party/FreeRTOS/Source/portable/GCC/ARM_CM7/r0p1/portmacro.h **** 	return ulOriginalBASEPRI;
 2134              		.loc 3 227 9
 2135 0036 7B69     		ldr	r3, [r7, #20]
 2136              	.LBE11:
 2137              	.LBE10:
 944:Middlewares/Third_Party/FreeRTOS/Source/CMSIS_RTOS/cmsis_os.c ****     dummy = portSET_INTERRUPT_MASK_FROM_ISR();
 2138              		.loc 1 944 11
 2139 0038 7B62     		str	r3, [r7, #36]
 2140 003a 01E0     		b	.L128
 2141              	.L126:
 945:Middlewares/Third_Party/FreeRTOS/Source/CMSIS_RTOS/cmsis_os.c ****   }
 946:Middlewares/Third_Party/FreeRTOS/Source/CMSIS_RTOS/cmsis_os.c ****   else {
 947:Middlewares/Third_Party/FreeRTOS/Source/CMSIS_RTOS/cmsis_os.c ****     vPortEnterCritical();
 2142              		.loc 1 947 5
 2143 003c FFF7FEFF 		bl	vPortEnterCritical
ARM GAS  /tmp/cc4ZeGpA.s 			page 62


 2144              	.L128:
 948:Middlewares/Third_Party/FreeRTOS/Source/CMSIS_RTOS/cmsis_os.c ****   }
 949:Middlewares/Third_Party/FreeRTOS/Source/CMSIS_RTOS/cmsis_os.c ****   
 950:Middlewares/Third_Party/FreeRTOS/Source/CMSIS_RTOS/cmsis_os.c ****   for (i = 0; i < pool_id->pool_sz; i++) {
 2145              		.loc 1 950 10
 2146 0040 0023     		movs	r3, #0
 2147 0042 FB61     		str	r3, [r7, #28]
 2148              		.loc 1 950 3
 2149 0044 29E0     		b	.L129
 2150              	.L132:
 951:Middlewares/Third_Party/FreeRTOS/Source/CMSIS_RTOS/cmsis_os.c ****     index = (pool_id->currentIndex + i) % pool_id->pool_sz;
 2151              		.loc 1 951 21
 2152 0046 7B68     		ldr	r3, [r7, #4]
 2153 0048 1A69     		ldr	r2, [r3, #16]
 2154              		.loc 1 951 36
 2155 004a FB69     		ldr	r3, [r7, #28]
 2156 004c 1344     		add	r3, r3, r2
 2157              		.loc 1 951 50
 2158 004e 7A68     		ldr	r2, [r7, #4]
 2159 0050 9268     		ldr	r2, [r2, #8]
 2160              		.loc 1 951 11
 2161 0052 B3FBF2F1 		udiv	r1, r3, r2
 2162 0056 02FB01F2 		mul	r2, r2, r1
 2163 005a 9B1A     		subs	r3, r3, r2
 2164 005c BB61     		str	r3, [r7, #24]
 952:Middlewares/Third_Party/FreeRTOS/Source/CMSIS_RTOS/cmsis_os.c ****     
 953:Middlewares/Third_Party/FreeRTOS/Source/CMSIS_RTOS/cmsis_os.c ****     if (pool_id->markers[index] == 0) {
 2165              		.loc 1 953 16
 2166 005e 7B68     		ldr	r3, [r7, #4]
 2167 0060 5A68     		ldr	r2, [r3, #4]
 2168              		.loc 1 953 25
 2169 0062 BB69     		ldr	r3, [r7, #24]
 2170 0064 1344     		add	r3, r3, r2
 2171 0066 1B78     		ldrb	r3, [r3]	@ zero_extendqisi2
 2172              		.loc 1 953 8
 2173 0068 002B     		cmp	r3, #0
 2174 006a 13D1     		bne	.L130
 954:Middlewares/Third_Party/FreeRTOS/Source/CMSIS_RTOS/cmsis_os.c ****       pool_id->markers[index] = 1;
 2175              		.loc 1 954 14
 2176 006c 7B68     		ldr	r3, [r7, #4]
 2177 006e 5A68     		ldr	r2, [r3, #4]
 2178              		.loc 1 954 23
 2179 0070 BB69     		ldr	r3, [r7, #24]
 2180 0072 1344     		add	r3, r3, r2
 2181              		.loc 1 954 31
 2182 0074 0122     		movs	r2, #1
 2183 0076 1A70     		strb	r2, [r3]
 955:Middlewares/Third_Party/FreeRTOS/Source/CMSIS_RTOS/cmsis_os.c ****       p = (void *)((uint32_t)(pool_id->pool) + (index * pool_id->item_sz));
 2184              		.loc 1 955 38
 2185 0078 7B68     		ldr	r3, [r7, #4]
 2186 007a 1B68     		ldr	r3, [r3]
 2187              		.loc 1 955 20
 2188 007c 1946     		mov	r1, r3
 2189              		.loc 1 955 64
 2190 007e 7B68     		ldr	r3, [r7, #4]
 2191 0080 DB68     		ldr	r3, [r3, #12]
 2192              		.loc 1 955 55
ARM GAS  /tmp/cc4ZeGpA.s 			page 63


 2193 0082 BA69     		ldr	r2, [r7, #24]
 2194 0084 02FB03F3 		mul	r3, r2, r3
 2195              		.loc 1 955 46
 2196 0088 0B44     		add	r3, r3, r1
 2197              		.loc 1 955 9
 2198 008a 3B62     		str	r3, [r7, #32]
 956:Middlewares/Third_Party/FreeRTOS/Source/CMSIS_RTOS/cmsis_os.c ****       pool_id->currentIndex = index;
 2199              		.loc 1 956 29
 2200 008c 7B68     		ldr	r3, [r7, #4]
 2201 008e BA69     		ldr	r2, [r7, #24]
 2202 0090 1A61     		str	r2, [r3, #16]
 957:Middlewares/Third_Party/FreeRTOS/Source/CMSIS_RTOS/cmsis_os.c ****       break;
 2203              		.loc 1 957 7
 2204 0092 07E0     		b	.L131
 2205              	.L130:
 950:Middlewares/Third_Party/FreeRTOS/Source/CMSIS_RTOS/cmsis_os.c ****     index = (pool_id->currentIndex + i) % pool_id->pool_sz;
 2206              		.loc 1 950 38 discriminator 2
 2207 0094 FB69     		ldr	r3, [r7, #28]
 2208 0096 0133     		adds	r3, r3, #1
 2209 0098 FB61     		str	r3, [r7, #28]
 2210              	.L129:
 950:Middlewares/Third_Party/FreeRTOS/Source/CMSIS_RTOS/cmsis_os.c ****     index = (pool_id->currentIndex + i) % pool_id->pool_sz;
 2211              		.loc 1 950 26 discriminator 1
 2212 009a 7B68     		ldr	r3, [r7, #4]
 2213 009c 9B68     		ldr	r3, [r3, #8]
 950:Middlewares/Third_Party/FreeRTOS/Source/CMSIS_RTOS/cmsis_os.c ****     index = (pool_id->currentIndex + i) % pool_id->pool_sz;
 2214              		.loc 1 950 3 discriminator 1
 2215 009e FA69     		ldr	r2, [r7, #28]
 2216 00a0 9A42     		cmp	r2, r3
 2217 00a2 D0D3     		bcc	.L132
 2218              	.L131:
 958:Middlewares/Third_Party/FreeRTOS/Source/CMSIS_RTOS/cmsis_os.c ****     }
 959:Middlewares/Third_Party/FreeRTOS/Source/CMSIS_RTOS/cmsis_os.c ****   }
 960:Middlewares/Third_Party/FreeRTOS/Source/CMSIS_RTOS/cmsis_os.c ****   
 961:Middlewares/Third_Party/FreeRTOS/Source/CMSIS_RTOS/cmsis_os.c ****   if (inHandlerMode()) {
 2219              		.loc 1 961 7
 2220 00a4 FFF7FEFF 		bl	inHandlerMode
 2221 00a8 0346     		mov	r3, r0
 2222              		.loc 1 961 6
 2223 00aa 002B     		cmp	r3, #0
 2224 00ac 05D0     		beq	.L133
 962:Middlewares/Third_Party/FreeRTOS/Source/CMSIS_RTOS/cmsis_os.c ****     portCLEAR_INTERRUPT_MASK_FROM_ISR(dummy);
 2225              		.loc 1 962 5
 2226 00ae 7B6A     		ldr	r3, [r7, #36]
 2227 00b0 FB60     		str	r3, [r7, #12]
 2228              	.LBB12:
 2229              	.LBB13:
 228:Middlewares/Third_Party/FreeRTOS/Source/portable/GCC/ARM_CM7/r0p1/portmacro.h **** }
 229:Middlewares/Third_Party/FreeRTOS/Source/portable/GCC/ARM_CM7/r0p1/portmacro.h **** /*-----------------------------------------------------------*/
 230:Middlewares/Third_Party/FreeRTOS/Source/portable/GCC/ARM_CM7/r0p1/portmacro.h **** 
 231:Middlewares/Third_Party/FreeRTOS/Source/portable/GCC/ARM_CM7/r0p1/portmacro.h **** portFORCE_INLINE static void vPortSetBASEPRI( uint32_t ulNewMaskValue )
 232:Middlewares/Third_Party/FreeRTOS/Source/portable/GCC/ARM_CM7/r0p1/portmacro.h **** {
 233:Middlewares/Third_Party/FreeRTOS/Source/portable/GCC/ARM_CM7/r0p1/portmacro.h **** 	__asm volatile
 2230              		.loc 3 233 2
 2231 00b2 FB68     		ldr	r3, [r7, #12]
 2232              		.syntax unified
 2233              	@ 233 "Middlewares/Third_Party/FreeRTOS/Source/portable/GCC/ARM_CM7/r0p1/portmacro.h" 1
ARM GAS  /tmp/cc4ZeGpA.s 			page 64


 2234 00b4 83F31188 			msr basepri, r3	
 2235              	@ 0 "" 2
 234:Middlewares/Third_Party/FreeRTOS/Source/portable/GCC/ARM_CM7/r0p1/portmacro.h **** 	(
 235:Middlewares/Third_Party/FreeRTOS/Source/portable/GCC/ARM_CM7/r0p1/portmacro.h **** 		"	msr basepri, %0	" :: "r" ( ulNewMaskValue ) : "memory"
 236:Middlewares/Third_Party/FreeRTOS/Source/portable/GCC/ARM_CM7/r0p1/portmacro.h **** 	);
 237:Middlewares/Third_Party/FreeRTOS/Source/portable/GCC/ARM_CM7/r0p1/portmacro.h **** }
 2236              		.loc 3 237 1
 2237              		.thumb
 2238              		.syntax unified
 2239 00b8 01E0     		b	.L134
 2240              	.L133:
 2241              	.LBE13:
 2242              	.LBE12:
 963:Middlewares/Third_Party/FreeRTOS/Source/CMSIS_RTOS/cmsis_os.c ****   }
 964:Middlewares/Third_Party/FreeRTOS/Source/CMSIS_RTOS/cmsis_os.c ****   else {
 965:Middlewares/Third_Party/FreeRTOS/Source/CMSIS_RTOS/cmsis_os.c ****     vPortExitCritical();
 2243              		.loc 1 965 5
 2244 00ba FFF7FEFF 		bl	vPortExitCritical
 2245              	.L134:
 966:Middlewares/Third_Party/FreeRTOS/Source/CMSIS_RTOS/cmsis_os.c ****   }
 967:Middlewares/Third_Party/FreeRTOS/Source/CMSIS_RTOS/cmsis_os.c ****   
 968:Middlewares/Third_Party/FreeRTOS/Source/CMSIS_RTOS/cmsis_os.c ****   return p;
 2246              		.loc 1 968 10
 2247 00be 3B6A     		ldr	r3, [r7, #32]
 969:Middlewares/Third_Party/FreeRTOS/Source/CMSIS_RTOS/cmsis_os.c **** }
 2248              		.loc 1 969 1
 2249 00c0 1846     		mov	r0, r3
 2250 00c2 2837     		adds	r7, r7, #40
 2251              	.LCFI137:
 2252              		.cfi_def_cfa_offset 8
 2253 00c4 BD46     		mov	sp, r7
 2254              	.LCFI138:
 2255              		.cfi_def_cfa_register 13
 2256              		@ sp needed
 2257 00c6 80BD     		pop	{r7, pc}
 2258              		.cfi_endproc
 2259              	.LFE135:
 2261              		.section	.text.osPoolCAlloc,"ax",%progbits
 2262              		.align	1
 2263              		.global	osPoolCAlloc
 2264              		.syntax unified
 2265              		.thumb
 2266              		.thumb_func
 2267              		.fpu fpv5-d16
 2269              	osPoolCAlloc:
 2270              	.LFB136:
 970:Middlewares/Third_Party/FreeRTOS/Source/CMSIS_RTOS/cmsis_os.c **** 
 971:Middlewares/Third_Party/FreeRTOS/Source/CMSIS_RTOS/cmsis_os.c **** /**
 972:Middlewares/Third_Party/FreeRTOS/Source/CMSIS_RTOS/cmsis_os.c **** * @brief Allocate a memory block from a memory pool and set memory block to zero
 973:Middlewares/Third_Party/FreeRTOS/Source/CMSIS_RTOS/cmsis_os.c **** * @param  pool_id       memory pool ID obtain referenced with \ref osPoolCreate.
 974:Middlewares/Third_Party/FreeRTOS/Source/CMSIS_RTOS/cmsis_os.c **** * @retval  address of the allocated memory block or NULL in case of no memory available.
 975:Middlewares/Third_Party/FreeRTOS/Source/CMSIS_RTOS/cmsis_os.c **** * @note   MUST REMAIN UNCHANGED: \b osPoolCAlloc shall be consistent in every CMSIS-RTOS.
 976:Middlewares/Third_Party/FreeRTOS/Source/CMSIS_RTOS/cmsis_os.c **** */
 977:Middlewares/Third_Party/FreeRTOS/Source/CMSIS_RTOS/cmsis_os.c **** void *osPoolCAlloc (osPoolId pool_id)
 978:Middlewares/Third_Party/FreeRTOS/Source/CMSIS_RTOS/cmsis_os.c **** {
 2271              		.loc 1 978 1
 2272              		.cfi_startproc
ARM GAS  /tmp/cc4ZeGpA.s 			page 65


 2273              		@ args = 0, pretend = 0, frame = 16
 2274              		@ frame_needed = 1, uses_anonymous_args = 0
 2275 0000 80B5     		push	{r7, lr}
 2276              	.LCFI139:
 2277              		.cfi_def_cfa_offset 8
 2278              		.cfi_offset 7, -8
 2279              		.cfi_offset 14, -4
 2280 0002 84B0     		sub	sp, sp, #16
 2281              	.LCFI140:
 2282              		.cfi_def_cfa_offset 24
 2283 0004 00AF     		add	r7, sp, #0
 2284              	.LCFI141:
 2285              		.cfi_def_cfa_register 7
 2286 0006 7860     		str	r0, [r7, #4]
 979:Middlewares/Third_Party/FreeRTOS/Source/CMSIS_RTOS/cmsis_os.c ****   void *p = osPoolAlloc(pool_id);
 2287              		.loc 1 979 13
 2288 0008 7868     		ldr	r0, [r7, #4]
 2289 000a FFF7FEFF 		bl	osPoolAlloc
 2290 000e F860     		str	r0, [r7, #12]
 980:Middlewares/Third_Party/FreeRTOS/Source/CMSIS_RTOS/cmsis_os.c ****   
 981:Middlewares/Third_Party/FreeRTOS/Source/CMSIS_RTOS/cmsis_os.c ****   if (p != NULL)
 2291              		.loc 1 981 6
 2292 0010 FB68     		ldr	r3, [r7, #12]
 2293 0012 002B     		cmp	r3, #0
 2294 0014 04D0     		beq	.L137
 982:Middlewares/Third_Party/FreeRTOS/Source/CMSIS_RTOS/cmsis_os.c ****   {
 983:Middlewares/Third_Party/FreeRTOS/Source/CMSIS_RTOS/cmsis_os.c ****     memset(p, 0, sizeof(pool_id->pool_sz));
 2295              		.loc 1 983 5
 2296 0016 0422     		movs	r2, #4
 2297 0018 0021     		movs	r1, #0
 2298 001a F868     		ldr	r0, [r7, #12]
 2299 001c FFF7FEFF 		bl	memset
 2300              	.L137:
 984:Middlewares/Third_Party/FreeRTOS/Source/CMSIS_RTOS/cmsis_os.c ****   }
 985:Middlewares/Third_Party/FreeRTOS/Source/CMSIS_RTOS/cmsis_os.c ****   
 986:Middlewares/Third_Party/FreeRTOS/Source/CMSIS_RTOS/cmsis_os.c ****   return p;
 2301              		.loc 1 986 10
 2302 0020 FB68     		ldr	r3, [r7, #12]
 987:Middlewares/Third_Party/FreeRTOS/Source/CMSIS_RTOS/cmsis_os.c **** }
 2303              		.loc 1 987 1
 2304 0022 1846     		mov	r0, r3
 2305 0024 1037     		adds	r7, r7, #16
 2306              	.LCFI142:
 2307              		.cfi_def_cfa_offset 8
 2308 0026 BD46     		mov	sp, r7
 2309              	.LCFI143:
 2310              		.cfi_def_cfa_register 13
 2311              		@ sp needed
 2312 0028 80BD     		pop	{r7, pc}
 2313              		.cfi_endproc
 2314              	.LFE136:
 2316              		.section	.text.osPoolFree,"ax",%progbits
 2317              		.align	1
 2318              		.global	osPoolFree
 2319              		.syntax unified
 2320              		.thumb
 2321              		.thumb_func
ARM GAS  /tmp/cc4ZeGpA.s 			page 66


 2322              		.fpu fpv5-d16
 2324              	osPoolFree:
 2325              	.LFB137:
 988:Middlewares/Third_Party/FreeRTOS/Source/CMSIS_RTOS/cmsis_os.c **** 
 989:Middlewares/Third_Party/FreeRTOS/Source/CMSIS_RTOS/cmsis_os.c **** /**
 990:Middlewares/Third_Party/FreeRTOS/Source/CMSIS_RTOS/cmsis_os.c **** * @brief Return an allocated memory block back to a specific memory pool
 991:Middlewares/Third_Party/FreeRTOS/Source/CMSIS_RTOS/cmsis_os.c **** * @param  pool_id       memory pool ID obtain referenced with \ref osPoolCreate.
 992:Middlewares/Third_Party/FreeRTOS/Source/CMSIS_RTOS/cmsis_os.c **** * @param  block         address of the allocated memory block that is returned to the memory pool.
 993:Middlewares/Third_Party/FreeRTOS/Source/CMSIS_RTOS/cmsis_os.c **** * @retval  status code that indicates the execution status of the function.
 994:Middlewares/Third_Party/FreeRTOS/Source/CMSIS_RTOS/cmsis_os.c **** * @note   MUST REMAIN UNCHANGED: \b osPoolFree shall be consistent in every CMSIS-RTOS.
 995:Middlewares/Third_Party/FreeRTOS/Source/CMSIS_RTOS/cmsis_os.c **** */
 996:Middlewares/Third_Party/FreeRTOS/Source/CMSIS_RTOS/cmsis_os.c **** osStatus osPoolFree (osPoolId pool_id, void *block)
 997:Middlewares/Third_Party/FreeRTOS/Source/CMSIS_RTOS/cmsis_os.c **** {
 2326              		.loc 1 997 1
 2327              		.cfi_startproc
 2328              		@ args = 0, pretend = 0, frame = 16
 2329              		@ frame_needed = 1, uses_anonymous_args = 0
 2330              		@ link register save eliminated.
 2331 0000 80B4     		push	{r7}
 2332              	.LCFI144:
 2333              		.cfi_def_cfa_offset 4
 2334              		.cfi_offset 7, -4
 2335 0002 85B0     		sub	sp, sp, #20
 2336              	.LCFI145:
 2337              		.cfi_def_cfa_offset 24
 2338 0004 00AF     		add	r7, sp, #0
 2339              	.LCFI146:
 2340              		.cfi_def_cfa_register 7
 2341 0006 7860     		str	r0, [r7, #4]
 2342 0008 3960     		str	r1, [r7]
 998:Middlewares/Third_Party/FreeRTOS/Source/CMSIS_RTOS/cmsis_os.c ****   uint32_t index;
 999:Middlewares/Third_Party/FreeRTOS/Source/CMSIS_RTOS/cmsis_os.c ****   
1000:Middlewares/Third_Party/FreeRTOS/Source/CMSIS_RTOS/cmsis_os.c ****   if (pool_id == NULL) {
 2343              		.loc 1 1000 6
 2344 000a 7B68     		ldr	r3, [r7, #4]
 2345 000c 002B     		cmp	r3, #0
 2346 000e 01D1     		bne	.L140
1001:Middlewares/Third_Party/FreeRTOS/Source/CMSIS_RTOS/cmsis_os.c ****     return osErrorParameter;
 2347              		.loc 1 1001 12
 2348 0010 8023     		movs	r3, #128
 2349 0012 30E0     		b	.L141
 2350              	.L140:
1002:Middlewares/Third_Party/FreeRTOS/Source/CMSIS_RTOS/cmsis_os.c ****   }
1003:Middlewares/Third_Party/FreeRTOS/Source/CMSIS_RTOS/cmsis_os.c ****   
1004:Middlewares/Third_Party/FreeRTOS/Source/CMSIS_RTOS/cmsis_os.c ****   if (block == NULL) {
 2351              		.loc 1 1004 6
 2352 0014 3B68     		ldr	r3, [r7]
 2353 0016 002B     		cmp	r3, #0
 2354 0018 01D1     		bne	.L142
1005:Middlewares/Third_Party/FreeRTOS/Source/CMSIS_RTOS/cmsis_os.c ****     return osErrorParameter;
 2355              		.loc 1 1005 12
 2356 001a 8023     		movs	r3, #128
 2357 001c 2BE0     		b	.L141
 2358              	.L142:
1006:Middlewares/Third_Party/FreeRTOS/Source/CMSIS_RTOS/cmsis_os.c ****   }
1007:Middlewares/Third_Party/FreeRTOS/Source/CMSIS_RTOS/cmsis_os.c ****   
1008:Middlewares/Third_Party/FreeRTOS/Source/CMSIS_RTOS/cmsis_os.c ****   if (block < pool_id->pool) {
ARM GAS  /tmp/cc4ZeGpA.s 			page 67


 2359              		.loc 1 1008 22
 2360 001e 7B68     		ldr	r3, [r7, #4]
 2361 0020 1B68     		ldr	r3, [r3]
 2362              		.loc 1 1008 6
 2363 0022 3A68     		ldr	r2, [r7]
 2364 0024 9A42     		cmp	r2, r3
 2365 0026 01D2     		bcs	.L143
1009:Middlewares/Third_Party/FreeRTOS/Source/CMSIS_RTOS/cmsis_os.c ****     return osErrorParameter;
 2366              		.loc 1 1009 12
 2367 0028 8023     		movs	r3, #128
 2368 002a 24E0     		b	.L141
 2369              	.L143:
1010:Middlewares/Third_Party/FreeRTOS/Source/CMSIS_RTOS/cmsis_os.c ****   }
1011:Middlewares/Third_Party/FreeRTOS/Source/CMSIS_RTOS/cmsis_os.c ****   
1012:Middlewares/Third_Party/FreeRTOS/Source/CMSIS_RTOS/cmsis_os.c ****   index = (uint32_t)block - (uint32_t)(pool_id->pool);
 2370              		.loc 1 1012 11
 2371 002c 3B68     		ldr	r3, [r7]
 2372              		.loc 1 1012 47
 2373 002e 7A68     		ldr	r2, [r7, #4]
 2374 0030 1268     		ldr	r2, [r2]
 2375              		.loc 1 1012 9
 2376 0032 9B1A     		subs	r3, r3, r2
 2377 0034 FB60     		str	r3, [r7, #12]
1013:Middlewares/Third_Party/FreeRTOS/Source/CMSIS_RTOS/cmsis_os.c ****   if (index % pool_id->item_sz) {
 2378              		.loc 1 1013 22
 2379 0036 7B68     		ldr	r3, [r7, #4]
 2380 0038 DA68     		ldr	r2, [r3, #12]
 2381              		.loc 1 1013 13
 2382 003a FB68     		ldr	r3, [r7, #12]
 2383 003c B3FBF2F1 		udiv	r1, r3, r2
 2384 0040 02FB01F2 		mul	r2, r2, r1
 2385 0044 9B1A     		subs	r3, r3, r2
 2386              		.loc 1 1013 6
 2387 0046 002B     		cmp	r3, #0
 2388 0048 01D0     		beq	.L144
1014:Middlewares/Third_Party/FreeRTOS/Source/CMSIS_RTOS/cmsis_os.c ****     return osErrorParameter;
 2389              		.loc 1 1014 12
 2390 004a 8023     		movs	r3, #128
 2391 004c 13E0     		b	.L141
 2392              	.L144:
1015:Middlewares/Third_Party/FreeRTOS/Source/CMSIS_RTOS/cmsis_os.c ****   }
1016:Middlewares/Third_Party/FreeRTOS/Source/CMSIS_RTOS/cmsis_os.c ****   index = index / pool_id->item_sz;
 2393              		.loc 1 1016 26
 2394 004e 7B68     		ldr	r3, [r7, #4]
 2395 0050 DB68     		ldr	r3, [r3, #12]
 2396              		.loc 1 1016 9
 2397 0052 FA68     		ldr	r2, [r7, #12]
 2398 0054 B2FBF3F3 		udiv	r3, r2, r3
 2399 0058 FB60     		str	r3, [r7, #12]
1017:Middlewares/Third_Party/FreeRTOS/Source/CMSIS_RTOS/cmsis_os.c ****   if (index >= pool_id->pool_sz) {
 2400              		.loc 1 1017 23
 2401 005a 7B68     		ldr	r3, [r7, #4]
 2402 005c 9B68     		ldr	r3, [r3, #8]
 2403              		.loc 1 1017 6
 2404 005e FA68     		ldr	r2, [r7, #12]
 2405 0060 9A42     		cmp	r2, r3
 2406 0062 01D3     		bcc	.L145
ARM GAS  /tmp/cc4ZeGpA.s 			page 68


1018:Middlewares/Third_Party/FreeRTOS/Source/CMSIS_RTOS/cmsis_os.c ****     return osErrorParameter;
 2407              		.loc 1 1018 12
 2408 0064 8023     		movs	r3, #128
 2409 0066 06E0     		b	.L141
 2410              	.L145:
1019:Middlewares/Third_Party/FreeRTOS/Source/CMSIS_RTOS/cmsis_os.c ****   }
1020:Middlewares/Third_Party/FreeRTOS/Source/CMSIS_RTOS/cmsis_os.c ****   
1021:Middlewares/Third_Party/FreeRTOS/Source/CMSIS_RTOS/cmsis_os.c ****   pool_id->markers[index] = 0;
 2411              		.loc 1 1021 10
 2412 0068 7B68     		ldr	r3, [r7, #4]
 2413 006a 5A68     		ldr	r2, [r3, #4]
 2414              		.loc 1 1021 19
 2415 006c FB68     		ldr	r3, [r7, #12]
 2416 006e 1344     		add	r3, r3, r2
 2417              		.loc 1 1021 27
 2418 0070 0022     		movs	r2, #0
 2419 0072 1A70     		strb	r2, [r3]
1022:Middlewares/Third_Party/FreeRTOS/Source/CMSIS_RTOS/cmsis_os.c ****   
1023:Middlewares/Third_Party/FreeRTOS/Source/CMSIS_RTOS/cmsis_os.c ****   return osOK;
 2420              		.loc 1 1023 10
 2421 0074 0023     		movs	r3, #0
 2422              	.L141:
1024:Middlewares/Third_Party/FreeRTOS/Source/CMSIS_RTOS/cmsis_os.c **** }
 2423              		.loc 1 1024 1
 2424 0076 1846     		mov	r0, r3
 2425 0078 1437     		adds	r7, r7, #20
 2426              	.LCFI147:
 2427              		.cfi_def_cfa_offset 4
 2428 007a BD46     		mov	sp, r7
 2429              	.LCFI148:
 2430              		.cfi_def_cfa_register 13
 2431              		@ sp needed
 2432 007c 5DF8047B 		ldr	r7, [sp], #4
 2433              	.LCFI149:
 2434              		.cfi_restore 7
 2435              		.cfi_def_cfa_offset 0
 2436 0080 7047     		bx	lr
 2437              		.cfi_endproc
 2438              	.LFE137:
 2440              		.section	.text.osMessageCreate,"ax",%progbits
 2441              		.align	1
 2442              		.global	osMessageCreate
 2443              		.syntax unified
 2444              		.thumb
 2445              		.thumb_func
 2446              		.fpu fpv5-d16
 2448              	osMessageCreate:
 2449              	.LFB138:
1025:Middlewares/Third_Party/FreeRTOS/Source/CMSIS_RTOS/cmsis_os.c **** 
1026:Middlewares/Third_Party/FreeRTOS/Source/CMSIS_RTOS/cmsis_os.c **** 
1027:Middlewares/Third_Party/FreeRTOS/Source/CMSIS_RTOS/cmsis_os.c **** #endif   /* Use Memory Pool Management */
1028:Middlewares/Third_Party/FreeRTOS/Source/CMSIS_RTOS/cmsis_os.c **** 
1029:Middlewares/Third_Party/FreeRTOS/Source/CMSIS_RTOS/cmsis_os.c **** /*******************   Message Queue Management Functions  *********************/
1030:Middlewares/Third_Party/FreeRTOS/Source/CMSIS_RTOS/cmsis_os.c **** 
1031:Middlewares/Third_Party/FreeRTOS/Source/CMSIS_RTOS/cmsis_os.c **** #if (defined (osFeature_MessageQ)  &&  (osFeature_MessageQ != 0)) /* Use Message Queues */
1032:Middlewares/Third_Party/FreeRTOS/Source/CMSIS_RTOS/cmsis_os.c **** 
1033:Middlewares/Third_Party/FreeRTOS/Source/CMSIS_RTOS/cmsis_os.c **** /**
ARM GAS  /tmp/cc4ZeGpA.s 			page 69


1034:Middlewares/Third_Party/FreeRTOS/Source/CMSIS_RTOS/cmsis_os.c **** * @brief Create and Initialize a Message Queue
1035:Middlewares/Third_Party/FreeRTOS/Source/CMSIS_RTOS/cmsis_os.c **** * @param queue_def     queue definition referenced with \ref osMessageQ.
1036:Middlewares/Third_Party/FreeRTOS/Source/CMSIS_RTOS/cmsis_os.c **** * @param  thread_id     thread ID (obtained by \ref osThreadCreate or \ref osThreadGetId) or NULL.
1037:Middlewares/Third_Party/FreeRTOS/Source/CMSIS_RTOS/cmsis_os.c **** * @retval  message queue ID for reference by other functions or NULL in case of error.
1038:Middlewares/Third_Party/FreeRTOS/Source/CMSIS_RTOS/cmsis_os.c **** * @note   MUST REMAIN UNCHANGED: \b osMessageCreate shall be consistent in every CMSIS-RTOS.
1039:Middlewares/Third_Party/FreeRTOS/Source/CMSIS_RTOS/cmsis_os.c **** */
1040:Middlewares/Third_Party/FreeRTOS/Source/CMSIS_RTOS/cmsis_os.c **** osMessageQId osMessageCreate (const osMessageQDef_t *queue_def, osThreadId thread_id)
1041:Middlewares/Third_Party/FreeRTOS/Source/CMSIS_RTOS/cmsis_os.c **** {
 2450              		.loc 1 1041 1
 2451              		.cfi_startproc
 2452              		@ args = 0, pretend = 0, frame = 8
 2453              		@ frame_needed = 1, uses_anonymous_args = 0
 2454 0000 90B5     		push	{r4, r7, lr}
 2455              	.LCFI150:
 2456              		.cfi_def_cfa_offset 12
 2457              		.cfi_offset 4, -12
 2458              		.cfi_offset 7, -8
 2459              		.cfi_offset 14, -4
 2460 0002 85B0     		sub	sp, sp, #20
 2461              	.LCFI151:
 2462              		.cfi_def_cfa_offset 32
 2463 0004 02AF     		add	r7, sp, #8
 2464              	.LCFI152:
 2465              		.cfi_def_cfa 7, 24
 2466 0006 7860     		str	r0, [r7, #4]
 2467 0008 3960     		str	r1, [r7]
1042:Middlewares/Third_Party/FreeRTOS/Source/CMSIS_RTOS/cmsis_os.c ****   (void) thread_id;
1043:Middlewares/Third_Party/FreeRTOS/Source/CMSIS_RTOS/cmsis_os.c ****   
1044:Middlewares/Third_Party/FreeRTOS/Source/CMSIS_RTOS/cmsis_os.c **** #if( configSUPPORT_STATIC_ALLOCATION == 1 ) && ( configSUPPORT_DYNAMIC_ALLOCATION == 1 )
1045:Middlewares/Third_Party/FreeRTOS/Source/CMSIS_RTOS/cmsis_os.c **** 
1046:Middlewares/Third_Party/FreeRTOS/Source/CMSIS_RTOS/cmsis_os.c ****   if ((queue_def->buffer != NULL) && (queue_def->controlblock != NULL)) {
 2468              		.loc 1 1046 17
 2469 000a 7B68     		ldr	r3, [r7, #4]
 2470 000c 9B68     		ldr	r3, [r3, #8]
 2471              		.loc 1 1046 6
 2472 000e 002B     		cmp	r3, #0
 2473 0010 11D0     		beq	.L147
 2474              		.loc 1 1046 48 discriminator 1
 2475 0012 7B68     		ldr	r3, [r7, #4]
 2476 0014 DB68     		ldr	r3, [r3, #12]
 2477              		.loc 1 1046 35 discriminator 1
 2478 0016 002B     		cmp	r3, #0
 2479 0018 0DD0     		beq	.L147
1047:Middlewares/Third_Party/FreeRTOS/Source/CMSIS_RTOS/cmsis_os.c ****     return xQueueCreateStatic(queue_def->queue_sz, queue_def->item_sz, queue_def->buffer, queue_def
 2480              		.loc 1 1047 12
 2481 001a 7B68     		ldr	r3, [r7, #4]
 2482 001c 1868     		ldr	r0, [r3]
 2483 001e 7B68     		ldr	r3, [r7, #4]
 2484 0020 5968     		ldr	r1, [r3, #4]
 2485 0022 7B68     		ldr	r3, [r7, #4]
 2486 0024 9A68     		ldr	r2, [r3, #8]
 2487 0026 7B68     		ldr	r3, [r7, #4]
 2488 0028 DB68     		ldr	r3, [r3, #12]
 2489 002a 0024     		movs	r4, #0
 2490 002c 0094     		str	r4, [sp]
 2491 002e FFF7FEFF 		bl	xQueueGenericCreateStatic
 2492 0032 0346     		mov	r3, r0
ARM GAS  /tmp/cc4ZeGpA.s 			page 70


 2493 0034 08E0     		b	.L148
 2494              	.L147:
1048:Middlewares/Third_Party/FreeRTOS/Source/CMSIS_RTOS/cmsis_os.c ****   }
1049:Middlewares/Third_Party/FreeRTOS/Source/CMSIS_RTOS/cmsis_os.c ****   else {
1050:Middlewares/Third_Party/FreeRTOS/Source/CMSIS_RTOS/cmsis_os.c ****     return xQueueCreate(queue_def->queue_sz, queue_def->item_sz);
 2495              		.loc 1 1050 12
 2496 0036 7B68     		ldr	r3, [r7, #4]
 2497 0038 1868     		ldr	r0, [r3]
 2498 003a 7B68     		ldr	r3, [r7, #4]
 2499 003c 5B68     		ldr	r3, [r3, #4]
 2500 003e 0022     		movs	r2, #0
 2501 0040 1946     		mov	r1, r3
 2502 0042 FFF7FEFF 		bl	xQueueGenericCreate
 2503 0046 0346     		mov	r3, r0
 2504              	.L148:
1051:Middlewares/Third_Party/FreeRTOS/Source/CMSIS_RTOS/cmsis_os.c ****   }
1052:Middlewares/Third_Party/FreeRTOS/Source/CMSIS_RTOS/cmsis_os.c **** #elif ( configSUPPORT_STATIC_ALLOCATION == 1 )
1053:Middlewares/Third_Party/FreeRTOS/Source/CMSIS_RTOS/cmsis_os.c ****   return xQueueCreateStatic(queue_def->queue_sz, queue_def->item_sz, queue_def->buffer, queue_def->
1054:Middlewares/Third_Party/FreeRTOS/Source/CMSIS_RTOS/cmsis_os.c **** #else  
1055:Middlewares/Third_Party/FreeRTOS/Source/CMSIS_RTOS/cmsis_os.c ****   return xQueueCreate(queue_def->queue_sz, queue_def->item_sz);
1056:Middlewares/Third_Party/FreeRTOS/Source/CMSIS_RTOS/cmsis_os.c **** #endif
1057:Middlewares/Third_Party/FreeRTOS/Source/CMSIS_RTOS/cmsis_os.c **** }
 2505              		.loc 1 1057 1
 2506 0048 1846     		mov	r0, r3
 2507 004a 0C37     		adds	r7, r7, #12
 2508              	.LCFI153:
 2509              		.cfi_def_cfa_offset 12
 2510 004c BD46     		mov	sp, r7
 2511              	.LCFI154:
 2512              		.cfi_def_cfa_register 13
 2513              		@ sp needed
 2514 004e 90BD     		pop	{r4, r7, pc}
 2515              		.cfi_endproc
 2516              	.LFE138:
 2518              		.section	.text.osMessagePut,"ax",%progbits
 2519              		.align	1
 2520              		.global	osMessagePut
 2521              		.syntax unified
 2522              		.thumb
 2523              		.thumb_func
 2524              		.fpu fpv5-d16
 2526              	osMessagePut:
 2527              	.LFB139:
1058:Middlewares/Third_Party/FreeRTOS/Source/CMSIS_RTOS/cmsis_os.c **** 
1059:Middlewares/Third_Party/FreeRTOS/Source/CMSIS_RTOS/cmsis_os.c **** /**
1060:Middlewares/Third_Party/FreeRTOS/Source/CMSIS_RTOS/cmsis_os.c **** * @brief Put a Message to a Queue.
1061:Middlewares/Third_Party/FreeRTOS/Source/CMSIS_RTOS/cmsis_os.c **** * @param  queue_id  message queue ID obtained with \ref osMessageCreate.
1062:Middlewares/Third_Party/FreeRTOS/Source/CMSIS_RTOS/cmsis_os.c **** * @param  info      message information.
1063:Middlewares/Third_Party/FreeRTOS/Source/CMSIS_RTOS/cmsis_os.c **** * @param  millisec  timeout value or 0 in case of no time-out.
1064:Middlewares/Third_Party/FreeRTOS/Source/CMSIS_RTOS/cmsis_os.c **** * @retval status code that indicates the execution status of the function.
1065:Middlewares/Third_Party/FreeRTOS/Source/CMSIS_RTOS/cmsis_os.c **** * @note   MUST REMAIN UNCHANGED: \b osMessagePut shall be consistent in every CMSIS-RTOS.
1066:Middlewares/Third_Party/FreeRTOS/Source/CMSIS_RTOS/cmsis_os.c **** */
1067:Middlewares/Third_Party/FreeRTOS/Source/CMSIS_RTOS/cmsis_os.c **** osStatus osMessagePut (osMessageQId queue_id, uint32_t info, uint32_t millisec)
1068:Middlewares/Third_Party/FreeRTOS/Source/CMSIS_RTOS/cmsis_os.c **** {
 2528              		.loc 1 1068 1
 2529              		.cfi_startproc
 2530              		@ args = 0, pretend = 0, frame = 24
ARM GAS  /tmp/cc4ZeGpA.s 			page 71


 2531              		@ frame_needed = 1, uses_anonymous_args = 0
 2532 0000 80B5     		push	{r7, lr}
 2533              	.LCFI155:
 2534              		.cfi_def_cfa_offset 8
 2535              		.cfi_offset 7, -8
 2536              		.cfi_offset 14, -4
 2537 0002 86B0     		sub	sp, sp, #24
 2538              	.LCFI156:
 2539              		.cfi_def_cfa_offset 32
 2540 0004 00AF     		add	r7, sp, #0
 2541              	.LCFI157:
 2542              		.cfi_def_cfa_register 7
 2543 0006 F860     		str	r0, [r7, #12]
 2544 0008 B960     		str	r1, [r7, #8]
 2545 000a 7A60     		str	r2, [r7, #4]
1069:Middlewares/Third_Party/FreeRTOS/Source/CMSIS_RTOS/cmsis_os.c ****   portBASE_TYPE taskWoken = pdFALSE;
 2546              		.loc 1 1069 17
 2547 000c 0023     		movs	r3, #0
 2548 000e 3B61     		str	r3, [r7, #16]
1070:Middlewares/Third_Party/FreeRTOS/Source/CMSIS_RTOS/cmsis_os.c ****   TickType_t ticks;
1071:Middlewares/Third_Party/FreeRTOS/Source/CMSIS_RTOS/cmsis_os.c ****   
1072:Middlewares/Third_Party/FreeRTOS/Source/CMSIS_RTOS/cmsis_os.c ****   ticks = millisec / portTICK_PERIOD_MS;
 2549              		.loc 1 1072 9
 2550 0010 7B68     		ldr	r3, [r7, #4]
 2551 0012 7B61     		str	r3, [r7, #20]
1073:Middlewares/Third_Party/FreeRTOS/Source/CMSIS_RTOS/cmsis_os.c ****   if (ticks == 0) {
 2552              		.loc 1 1073 6
 2553 0014 7B69     		ldr	r3, [r7, #20]
 2554 0016 002B     		cmp	r3, #0
