ARM GAS  /tmp/ccOFTjtU.s 			page 1


   1              		.cpu cortex-m7
   2              		.eabi_attribute 28, 1
   3              		.eabi_attribute 20, 1
   4              		.eabi_attribute 21, 1
   5              		.eabi_attribute 23, 3
   6              		.eabi_attribute 24, 1
   7              		.eabi_attribute 25, 1
   8              		.eabi_attribute 26, 1
   9              		.eabi_attribute 30, 6
  10              		.eabi_attribute 34, 1
  11              		.eabi_attribute 18, 4
  12              		.file	"stm32f7xx_hal_tim_ex.c"
  13              		.text
  14              	.Ltext0:
  15              		.cfi_sections	.debug_frame
  16              		.section	.text.HAL_TIMEx_HallSensor_Init,"ax",%progbits
  17              		.align	1
  18              		.global	HAL_TIMEx_HallSensor_Init
  19              		.arch armv7e-m
  20              		.syntax unified
  21              		.thumb
  22              		.thumb_func
  23              		.fpu fpv5-d16
  25              	HAL_TIMEx_HallSensor_Init:
  26              	.LFB141:
  27              		.file 1 "Drivers/STM32F7xx_HAL_Driver/Src/stm32f7xx_hal_tim_ex.c"
   1:Drivers/STM32F7xx_HAL_Driver/Src/stm32f7xx_hal_tim_ex.c **** /**
   2:Drivers/STM32F7xx_HAL_Driver/Src/stm32f7xx_hal_tim_ex.c ****   ******************************************************************************
   3:Drivers/STM32F7xx_HAL_Driver/Src/stm32f7xx_hal_tim_ex.c ****   * @file    stm32f7xx_hal_tim_ex.c
   4:Drivers/STM32F7xx_HAL_Driver/Src/stm32f7xx_hal_tim_ex.c ****   * @author  MCD Application Team
   5:Drivers/STM32F7xx_HAL_Driver/Src/stm32f7xx_hal_tim_ex.c ****   * @brief   TIM HAL module driver.
   6:Drivers/STM32F7xx_HAL_Driver/Src/stm32f7xx_hal_tim_ex.c ****   *          This file provides firmware functions to manage the following
   7:Drivers/STM32F7xx_HAL_Driver/Src/stm32f7xx_hal_tim_ex.c ****   *          functionalities of the Timer Extended peripheral:
   8:Drivers/STM32F7xx_HAL_Driver/Src/stm32f7xx_hal_tim_ex.c ****   *           + Time Hall Sensor Interface Initialization
   9:Drivers/STM32F7xx_HAL_Driver/Src/stm32f7xx_hal_tim_ex.c ****   *           + Time Hall Sensor Interface Start
  10:Drivers/STM32F7xx_HAL_Driver/Src/stm32f7xx_hal_tim_ex.c ****   *           + Time Complementary signal break and dead time configuration
  11:Drivers/STM32F7xx_HAL_Driver/Src/stm32f7xx_hal_tim_ex.c ****   *           + Time Master and Slave synchronization configuration
  12:Drivers/STM32F7xx_HAL_Driver/Src/stm32f7xx_hal_tim_ex.c ****   *           + Time Output Compare/PWM Channel Configuration (for channels 5 and 6)
  13:Drivers/STM32F7xx_HAL_Driver/Src/stm32f7xx_hal_tim_ex.c ****   *           + Timer remapping capabilities configuration
  14:Drivers/STM32F7xx_HAL_Driver/Src/stm32f7xx_hal_tim_ex.c ****   @verbatim
  15:Drivers/STM32F7xx_HAL_Driver/Src/stm32f7xx_hal_tim_ex.c ****   ==============================================================================
  16:Drivers/STM32F7xx_HAL_Driver/Src/stm32f7xx_hal_tim_ex.c ****                       ##### TIMER Extended features #####
  17:Drivers/STM32F7xx_HAL_Driver/Src/stm32f7xx_hal_tim_ex.c ****   ==============================================================================
  18:Drivers/STM32F7xx_HAL_Driver/Src/stm32f7xx_hal_tim_ex.c ****   [..]
  19:Drivers/STM32F7xx_HAL_Driver/Src/stm32f7xx_hal_tim_ex.c ****     The Timer Extended features include:
  20:Drivers/STM32F7xx_HAL_Driver/Src/stm32f7xx_hal_tim_ex.c ****     (#) Complementary outputs with programmable dead-time for :
  21:Drivers/STM32F7xx_HAL_Driver/Src/stm32f7xx_hal_tim_ex.c ****         (++) Output Compare
  22:Drivers/STM32F7xx_HAL_Driver/Src/stm32f7xx_hal_tim_ex.c ****         (++) PWM generation (Edge and Center-aligned Mode)
  23:Drivers/STM32F7xx_HAL_Driver/Src/stm32f7xx_hal_tim_ex.c ****         (++) One-pulse mode output
  24:Drivers/STM32F7xx_HAL_Driver/Src/stm32f7xx_hal_tim_ex.c ****     (#) Synchronization circuit to control the timer with external signals and to
  25:Drivers/STM32F7xx_HAL_Driver/Src/stm32f7xx_hal_tim_ex.c ****         interconnect several timers together.
  26:Drivers/STM32F7xx_HAL_Driver/Src/stm32f7xx_hal_tim_ex.c ****     (#) Break input to put the timer output signals in reset state or in a known state.
  27:Drivers/STM32F7xx_HAL_Driver/Src/stm32f7xx_hal_tim_ex.c ****     (#) Supports incremental (quadrature) encoder and hall-sensor circuitry for
  28:Drivers/STM32F7xx_HAL_Driver/Src/stm32f7xx_hal_tim_ex.c ****         positioning purposes
  29:Drivers/STM32F7xx_HAL_Driver/Src/stm32f7xx_hal_tim_ex.c **** 
  30:Drivers/STM32F7xx_HAL_Driver/Src/stm32f7xx_hal_tim_ex.c ****             ##### How to use this driver #####
  31:Drivers/STM32F7xx_HAL_Driver/Src/stm32f7xx_hal_tim_ex.c ****   ==============================================================================
ARM GAS  /tmp/ccOFTjtU.s 			page 2


  32:Drivers/STM32F7xx_HAL_Driver/Src/stm32f7xx_hal_tim_ex.c ****     [..]
  33:Drivers/STM32F7xx_HAL_Driver/Src/stm32f7xx_hal_tim_ex.c ****      (#) Initialize the TIM low level resources by implementing the following functions
  34:Drivers/STM32F7xx_HAL_Driver/Src/stm32f7xx_hal_tim_ex.c ****          depending on the selected feature:
  35:Drivers/STM32F7xx_HAL_Driver/Src/stm32f7xx_hal_tim_ex.c ****            (++) Hall Sensor output : HAL_TIMEx_HallSensor_MspInit()
  36:Drivers/STM32F7xx_HAL_Driver/Src/stm32f7xx_hal_tim_ex.c **** 
  37:Drivers/STM32F7xx_HAL_Driver/Src/stm32f7xx_hal_tim_ex.c ****      (#) Initialize the TIM low level resources :
  38:Drivers/STM32F7xx_HAL_Driver/Src/stm32f7xx_hal_tim_ex.c ****         (##) Enable the TIM interface clock using __HAL_RCC_TIMx_CLK_ENABLE();
  39:Drivers/STM32F7xx_HAL_Driver/Src/stm32f7xx_hal_tim_ex.c ****         (##) TIM pins configuration
  40:Drivers/STM32F7xx_HAL_Driver/Src/stm32f7xx_hal_tim_ex.c ****             (+++) Enable the clock for the TIM GPIOs using the following function:
  41:Drivers/STM32F7xx_HAL_Driver/Src/stm32f7xx_hal_tim_ex.c ****               __HAL_RCC_GPIOx_CLK_ENABLE();
  42:Drivers/STM32F7xx_HAL_Driver/Src/stm32f7xx_hal_tim_ex.c ****             (+++) Configure these TIM pins in Alternate function mode using HAL_GPIO_Init();
  43:Drivers/STM32F7xx_HAL_Driver/Src/stm32f7xx_hal_tim_ex.c **** 
  44:Drivers/STM32F7xx_HAL_Driver/Src/stm32f7xx_hal_tim_ex.c ****      (#) The external Clock can be configured, if needed (the default clock is the
  45:Drivers/STM32F7xx_HAL_Driver/Src/stm32f7xx_hal_tim_ex.c ****          internal clock from the APBx), using the following function:
  46:Drivers/STM32F7xx_HAL_Driver/Src/stm32f7xx_hal_tim_ex.c ****          HAL_TIM_ConfigClockSource, the clock configuration should be done before
  47:Drivers/STM32F7xx_HAL_Driver/Src/stm32f7xx_hal_tim_ex.c ****          any start function.
  48:Drivers/STM32F7xx_HAL_Driver/Src/stm32f7xx_hal_tim_ex.c **** 
  49:Drivers/STM32F7xx_HAL_Driver/Src/stm32f7xx_hal_tim_ex.c ****      (#) Configure the TIM in the desired functioning mode using one of the
  50:Drivers/STM32F7xx_HAL_Driver/Src/stm32f7xx_hal_tim_ex.c ****          initialization function of this driver:
  51:Drivers/STM32F7xx_HAL_Driver/Src/stm32f7xx_hal_tim_ex.c ****           (++) HAL_TIMEx_HallSensor_Init() and HAL_TIMEx_ConfigCommutEvent(): to use the
  52:Drivers/STM32F7xx_HAL_Driver/Src/stm32f7xx_hal_tim_ex.c ****                Timer Hall Sensor Interface and the commutation event with the corresponding
  53:Drivers/STM32F7xx_HAL_Driver/Src/stm32f7xx_hal_tim_ex.c ****                Interrupt and DMA request if needed (Note that One Timer is used to interface
  54:Drivers/STM32F7xx_HAL_Driver/Src/stm32f7xx_hal_tim_ex.c ****                with the Hall sensor Interface and another Timer should be used to use
  55:Drivers/STM32F7xx_HAL_Driver/Src/stm32f7xx_hal_tim_ex.c ****                the commutation event).
  56:Drivers/STM32F7xx_HAL_Driver/Src/stm32f7xx_hal_tim_ex.c **** 
  57:Drivers/STM32F7xx_HAL_Driver/Src/stm32f7xx_hal_tim_ex.c ****      (#) Activate the TIM peripheral using one of the start functions:
  58:Drivers/STM32F7xx_HAL_Driver/Src/stm32f7xx_hal_tim_ex.c ****            (++) Complementary Output Compare : HAL_TIMEx_OCN_Start(), HAL_TIMEx_OCN_Start_DMA(), HA
  59:Drivers/STM32F7xx_HAL_Driver/Src/stm32f7xx_hal_tim_ex.c ****            (++) Complementary PWM generation : HAL_TIMEx_PWMN_Start(), HAL_TIMEx_PWMN_Start_DMA(), 
  60:Drivers/STM32F7xx_HAL_Driver/Src/stm32f7xx_hal_tim_ex.c ****            (++) Complementary One-pulse mode output : HAL_TIMEx_OnePulseN_Start(), HAL_TIMEx_OnePul
  61:Drivers/STM32F7xx_HAL_Driver/Src/stm32f7xx_hal_tim_ex.c ****            (++) Hall Sensor output : HAL_TIMEx_HallSensor_Start(), HAL_TIMEx_HallSensor_Start_DMA()
  62:Drivers/STM32F7xx_HAL_Driver/Src/stm32f7xx_hal_tim_ex.c **** 
  63:Drivers/STM32F7xx_HAL_Driver/Src/stm32f7xx_hal_tim_ex.c ****   @endverbatim
  64:Drivers/STM32F7xx_HAL_Driver/Src/stm32f7xx_hal_tim_ex.c ****   ******************************************************************************
  65:Drivers/STM32F7xx_HAL_Driver/Src/stm32f7xx_hal_tim_ex.c ****   * @attention
  66:Drivers/STM32F7xx_HAL_Driver/Src/stm32f7xx_hal_tim_ex.c ****   *
  67:Drivers/STM32F7xx_HAL_Driver/Src/stm32f7xx_hal_tim_ex.c ****   * <h2><center>&copy; Copyright (c) 2017 STMicroelectronics.
  68:Drivers/STM32F7xx_HAL_Driver/Src/stm32f7xx_hal_tim_ex.c ****   * All rights reserved.</center></h2>
  69:Drivers/STM32F7xx_HAL_Driver/Src/stm32f7xx_hal_tim_ex.c ****   *
  70:Drivers/STM32F7xx_HAL_Driver/Src/stm32f7xx_hal_tim_ex.c ****   * This software component is licensed by ST under BSD 3-Clause license,
  71:Drivers/STM32F7xx_HAL_Driver/Src/stm32f7xx_hal_tim_ex.c ****   * the "License"; You may not use this file except in compliance with the
  72:Drivers/STM32F7xx_HAL_Driver/Src/stm32f7xx_hal_tim_ex.c ****   * License. You may obtain a copy of the License at:
  73:Drivers/STM32F7xx_HAL_Driver/Src/stm32f7xx_hal_tim_ex.c ****   *                        opensource.org/licenses/BSD-3-Clause
  74:Drivers/STM32F7xx_HAL_Driver/Src/stm32f7xx_hal_tim_ex.c ****   *
  75:Drivers/STM32F7xx_HAL_Driver/Src/stm32f7xx_hal_tim_ex.c ****   ******************************************************************************
  76:Drivers/STM32F7xx_HAL_Driver/Src/stm32f7xx_hal_tim_ex.c ****   */
  77:Drivers/STM32F7xx_HAL_Driver/Src/stm32f7xx_hal_tim_ex.c **** 
  78:Drivers/STM32F7xx_HAL_Driver/Src/stm32f7xx_hal_tim_ex.c **** /* Includes ------------------------------------------------------------------*/
  79:Drivers/STM32F7xx_HAL_Driver/Src/stm32f7xx_hal_tim_ex.c **** #include "stm32f7xx_hal.h"
  80:Drivers/STM32F7xx_HAL_Driver/Src/stm32f7xx_hal_tim_ex.c **** 
  81:Drivers/STM32F7xx_HAL_Driver/Src/stm32f7xx_hal_tim_ex.c **** /** @addtogroup STM32F7xx_HAL_Driver
  82:Drivers/STM32F7xx_HAL_Driver/Src/stm32f7xx_hal_tim_ex.c ****   * @{
  83:Drivers/STM32F7xx_HAL_Driver/Src/stm32f7xx_hal_tim_ex.c ****   */
  84:Drivers/STM32F7xx_HAL_Driver/Src/stm32f7xx_hal_tim_ex.c **** 
  85:Drivers/STM32F7xx_HAL_Driver/Src/stm32f7xx_hal_tim_ex.c **** /** @defgroup TIMEx TIMEx
  86:Drivers/STM32F7xx_HAL_Driver/Src/stm32f7xx_hal_tim_ex.c ****   * @brief TIM Extended HAL module driver
  87:Drivers/STM32F7xx_HAL_Driver/Src/stm32f7xx_hal_tim_ex.c ****   * @{
  88:Drivers/STM32F7xx_HAL_Driver/Src/stm32f7xx_hal_tim_ex.c ****   */
ARM GAS  /tmp/ccOFTjtU.s 			page 3


  89:Drivers/STM32F7xx_HAL_Driver/Src/stm32f7xx_hal_tim_ex.c **** 
  90:Drivers/STM32F7xx_HAL_Driver/Src/stm32f7xx_hal_tim_ex.c **** #ifdef HAL_TIM_MODULE_ENABLED
  91:Drivers/STM32F7xx_HAL_Driver/Src/stm32f7xx_hal_tim_ex.c **** 
  92:Drivers/STM32F7xx_HAL_Driver/Src/stm32f7xx_hal_tim_ex.c **** /* Private typedef -----------------------------------------------------------*/
  93:Drivers/STM32F7xx_HAL_Driver/Src/stm32f7xx_hal_tim_ex.c **** /* Private define ------------------------------------------------------------*/
  94:Drivers/STM32F7xx_HAL_Driver/Src/stm32f7xx_hal_tim_ex.c **** /* Private macros ------------------------------------------------------------*/
  95:Drivers/STM32F7xx_HAL_Driver/Src/stm32f7xx_hal_tim_ex.c **** /* Private variables ---------------------------------------------------------*/
  96:Drivers/STM32F7xx_HAL_Driver/Src/stm32f7xx_hal_tim_ex.c **** /* Private function prototypes -----------------------------------------------*/
  97:Drivers/STM32F7xx_HAL_Driver/Src/stm32f7xx_hal_tim_ex.c **** static void TIM_DMADelayPulseNCplt(DMA_HandleTypeDef *hdma);
  98:Drivers/STM32F7xx_HAL_Driver/Src/stm32f7xx_hal_tim_ex.c **** static void TIM_DMAErrorCCxN(DMA_HandleTypeDef *hdma);
  99:Drivers/STM32F7xx_HAL_Driver/Src/stm32f7xx_hal_tim_ex.c **** static void TIM_CCxNChannelCmd(TIM_TypeDef *TIMx, uint32_t Channel, uint32_t ChannelNState);
 100:Drivers/STM32F7xx_HAL_Driver/Src/stm32f7xx_hal_tim_ex.c **** 
 101:Drivers/STM32F7xx_HAL_Driver/Src/stm32f7xx_hal_tim_ex.c **** /* Exported functions --------------------------------------------------------*/
 102:Drivers/STM32F7xx_HAL_Driver/Src/stm32f7xx_hal_tim_ex.c **** /** @defgroup TIMEx_Exported_Functions TIM Extended Exported Functions
 103:Drivers/STM32F7xx_HAL_Driver/Src/stm32f7xx_hal_tim_ex.c ****   * @{
 104:Drivers/STM32F7xx_HAL_Driver/Src/stm32f7xx_hal_tim_ex.c ****   */
 105:Drivers/STM32F7xx_HAL_Driver/Src/stm32f7xx_hal_tim_ex.c **** 
 106:Drivers/STM32F7xx_HAL_Driver/Src/stm32f7xx_hal_tim_ex.c **** /** @defgroup TIMEx_Exported_Functions_Group1 Extended Timer Hall Sensor functions
 107:Drivers/STM32F7xx_HAL_Driver/Src/stm32f7xx_hal_tim_ex.c ****   * @brief    Timer Hall Sensor functions
 108:Drivers/STM32F7xx_HAL_Driver/Src/stm32f7xx_hal_tim_ex.c ****   *
 109:Drivers/STM32F7xx_HAL_Driver/Src/stm32f7xx_hal_tim_ex.c **** @verbatim
 110:Drivers/STM32F7xx_HAL_Driver/Src/stm32f7xx_hal_tim_ex.c ****   ==============================================================================
 111:Drivers/STM32F7xx_HAL_Driver/Src/stm32f7xx_hal_tim_ex.c ****                       ##### Timer Hall Sensor functions #####
 112:Drivers/STM32F7xx_HAL_Driver/Src/stm32f7xx_hal_tim_ex.c ****   ==============================================================================
 113:Drivers/STM32F7xx_HAL_Driver/Src/stm32f7xx_hal_tim_ex.c ****   [..]
 114:Drivers/STM32F7xx_HAL_Driver/Src/stm32f7xx_hal_tim_ex.c ****     This section provides functions allowing to:
 115:Drivers/STM32F7xx_HAL_Driver/Src/stm32f7xx_hal_tim_ex.c ****     (+) Initialize and configure TIM HAL Sensor.
 116:Drivers/STM32F7xx_HAL_Driver/Src/stm32f7xx_hal_tim_ex.c ****     (+) De-initialize TIM HAL Sensor.
 117:Drivers/STM32F7xx_HAL_Driver/Src/stm32f7xx_hal_tim_ex.c ****     (+) Start the Hall Sensor Interface.
 118:Drivers/STM32F7xx_HAL_Driver/Src/stm32f7xx_hal_tim_ex.c ****     (+) Stop the Hall Sensor Interface.
 119:Drivers/STM32F7xx_HAL_Driver/Src/stm32f7xx_hal_tim_ex.c ****     (+) Start the Hall Sensor Interface and enable interrupts.
 120:Drivers/STM32F7xx_HAL_Driver/Src/stm32f7xx_hal_tim_ex.c ****     (+) Stop the Hall Sensor Interface and disable interrupts.
 121:Drivers/STM32F7xx_HAL_Driver/Src/stm32f7xx_hal_tim_ex.c ****     (+) Start the Hall Sensor Interface and enable DMA transfers.
 122:Drivers/STM32F7xx_HAL_Driver/Src/stm32f7xx_hal_tim_ex.c ****     (+) Stop the Hall Sensor Interface and disable DMA transfers.
 123:Drivers/STM32F7xx_HAL_Driver/Src/stm32f7xx_hal_tim_ex.c **** 
 124:Drivers/STM32F7xx_HAL_Driver/Src/stm32f7xx_hal_tim_ex.c **** @endverbatim
 125:Drivers/STM32F7xx_HAL_Driver/Src/stm32f7xx_hal_tim_ex.c ****   * @{
 126:Drivers/STM32F7xx_HAL_Driver/Src/stm32f7xx_hal_tim_ex.c ****   */
 127:Drivers/STM32F7xx_HAL_Driver/Src/stm32f7xx_hal_tim_ex.c **** /**
 128:Drivers/STM32F7xx_HAL_Driver/Src/stm32f7xx_hal_tim_ex.c ****   * @brief  Initializes the TIM Hall Sensor Interface and initialize the associated handle.
 129:Drivers/STM32F7xx_HAL_Driver/Src/stm32f7xx_hal_tim_ex.c ****   * @note   When the timer instance is initialized in Hall Sensor Interface mode,
 130:Drivers/STM32F7xx_HAL_Driver/Src/stm32f7xx_hal_tim_ex.c ****   *         timer channels 1 and channel 2 are reserved and cannot be used for
 131:Drivers/STM32F7xx_HAL_Driver/Src/stm32f7xx_hal_tim_ex.c ****   *         other purpose.
 132:Drivers/STM32F7xx_HAL_Driver/Src/stm32f7xx_hal_tim_ex.c ****   * @param  htim TIM Hall Sensor Interface handle
 133:Drivers/STM32F7xx_HAL_Driver/Src/stm32f7xx_hal_tim_ex.c ****   * @param  sConfig TIM Hall Sensor configuration structure
 134:Drivers/STM32F7xx_HAL_Driver/Src/stm32f7xx_hal_tim_ex.c ****   * @retval HAL status
 135:Drivers/STM32F7xx_HAL_Driver/Src/stm32f7xx_hal_tim_ex.c ****   */
 136:Drivers/STM32F7xx_HAL_Driver/Src/stm32f7xx_hal_tim_ex.c **** HAL_StatusTypeDef HAL_TIMEx_HallSensor_Init(TIM_HandleTypeDef *htim, TIM_HallSensor_InitTypeDef *sC
 137:Drivers/STM32F7xx_HAL_Driver/Src/stm32f7xx_hal_tim_ex.c **** {
  28              		.loc 1 137 1
  29              		.cfi_startproc
  30              		@ args = 0, pretend = 0, frame = 40
  31              		@ frame_needed = 1, uses_anonymous_args = 0
  32 0000 80B5     		push	{r7, lr}
  33              	.LCFI0:
  34              		.cfi_def_cfa_offset 8
  35              		.cfi_offset 7, -8
ARM GAS  /tmp/ccOFTjtU.s 			page 4


  36              		.cfi_offset 14, -4
  37 0002 8AB0     		sub	sp, sp, #40
  38              	.LCFI1:
  39              		.cfi_def_cfa_offset 48
  40 0004 00AF     		add	r7, sp, #0
  41              	.LCFI2:
  42              		.cfi_def_cfa_register 7
  43 0006 7860     		str	r0, [r7, #4]
  44 0008 3960     		str	r1, [r7]
 138:Drivers/STM32F7xx_HAL_Driver/Src/stm32f7xx_hal_tim_ex.c ****   TIM_OC_InitTypeDef OC_Config;
 139:Drivers/STM32F7xx_HAL_Driver/Src/stm32f7xx_hal_tim_ex.c **** 
 140:Drivers/STM32F7xx_HAL_Driver/Src/stm32f7xx_hal_tim_ex.c ****   /* Check the TIM handle allocation */
 141:Drivers/STM32F7xx_HAL_Driver/Src/stm32f7xx_hal_tim_ex.c ****   if (htim == NULL)
  45              		.loc 1 141 6
  46 000a 7B68     		ldr	r3, [r7, #4]
  47 000c 002B     		cmp	r3, #0
  48 000e 01D1     		bne	.L2
 142:Drivers/STM32F7xx_HAL_Driver/Src/stm32f7xx_hal_tim_ex.c ****   {
 143:Drivers/STM32F7xx_HAL_Driver/Src/stm32f7xx_hal_tim_ex.c ****     return HAL_ERROR;
  49              		.loc 1 143 12
  50 0010 0123     		movs	r3, #1
  51 0012 9AE0     		b	.L5
  52              	.L2:
 144:Drivers/STM32F7xx_HAL_Driver/Src/stm32f7xx_hal_tim_ex.c ****   }
 145:Drivers/STM32F7xx_HAL_Driver/Src/stm32f7xx_hal_tim_ex.c **** 
 146:Drivers/STM32F7xx_HAL_Driver/Src/stm32f7xx_hal_tim_ex.c ****   /* Check the parameters */
 147:Drivers/STM32F7xx_HAL_Driver/Src/stm32f7xx_hal_tim_ex.c ****   assert_param(IS_TIM_HALL_SENSOR_INTERFACE_INSTANCE(htim->Instance));
 148:Drivers/STM32F7xx_HAL_Driver/Src/stm32f7xx_hal_tim_ex.c ****   assert_param(IS_TIM_COUNTER_MODE(htim->Init.CounterMode));
 149:Drivers/STM32F7xx_HAL_Driver/Src/stm32f7xx_hal_tim_ex.c ****   assert_param(IS_TIM_CLOCKDIVISION_DIV(htim->Init.ClockDivision));
 150:Drivers/STM32F7xx_HAL_Driver/Src/stm32f7xx_hal_tim_ex.c ****   assert_param(IS_TIM_AUTORELOAD_PRELOAD(htim->Init.AutoReloadPreload));
 151:Drivers/STM32F7xx_HAL_Driver/Src/stm32f7xx_hal_tim_ex.c ****   assert_param(IS_TIM_IC_POLARITY(sConfig->IC1Polarity));
 152:Drivers/STM32F7xx_HAL_Driver/Src/stm32f7xx_hal_tim_ex.c ****   assert_param(IS_TIM_IC_PRESCALER(sConfig->IC1Prescaler));
 153:Drivers/STM32F7xx_HAL_Driver/Src/stm32f7xx_hal_tim_ex.c ****   assert_param(IS_TIM_IC_FILTER(sConfig->IC1Filter));
 154:Drivers/STM32F7xx_HAL_Driver/Src/stm32f7xx_hal_tim_ex.c **** 
 155:Drivers/STM32F7xx_HAL_Driver/Src/stm32f7xx_hal_tim_ex.c ****   if (htim->State == HAL_TIM_STATE_RESET)
  53              		.loc 1 155 11
  54 0014 7B68     		ldr	r3, [r7, #4]
  55 0016 93F83D30 		ldrb	r3, [r3, #61]
  56 001a DBB2     		uxtb	r3, r3
  57              		.loc 1 155 6
  58 001c 002B     		cmp	r3, #0
  59 001e 06D1     		bne	.L4
 156:Drivers/STM32F7xx_HAL_Driver/Src/stm32f7xx_hal_tim_ex.c ****   {
 157:Drivers/STM32F7xx_HAL_Driver/Src/stm32f7xx_hal_tim_ex.c ****     /* Allocate lock resource and initialize it */
 158:Drivers/STM32F7xx_HAL_Driver/Src/stm32f7xx_hal_tim_ex.c ****     htim->Lock = HAL_UNLOCKED;
  60              		.loc 1 158 16
  61 0020 7B68     		ldr	r3, [r7, #4]
  62 0022 0022     		movs	r2, #0
  63 0024 83F83C20 		strb	r2, [r3, #60]
 159:Drivers/STM32F7xx_HAL_Driver/Src/stm32f7xx_hal_tim_ex.c **** 
 160:Drivers/STM32F7xx_HAL_Driver/Src/stm32f7xx_hal_tim_ex.c **** #if (USE_HAL_TIM_REGISTER_CALLBACKS == 1)
 161:Drivers/STM32F7xx_HAL_Driver/Src/stm32f7xx_hal_tim_ex.c ****     /* Reset interrupt callbacks to legacy week callbacks */
 162:Drivers/STM32F7xx_HAL_Driver/Src/stm32f7xx_hal_tim_ex.c ****     TIM_ResetCallback(htim);
 163:Drivers/STM32F7xx_HAL_Driver/Src/stm32f7xx_hal_tim_ex.c **** 
 164:Drivers/STM32F7xx_HAL_Driver/Src/stm32f7xx_hal_tim_ex.c ****     if (htim->HallSensor_MspInitCallback == NULL)
 165:Drivers/STM32F7xx_HAL_Driver/Src/stm32f7xx_hal_tim_ex.c ****     {
 166:Drivers/STM32F7xx_HAL_Driver/Src/stm32f7xx_hal_tim_ex.c ****       htim->HallSensor_MspInitCallback = HAL_TIMEx_HallSensor_MspInit;
ARM GAS  /tmp/ccOFTjtU.s 			page 5


 167:Drivers/STM32F7xx_HAL_Driver/Src/stm32f7xx_hal_tim_ex.c ****     }
 168:Drivers/STM32F7xx_HAL_Driver/Src/stm32f7xx_hal_tim_ex.c ****     /* Init the low level hardware : GPIO, CLOCK, NVIC */
 169:Drivers/STM32F7xx_HAL_Driver/Src/stm32f7xx_hal_tim_ex.c ****     htim->HallSensor_MspInitCallback(htim);
 170:Drivers/STM32F7xx_HAL_Driver/Src/stm32f7xx_hal_tim_ex.c **** #else
 171:Drivers/STM32F7xx_HAL_Driver/Src/stm32f7xx_hal_tim_ex.c ****     /* Init the low level hardware : GPIO, CLOCK, NVIC and DMA */
 172:Drivers/STM32F7xx_HAL_Driver/Src/stm32f7xx_hal_tim_ex.c ****     HAL_TIMEx_HallSensor_MspInit(htim);
  64              		.loc 1 172 5
  65 0028 7868     		ldr	r0, [r7, #4]
  66 002a FFF7FEFF 		bl	HAL_TIMEx_HallSensor_MspInit
  67              	.L4:
 173:Drivers/STM32F7xx_HAL_Driver/Src/stm32f7xx_hal_tim_ex.c **** #endif /* USE_HAL_TIM_REGISTER_CALLBACKS */
 174:Drivers/STM32F7xx_HAL_Driver/Src/stm32f7xx_hal_tim_ex.c ****   }
 175:Drivers/STM32F7xx_HAL_Driver/Src/stm32f7xx_hal_tim_ex.c **** 
 176:Drivers/STM32F7xx_HAL_Driver/Src/stm32f7xx_hal_tim_ex.c ****   /* Set the TIM state */
 177:Drivers/STM32F7xx_HAL_Driver/Src/stm32f7xx_hal_tim_ex.c ****   htim->State = HAL_TIM_STATE_BUSY;
  68              		.loc 1 177 15
  69 002e 7B68     		ldr	r3, [r7, #4]
  70 0030 0222     		movs	r2, #2
  71 0032 83F83D20 		strb	r2, [r3, #61]
 178:Drivers/STM32F7xx_HAL_Driver/Src/stm32f7xx_hal_tim_ex.c **** 
 179:Drivers/STM32F7xx_HAL_Driver/Src/stm32f7xx_hal_tim_ex.c ****   /* Configure the Time base in the Encoder Mode */
 180:Drivers/STM32F7xx_HAL_Driver/Src/stm32f7xx_hal_tim_ex.c ****   TIM_Base_SetConfig(htim->Instance, &htim->Init);
  72              		.loc 1 180 3
  73 0036 7B68     		ldr	r3, [r7, #4]
  74 0038 1A68     		ldr	r2, [r3]
  75 003a 7B68     		ldr	r3, [r7, #4]
  76 003c 0433     		adds	r3, r3, #4
  77 003e 1946     		mov	r1, r3
  78 0040 1046     		mov	r0, r2
  79 0042 FFF7FEFF 		bl	TIM_Base_SetConfig
 181:Drivers/STM32F7xx_HAL_Driver/Src/stm32f7xx_hal_tim_ex.c **** 
 182:Drivers/STM32F7xx_HAL_Driver/Src/stm32f7xx_hal_tim_ex.c ****   /* Configure the Channel 1 as Input Channel to interface with the three Outputs of the  Hall sens
 183:Drivers/STM32F7xx_HAL_Driver/Src/stm32f7xx_hal_tim_ex.c ****   TIM_TI1_SetConfig(htim->Instance, sConfig->IC1Polarity, TIM_ICSELECTION_TRC, sConfig->IC1Filter);
  80              		.loc 1 183 3
  81 0046 7B68     		ldr	r3, [r7, #4]
  82 0048 1868     		ldr	r0, [r3]
  83 004a 3B68     		ldr	r3, [r7]
  84 004c 1968     		ldr	r1, [r3]
  85 004e 3B68     		ldr	r3, [r7]
  86 0050 9B68     		ldr	r3, [r3, #8]
  87 0052 0322     		movs	r2, #3
  88 0054 FFF7FEFF 		bl	TIM_TI1_SetConfig
 184:Drivers/STM32F7xx_HAL_Driver/Src/stm32f7xx_hal_tim_ex.c **** 
 185:Drivers/STM32F7xx_HAL_Driver/Src/stm32f7xx_hal_tim_ex.c ****   /* Reset the IC1PSC Bits */
 186:Drivers/STM32F7xx_HAL_Driver/Src/stm32f7xx_hal_tim_ex.c ****   htim->Instance->CCMR1 &= ~TIM_CCMR1_IC1PSC;
  89              		.loc 1 186 7
  90 0058 7B68     		ldr	r3, [r7, #4]
  91 005a 1B68     		ldr	r3, [r3]
  92              		.loc 1 186 25
  93 005c 9A69     		ldr	r2, [r3, #24]
  94              		.loc 1 186 7
  95 005e 7B68     		ldr	r3, [r7, #4]
  96 0060 1B68     		ldr	r3, [r3]
  97              		.loc 1 186 25
  98 0062 22F00C02 		bic	r2, r2, #12
  99 0066 9A61     		str	r2, [r3, #24]
 187:Drivers/STM32F7xx_HAL_Driver/Src/stm32f7xx_hal_tim_ex.c ****   /* Set the IC1PSC value */
ARM GAS  /tmp/ccOFTjtU.s 			page 6


 188:Drivers/STM32F7xx_HAL_Driver/Src/stm32f7xx_hal_tim_ex.c ****   htim->Instance->CCMR1 |= sConfig->IC1Prescaler;
 100              		.loc 1 188 7
 101 0068 7B68     		ldr	r3, [r7, #4]
 102 006a 1B68     		ldr	r3, [r3]
 103              		.loc 1 188 25
 104 006c 9969     		ldr	r1, [r3, #24]
 105              		.loc 1 188 35
 106 006e 3B68     		ldr	r3, [r7]
 107 0070 5A68     		ldr	r2, [r3, #4]
 108              		.loc 1 188 7
 109 0072 7B68     		ldr	r3, [r7, #4]
 110 0074 1B68     		ldr	r3, [r3]
 111              		.loc 1 188 25
 112 0076 0A43     		orrs	r2, r2, r1
 113 0078 9A61     		str	r2, [r3, #24]
 189:Drivers/STM32F7xx_HAL_Driver/Src/stm32f7xx_hal_tim_ex.c **** 
 190:Drivers/STM32F7xx_HAL_Driver/Src/stm32f7xx_hal_tim_ex.c ****   /* Enable the Hall sensor interface (XOR function of the three inputs) */
 191:Drivers/STM32F7xx_HAL_Driver/Src/stm32f7xx_hal_tim_ex.c ****   htim->Instance->CR2 |= TIM_CR2_TI1S;
 114              		.loc 1 191 7
 115 007a 7B68     		ldr	r3, [r7, #4]
 116 007c 1B68     		ldr	r3, [r3]
 117              		.loc 1 191 23
 118 007e 5A68     		ldr	r2, [r3, #4]
 119              		.loc 1 191 7
 120 0080 7B68     		ldr	r3, [r7, #4]
 121 0082 1B68     		ldr	r3, [r3]
 122              		.loc 1 191 23
 123 0084 42F08002 		orr	r2, r2, #128
 124 0088 5A60     		str	r2, [r3, #4]
 192:Drivers/STM32F7xx_HAL_Driver/Src/stm32f7xx_hal_tim_ex.c **** 
 193:Drivers/STM32F7xx_HAL_Driver/Src/stm32f7xx_hal_tim_ex.c ****   /* Select the TIM_TS_TI1F_ED signal as Input trigger for the TIM */
 194:Drivers/STM32F7xx_HAL_Driver/Src/stm32f7xx_hal_tim_ex.c ****   htim->Instance->SMCR &= ~TIM_SMCR_TS;
 125              		.loc 1 194 7
 126 008a 7B68     		ldr	r3, [r7, #4]
 127 008c 1B68     		ldr	r3, [r3]
 128              		.loc 1 194 24
 129 008e 9A68     		ldr	r2, [r3, #8]
 130              		.loc 1 194 7
 131 0090 7B68     		ldr	r3, [r7, #4]
 132 0092 1B68     		ldr	r3, [r3]
 133              		.loc 1 194 24
 134 0094 22F07002 		bic	r2, r2, #112
 135 0098 9A60     		str	r2, [r3, #8]
 195:Drivers/STM32F7xx_HAL_Driver/Src/stm32f7xx_hal_tim_ex.c ****   htim->Instance->SMCR |= TIM_TS_TI1F_ED;
 136              		.loc 1 195 7
 137 009a 7B68     		ldr	r3, [r7, #4]
 138 009c 1B68     		ldr	r3, [r3]
 139              		.loc 1 195 24
 140 009e 9A68     		ldr	r2, [r3, #8]
 141              		.loc 1 195 7
 142 00a0 7B68     		ldr	r3, [r7, #4]
 143 00a2 1B68     		ldr	r3, [r3]
 144              		.loc 1 195 24
 145 00a4 42F04002 		orr	r2, r2, #64
 146 00a8 9A60     		str	r2, [r3, #8]
 196:Drivers/STM32F7xx_HAL_Driver/Src/stm32f7xx_hal_tim_ex.c **** 
 197:Drivers/STM32F7xx_HAL_Driver/Src/stm32f7xx_hal_tim_ex.c ****   /* Use the TIM_TS_TI1F_ED signal to reset the TIM counter each edge detection */
ARM GAS  /tmp/ccOFTjtU.s 			page 7


 198:Drivers/STM32F7xx_HAL_Driver/Src/stm32f7xx_hal_tim_ex.c ****   htim->Instance->SMCR &= ~TIM_SMCR_SMS;
 147              		.loc 1 198 7
 148 00aa 7B68     		ldr	r3, [r7, #4]
 149 00ac 1B68     		ldr	r3, [r3]
 150              		.loc 1 198 24
 151 00ae 9968     		ldr	r1, [r3, #8]
 152              		.loc 1 198 7
 153 00b0 7B68     		ldr	r3, [r7, #4]
 154 00b2 1A68     		ldr	r2, [r3]
 155              		.loc 1 198 24
 156 00b4 274B     		ldr	r3, .L6
 157 00b6 0B40     		ands	r3, r3, r1
 158 00b8 9360     		str	r3, [r2, #8]
 199:Drivers/STM32F7xx_HAL_Driver/Src/stm32f7xx_hal_tim_ex.c ****   htim->Instance->SMCR |= TIM_SLAVEMODE_RESET;
 159              		.loc 1 199 7
 160 00ba 7B68     		ldr	r3, [r7, #4]
 161 00bc 1B68     		ldr	r3, [r3]
 162              		.loc 1 199 24
 163 00be 9A68     		ldr	r2, [r3, #8]
 164              		.loc 1 199 7
 165 00c0 7B68     		ldr	r3, [r7, #4]
 166 00c2 1B68     		ldr	r3, [r3]
 167              		.loc 1 199 24
 168 00c4 42F00402 		orr	r2, r2, #4
 169 00c8 9A60     		str	r2, [r3, #8]
 200:Drivers/STM32F7xx_HAL_Driver/Src/stm32f7xx_hal_tim_ex.c **** 
 201:Drivers/STM32F7xx_HAL_Driver/Src/stm32f7xx_hal_tim_ex.c ****   /* Program channel 2 in PWM 2 mode with the desired Commutation_Delay*/
 202:Drivers/STM32F7xx_HAL_Driver/Src/stm32f7xx_hal_tim_ex.c ****   OC_Config.OCFastMode = TIM_OCFAST_DISABLE;
 170              		.loc 1 202 24
 171 00ca 0023     		movs	r3, #0
 172 00cc FB61     		str	r3, [r7, #28]
 203:Drivers/STM32F7xx_HAL_Driver/Src/stm32f7xx_hal_tim_ex.c ****   OC_Config.OCIdleState = TIM_OCIDLESTATE_RESET;
 173              		.loc 1 203 25
 174 00ce 0023     		movs	r3, #0
 175 00d0 3B62     		str	r3, [r7, #32]
 204:Drivers/STM32F7xx_HAL_Driver/Src/stm32f7xx_hal_tim_ex.c ****   OC_Config.OCMode = TIM_OCMODE_PWM2;
 176              		.loc 1 204 20
 177 00d2 7023     		movs	r3, #112
 178 00d4 FB60     		str	r3, [r7, #12]
 205:Drivers/STM32F7xx_HAL_Driver/Src/stm32f7xx_hal_tim_ex.c ****   OC_Config.OCNIdleState = TIM_OCNIDLESTATE_RESET;
 179              		.loc 1 205 26
 180 00d6 0023     		movs	r3, #0
 181 00d8 7B62     		str	r3, [r7, #36]
 206:Drivers/STM32F7xx_HAL_Driver/Src/stm32f7xx_hal_tim_ex.c ****   OC_Config.OCNPolarity = TIM_OCNPOLARITY_HIGH;
 182              		.loc 1 206 25
 183 00da 0023     		movs	r3, #0
 184 00dc BB61     		str	r3, [r7, #24]
 207:Drivers/STM32F7xx_HAL_Driver/Src/stm32f7xx_hal_tim_ex.c ****   OC_Config.OCPolarity = TIM_OCPOLARITY_HIGH;
 185              		.loc 1 207 24
 186 00de 0023     		movs	r3, #0
 187 00e0 7B61     		str	r3, [r7, #20]
 208:Drivers/STM32F7xx_HAL_Driver/Src/stm32f7xx_hal_tim_ex.c ****   OC_Config.Pulse = sConfig->Commutation_Delay;
 188              		.loc 1 208 28
 189 00e2 3B68     		ldr	r3, [r7]
 190 00e4 DB68     		ldr	r3, [r3, #12]
 191              		.loc 1 208 19
 192 00e6 3B61     		str	r3, [r7, #16]
ARM GAS  /tmp/ccOFTjtU.s 			page 8


 209:Drivers/STM32F7xx_HAL_Driver/Src/stm32f7xx_hal_tim_ex.c **** 
 210:Drivers/STM32F7xx_HAL_Driver/Src/stm32f7xx_hal_tim_ex.c ****   TIM_OC2_SetConfig(htim->Instance, &OC_Config);
 193              		.loc 1 210 3
 194 00e8 7B68     		ldr	r3, [r7, #4]
 195 00ea 1B68     		ldr	r3, [r3]
 196 00ec 07F10C02 		add	r2, r7, #12
 197 00f0 1146     		mov	r1, r2
 198 00f2 1846     		mov	r0, r3
 199 00f4 FFF7FEFF 		bl	TIM_OC2_SetConfig
 211:Drivers/STM32F7xx_HAL_Driver/Src/stm32f7xx_hal_tim_ex.c **** 
 212:Drivers/STM32F7xx_HAL_Driver/Src/stm32f7xx_hal_tim_ex.c ****   /* Select OC2REF as trigger output on TRGO: write the MMS bits in the TIMx_CR2
 213:Drivers/STM32F7xx_HAL_Driver/Src/stm32f7xx_hal_tim_ex.c ****     register to 101 */
 214:Drivers/STM32F7xx_HAL_Driver/Src/stm32f7xx_hal_tim_ex.c ****   htim->Instance->CR2 &= ~TIM_CR2_MMS;
 200              		.loc 1 214 7
 201 00f8 7B68     		ldr	r3, [r7, #4]
 202 00fa 1B68     		ldr	r3, [r3]
 203              		.loc 1 214 23
 204 00fc 5A68     		ldr	r2, [r3, #4]
 205              		.loc 1 214 7
 206 00fe 7B68     		ldr	r3, [r7, #4]
 207 0100 1B68     		ldr	r3, [r3]
 208              		.loc 1 214 23
 209 0102 22F07002 		bic	r2, r2, #112
 210 0106 5A60     		str	r2, [r3, #4]
 215:Drivers/STM32F7xx_HAL_Driver/Src/stm32f7xx_hal_tim_ex.c ****   htim->Instance->CR2 |= TIM_TRGO_OC2REF;
 211              		.loc 1 215 7
 212 0108 7B68     		ldr	r3, [r7, #4]
 213 010a 1B68     		ldr	r3, [r3]
 214              		.loc 1 215 23
 215 010c 5A68     		ldr	r2, [r3, #4]
 216              		.loc 1 215 7
 217 010e 7B68     		ldr	r3, [r7, #4]
 218 0110 1B68     		ldr	r3, [r3]
 219              		.loc 1 215 23
 220 0112 42F05002 		orr	r2, r2, #80
 221 0116 5A60     		str	r2, [r3, #4]
 216:Drivers/STM32F7xx_HAL_Driver/Src/stm32f7xx_hal_tim_ex.c **** 
 217:Drivers/STM32F7xx_HAL_Driver/Src/stm32f7xx_hal_tim_ex.c ****   /* Initialize the DMA burst operation state */
 218:Drivers/STM32F7xx_HAL_Driver/Src/stm32f7xx_hal_tim_ex.c ****   htim->DMABurstState = HAL_DMA_BURST_STATE_READY;
 222              		.loc 1 218 23
 223 0118 7B68     		ldr	r3, [r7, #4]
 224 011a 0122     		movs	r2, #1
 225 011c 83F84820 		strb	r2, [r3, #72]
 219:Drivers/STM32F7xx_HAL_Driver/Src/stm32f7xx_hal_tim_ex.c **** 
 220:Drivers/STM32F7xx_HAL_Driver/Src/stm32f7xx_hal_tim_ex.c ****   /* Initialize the TIM channels state */
 221:Drivers/STM32F7xx_HAL_Driver/Src/stm32f7xx_hal_tim_ex.c ****   TIM_CHANNEL_STATE_SET(htim, TIM_CHANNEL_1, HAL_TIM_CHANNEL_STATE_READY);
 226              		.loc 1 221 3
 227 0120 7B68     		ldr	r3, [r7, #4]
 228 0122 0122     		movs	r2, #1
 229 0124 83F83E20 		strb	r2, [r3, #62]
 222:Drivers/STM32F7xx_HAL_Driver/Src/stm32f7xx_hal_tim_ex.c ****   TIM_CHANNEL_STATE_SET(htim, TIM_CHANNEL_2, HAL_TIM_CHANNEL_STATE_READY);
 230              		.loc 1 222 3
 231 0128 7B68     		ldr	r3, [r7, #4]
 232 012a 0122     		movs	r2, #1
 233 012c 83F83F20 		strb	r2, [r3, #63]
 223:Drivers/STM32F7xx_HAL_Driver/Src/stm32f7xx_hal_tim_ex.c ****   TIM_CHANNEL_N_STATE_SET(htim, TIM_CHANNEL_1, HAL_TIM_CHANNEL_STATE_READY);
 234              		.loc 1 223 3
ARM GAS  /tmp/ccOFTjtU.s 			page 9


 235 0130 7B68     		ldr	r3, [r7, #4]
 236 0132 0122     		movs	r2, #1
 237 0134 83F84420 		strb	r2, [r3, #68]
 224:Drivers/STM32F7xx_HAL_Driver/Src/stm32f7xx_hal_tim_ex.c ****   TIM_CHANNEL_N_STATE_SET(htim, TIM_CHANNEL_2, HAL_TIM_CHANNEL_STATE_READY);
 238              		.loc 1 224 3
 239 0138 7B68     		ldr	r3, [r7, #4]
 240 013a 0122     		movs	r2, #1
 241 013c 83F84520 		strb	r2, [r3, #69]
 225:Drivers/STM32F7xx_HAL_Driver/Src/stm32f7xx_hal_tim_ex.c **** 
 226:Drivers/STM32F7xx_HAL_Driver/Src/stm32f7xx_hal_tim_ex.c ****   /* Initialize the TIM state*/
 227:Drivers/STM32F7xx_HAL_Driver/Src/stm32f7xx_hal_tim_ex.c ****   htim->State = HAL_TIM_STATE_READY;
 242              		.loc 1 227 15
 243 0140 7B68     		ldr	r3, [r7, #4]
 244 0142 0122     		movs	r2, #1
 245 0144 83F83D20 		strb	r2, [r3, #61]
 228:Drivers/STM32F7xx_HAL_Driver/Src/stm32f7xx_hal_tim_ex.c **** 
 229:Drivers/STM32F7xx_HAL_Driver/Src/stm32f7xx_hal_tim_ex.c ****   return HAL_OK;
 246              		.loc 1 229 10
 247 0148 0023     		movs	r3, #0
 248              	.L5:
 230:Drivers/STM32F7xx_HAL_Driver/Src/stm32f7xx_hal_tim_ex.c **** }
 249              		.loc 1 230 1 discriminator 1
 250 014a 1846     		mov	r0, r3
 251 014c 2837     		adds	r7, r7, #40
 252              	.LCFI3:
 253              		.cfi_def_cfa_offset 8
 254 014e BD46     		mov	sp, r7
 255              	.LCFI4:
 256              		.cfi_def_cfa_register 13
 257              		@ sp needed
 258 0150 80BD     		pop	{r7, pc}
 259              	.L7:
 260 0152 00BF     		.align	2
 261              	.L6:
 262 0154 F8FFFEFF 		.word	-65544
 263              		.cfi_endproc
 264              	.LFE141:
 266              		.section	.text.HAL_TIMEx_HallSensor_DeInit,"ax",%progbits
 267              		.align	1
 268              		.global	HAL_TIMEx_HallSensor_DeInit
 269              		.syntax unified
 270              		.thumb
 271              		.thumb_func
 272              		.fpu fpv5-d16
 274              	HAL_TIMEx_HallSensor_DeInit:
 275              	.LFB142:
 231:Drivers/STM32F7xx_HAL_Driver/Src/stm32f7xx_hal_tim_ex.c **** 
 232:Drivers/STM32F7xx_HAL_Driver/Src/stm32f7xx_hal_tim_ex.c **** /**
 233:Drivers/STM32F7xx_HAL_Driver/Src/stm32f7xx_hal_tim_ex.c ****   * @brief  DeInitializes the TIM Hall Sensor interface
 234:Drivers/STM32F7xx_HAL_Driver/Src/stm32f7xx_hal_tim_ex.c ****   * @param  htim TIM Hall Sensor Interface handle
 235:Drivers/STM32F7xx_HAL_Driver/Src/stm32f7xx_hal_tim_ex.c ****   * @retval HAL status
 236:Drivers/STM32F7xx_HAL_Driver/Src/stm32f7xx_hal_tim_ex.c ****   */
 237:Drivers/STM32F7xx_HAL_Driver/Src/stm32f7xx_hal_tim_ex.c **** HAL_StatusTypeDef HAL_TIMEx_HallSensor_DeInit(TIM_HandleTypeDef *htim)
 238:Drivers/STM32F7xx_HAL_Driver/Src/stm32f7xx_hal_tim_ex.c **** {
 276              		.loc 1 238 1
 277              		.cfi_startproc
 278              		@ args = 0, pretend = 0, frame = 8
ARM GAS  /tmp/ccOFTjtU.s 			page 10


 279              		@ frame_needed = 1, uses_anonymous_args = 0
 280 0000 80B5     		push	{r7, lr}
 281              	.LCFI5:
 282              		.cfi_def_cfa_offset 8
 283              		.cfi_offset 7, -8
 284              		.cfi_offset 14, -4
 285 0002 82B0     		sub	sp, sp, #8
 286              	.LCFI6:
 287              		.cfi_def_cfa_offset 16
 288 0004 00AF     		add	r7, sp, #0
 289              	.LCFI7:
 290              		.cfi_def_cfa_register 7
 291 0006 7860     		str	r0, [r7, #4]
 239:Drivers/STM32F7xx_HAL_Driver/Src/stm32f7xx_hal_tim_ex.c ****   /* Check the parameters */
 240:Drivers/STM32F7xx_HAL_Driver/Src/stm32f7xx_hal_tim_ex.c ****   assert_param(IS_TIM_INSTANCE(htim->Instance));
 241:Drivers/STM32F7xx_HAL_Driver/Src/stm32f7xx_hal_tim_ex.c **** 
 242:Drivers/STM32F7xx_HAL_Driver/Src/stm32f7xx_hal_tim_ex.c ****   htim->State = HAL_TIM_STATE_BUSY;
 292              		.loc 1 242 15
 293 0008 7B68     		ldr	r3, [r7, #4]
 294 000a 0222     		movs	r2, #2
 295 000c 83F83D20 		strb	r2, [r3, #61]
 243:Drivers/STM32F7xx_HAL_Driver/Src/stm32f7xx_hal_tim_ex.c **** 
 244:Drivers/STM32F7xx_HAL_Driver/Src/stm32f7xx_hal_tim_ex.c ****   /* Disable the TIM Peripheral Clock */
 245:Drivers/STM32F7xx_HAL_Driver/Src/stm32f7xx_hal_tim_ex.c ****   __HAL_TIM_DISABLE(htim);
 296              		.loc 1 245 3
 297 0010 7B68     		ldr	r3, [r7, #4]
 298 0012 1B68     		ldr	r3, [r3]
 299 0014 1A6A     		ldr	r2, [r3, #32]
 300 0016 41F21113 		movw	r3, #4369
 301 001a 1340     		ands	r3, r3, r2
 302 001c 002B     		cmp	r3, #0
 303 001e 0FD1     		bne	.L9
 304              		.loc 1 245 3 is_stmt 0 discriminator 1
 305 0020 7B68     		ldr	r3, [r7, #4]
 306 0022 1B68     		ldr	r3, [r3]
 307 0024 1A6A     		ldr	r2, [r3, #32]
 308 0026 40F24443 		movw	r3, #1092
 309 002a 1340     		ands	r3, r3, r2
 310 002c 002B     		cmp	r3, #0
 311 002e 07D1     		bne	.L9
 312              		.loc 1 245 3 discriminator 2
 313 0030 7B68     		ldr	r3, [r7, #4]
 314 0032 1B68     		ldr	r3, [r3]
 315 0034 1A68     		ldr	r2, [r3]
 316 0036 7B68     		ldr	r3, [r7, #4]
 317 0038 1B68     		ldr	r3, [r3]
 318 003a 22F00102 		bic	r2, r2, #1
 319 003e 1A60     		str	r2, [r3]
 320              	.L9:
 246:Drivers/STM32F7xx_HAL_Driver/Src/stm32f7xx_hal_tim_ex.c **** 
 247:Drivers/STM32F7xx_HAL_Driver/Src/stm32f7xx_hal_tim_ex.c **** #if (USE_HAL_TIM_REGISTER_CALLBACKS == 1)
 248:Drivers/STM32F7xx_HAL_Driver/Src/stm32f7xx_hal_tim_ex.c ****   if (htim->HallSensor_MspDeInitCallback == NULL)
 249:Drivers/STM32F7xx_HAL_Driver/Src/stm32f7xx_hal_tim_ex.c ****   {
 250:Drivers/STM32F7xx_HAL_Driver/Src/stm32f7xx_hal_tim_ex.c ****     htim->HallSensor_MspDeInitCallback = HAL_TIMEx_HallSensor_MspDeInit;
 251:Drivers/STM32F7xx_HAL_Driver/Src/stm32f7xx_hal_tim_ex.c ****   }
 252:Drivers/STM32F7xx_HAL_Driver/Src/stm32f7xx_hal_tim_ex.c ****   /* DeInit the low level hardware */
 253:Drivers/STM32F7xx_HAL_Driver/Src/stm32f7xx_hal_tim_ex.c ****   htim->HallSensor_MspDeInitCallback(htim);
ARM GAS  /tmp/ccOFTjtU.s 			page 11


 254:Drivers/STM32F7xx_HAL_Driver/Src/stm32f7xx_hal_tim_ex.c **** #else
 255:Drivers/STM32F7xx_HAL_Driver/Src/stm32f7xx_hal_tim_ex.c ****   /* DeInit the low level hardware: GPIO, CLOCK, NVIC */
 256:Drivers/STM32F7xx_HAL_Driver/Src/stm32f7xx_hal_tim_ex.c ****   HAL_TIMEx_HallSensor_MspDeInit(htim);
 321              		.loc 1 256 3 is_stmt 1
 322 0040 7868     		ldr	r0, [r7, #4]
 323 0042 FFF7FEFF 		bl	HAL_TIMEx_HallSensor_MspDeInit
 257:Drivers/STM32F7xx_HAL_Driver/Src/stm32f7xx_hal_tim_ex.c **** #endif /* USE_HAL_TIM_REGISTER_CALLBACKS */
 258:Drivers/STM32F7xx_HAL_Driver/Src/stm32f7xx_hal_tim_ex.c **** 
 259:Drivers/STM32F7xx_HAL_Driver/Src/stm32f7xx_hal_tim_ex.c ****   /* Change the DMA burst operation state */
 260:Drivers/STM32F7xx_HAL_Driver/Src/stm32f7xx_hal_tim_ex.c ****   htim->DMABurstState = HAL_DMA_BURST_STATE_RESET;
 324              		.loc 1 260 23
 325 0046 7B68     		ldr	r3, [r7, #4]
 326 0048 0022     		movs	r2, #0
 327 004a 83F84820 		strb	r2, [r3, #72]
 261:Drivers/STM32F7xx_HAL_Driver/Src/stm32f7xx_hal_tim_ex.c **** 
 262:Drivers/STM32F7xx_HAL_Driver/Src/stm32f7xx_hal_tim_ex.c ****   /* Change the TIM channels state */
 263:Drivers/STM32F7xx_HAL_Driver/Src/stm32f7xx_hal_tim_ex.c ****   TIM_CHANNEL_STATE_SET(htim, TIM_CHANNEL_1, HAL_TIM_CHANNEL_STATE_RESET);
 328              		.loc 1 263 3
 329 004e 7B68     		ldr	r3, [r7, #4]
 330 0050 0022     		movs	r2, #0
 331 0052 83F83E20 		strb	r2, [r3, #62]
 264:Drivers/STM32F7xx_HAL_Driver/Src/stm32f7xx_hal_tim_ex.c ****   TIM_CHANNEL_STATE_SET(htim, TIM_CHANNEL_2, HAL_TIM_CHANNEL_STATE_RESET);
 332              		.loc 1 264 3
 333 0056 7B68     		ldr	r3, [r7, #4]
 334 0058 0022     		movs	r2, #0
 335 005a 83F83F20 		strb	r2, [r3, #63]
 265:Drivers/STM32F7xx_HAL_Driver/Src/stm32f7xx_hal_tim_ex.c ****   TIM_CHANNEL_N_STATE_SET(htim, TIM_CHANNEL_1, HAL_TIM_CHANNEL_STATE_RESET);
 336              		.loc 1 265 3
 337 005e 7B68     		ldr	r3, [r7, #4]
 338 0060 0022     		movs	r2, #0
 339 0062 83F84420 		strb	r2, [r3, #68]
 266:Drivers/STM32F7xx_HAL_Driver/Src/stm32f7xx_hal_tim_ex.c ****   TIM_CHANNEL_N_STATE_SET(htim, TIM_CHANNEL_2, HAL_TIM_CHANNEL_STATE_RESET);
 340              		.loc 1 266 3
 341 0066 7B68     		ldr	r3, [r7, #4]
 342 0068 0022     		movs	r2, #0
 343 006a 83F84520 		strb	r2, [r3, #69]
 267:Drivers/STM32F7xx_HAL_Driver/Src/stm32f7xx_hal_tim_ex.c **** 
 268:Drivers/STM32F7xx_HAL_Driver/Src/stm32f7xx_hal_tim_ex.c ****   /* Change TIM state */
 269:Drivers/STM32F7xx_HAL_Driver/Src/stm32f7xx_hal_tim_ex.c ****   htim->State = HAL_TIM_STATE_RESET;
 344              		.loc 1 269 15
 345 006e 7B68     		ldr	r3, [r7, #4]
 346 0070 0022     		movs	r2, #0
 347 0072 83F83D20 		strb	r2, [r3, #61]
 270:Drivers/STM32F7xx_HAL_Driver/Src/stm32f7xx_hal_tim_ex.c **** 
 271:Drivers/STM32F7xx_HAL_Driver/Src/stm32f7xx_hal_tim_ex.c ****   /* Release Lock */
 272:Drivers/STM32F7xx_HAL_Driver/Src/stm32f7xx_hal_tim_ex.c ****   __HAL_UNLOCK(htim);
 348              		.loc 1 272 3
 349 0076 7B68     		ldr	r3, [r7, #4]
 350 0078 0022     		movs	r2, #0
 351 007a 83F83C20 		strb	r2, [r3, #60]
 273:Drivers/STM32F7xx_HAL_Driver/Src/stm32f7xx_hal_tim_ex.c **** 
 274:Drivers/STM32F7xx_HAL_Driver/Src/stm32f7xx_hal_tim_ex.c ****   return HAL_OK;
 352              		.loc 1 274 10
 353 007e 0023     		movs	r3, #0
 275:Drivers/STM32F7xx_HAL_Driver/Src/stm32f7xx_hal_tim_ex.c **** }
 354              		.loc 1 275 1
 355 0080 1846     		mov	r0, r3
ARM GAS  /tmp/ccOFTjtU.s 			page 12


 356 0082 0837     		adds	r7, r7, #8
 357              	.LCFI8:
 358              		.cfi_def_cfa_offset 8
 359 0084 BD46     		mov	sp, r7
 360              	.LCFI9:
 361              		.cfi_def_cfa_register 13
 362              		@ sp needed
 363 0086 80BD     		pop	{r7, pc}
 364              		.cfi_endproc
 365              	.LFE142:
 367              		.section	.text.HAL_TIMEx_HallSensor_MspInit,"ax",%progbits
 368              		.align	1
 369              		.weak	HAL_TIMEx_HallSensor_MspInit
 370              		.syntax unified
 371              		.thumb
 372              		.thumb_func
 373              		.fpu fpv5-d16
 375              	HAL_TIMEx_HallSensor_MspInit:
 376              	.LFB143:
 276:Drivers/STM32F7xx_HAL_Driver/Src/stm32f7xx_hal_tim_ex.c **** 
 277:Drivers/STM32F7xx_HAL_Driver/Src/stm32f7xx_hal_tim_ex.c **** /**
 278:Drivers/STM32F7xx_HAL_Driver/Src/stm32f7xx_hal_tim_ex.c ****   * @brief  Initializes the TIM Hall Sensor MSP.
 279:Drivers/STM32F7xx_HAL_Driver/Src/stm32f7xx_hal_tim_ex.c ****   * @param  htim TIM Hall Sensor Interface handle
 280:Drivers/STM32F7xx_HAL_Driver/Src/stm32f7xx_hal_tim_ex.c ****   * @retval None
 281:Drivers/STM32F7xx_HAL_Driver/Src/stm32f7xx_hal_tim_ex.c ****   */
 282:Drivers/STM32F7xx_HAL_Driver/Src/stm32f7xx_hal_tim_ex.c **** __weak void HAL_TIMEx_HallSensor_MspInit(TIM_HandleTypeDef *htim)
 283:Drivers/STM32F7xx_HAL_Driver/Src/stm32f7xx_hal_tim_ex.c **** {
 377              		.loc 1 283 1
 378              		.cfi_startproc
 379              		@ args = 0, pretend = 0, frame = 8
 380              		@ frame_needed = 1, uses_anonymous_args = 0
 381              		@ link register save eliminated.
 382 0000 80B4     		push	{r7}
 383              	.LCFI10:
 384              		.cfi_def_cfa_offset 4
 385              		.cfi_offset 7, -4
 386 0002 83B0     		sub	sp, sp, #12
 387              	.LCFI11:
 388              		.cfi_def_cfa_offset 16
 389 0004 00AF     		add	r7, sp, #0
 390              	.LCFI12:
 391              		.cfi_def_cfa_register 7
 392 0006 7860     		str	r0, [r7, #4]
 284:Drivers/STM32F7xx_HAL_Driver/Src/stm32f7xx_hal_tim_ex.c ****   /* Prevent unused argument(s) compilation warning */
 285:Drivers/STM32F7xx_HAL_Driver/Src/stm32f7xx_hal_tim_ex.c ****   UNUSED(htim);
 286:Drivers/STM32F7xx_HAL_Driver/Src/stm32f7xx_hal_tim_ex.c **** 
 287:Drivers/STM32F7xx_HAL_Driver/Src/stm32f7xx_hal_tim_ex.c ****   /* NOTE : This function should not be modified, when the callback is needed,
 288:Drivers/STM32F7xx_HAL_Driver/Src/stm32f7xx_hal_tim_ex.c ****             the HAL_TIMEx_HallSensor_MspInit could be implemented in the user file
 289:Drivers/STM32F7xx_HAL_Driver/Src/stm32f7xx_hal_tim_ex.c ****    */
 290:Drivers/STM32F7xx_HAL_Driver/Src/stm32f7xx_hal_tim_ex.c **** }
 393              		.loc 1 290 1
 394 0008 00BF     		nop
 395 000a 0C37     		adds	r7, r7, #12
 396              	.LCFI13:
 397              		.cfi_def_cfa_offset 4
 398 000c BD46     		mov	sp, r7
 399              	.LCFI14:
ARM GAS  /tmp/ccOFTjtU.s 			page 13


 400              		.cfi_def_cfa_register 13
 401              		@ sp needed
 402 000e 5DF8047B 		ldr	r7, [sp], #4
 403              	.LCFI15:
 404              		.cfi_restore 7
 405              		.cfi_def_cfa_offset 0
 406 0012 7047     		bx	lr
 407              		.cfi_endproc
 408              	.LFE143:
 410              		.section	.text.HAL_TIMEx_HallSensor_MspDeInit,"ax",%progbits
 411              		.align	1
 412              		.weak	HAL_TIMEx_HallSensor_MspDeInit
 413              		.syntax unified
 414              		.thumb
 415              		.thumb_func
 416              		.fpu fpv5-d16
 418              	HAL_TIMEx_HallSensor_MspDeInit:
 419              	.LFB144:
 291:Drivers/STM32F7xx_HAL_Driver/Src/stm32f7xx_hal_tim_ex.c **** 
 292:Drivers/STM32F7xx_HAL_Driver/Src/stm32f7xx_hal_tim_ex.c **** /**
 293:Drivers/STM32F7xx_HAL_Driver/Src/stm32f7xx_hal_tim_ex.c ****   * @brief  DeInitializes TIM Hall Sensor MSP.
 294:Drivers/STM32F7xx_HAL_Driver/Src/stm32f7xx_hal_tim_ex.c ****   * @param  htim TIM Hall Sensor Interface handle
 295:Drivers/STM32F7xx_HAL_Driver/Src/stm32f7xx_hal_tim_ex.c ****   * @retval None
 296:Drivers/STM32F7xx_HAL_Driver/Src/stm32f7xx_hal_tim_ex.c ****   */
 297:Drivers/STM32F7xx_HAL_Driver/Src/stm32f7xx_hal_tim_ex.c **** __weak void HAL_TIMEx_HallSensor_MspDeInit(TIM_HandleTypeDef *htim)
 298:Drivers/STM32F7xx_HAL_Driver/Src/stm32f7xx_hal_tim_ex.c **** {
 420              		.loc 1 298 1
 421              		.cfi_startproc
 422              		@ args = 0, pretend = 0, frame = 8
 423              		@ frame_needed = 1, uses_anonymous_args = 0
 424              		@ link register save eliminated.
 425 0000 80B4     		push	{r7}
 426              	.LCFI16:
 427              		.cfi_def_cfa_offset 4
 428              		.cfi_offset 7, -4
 429 0002 83B0     		sub	sp, sp, #12
 430              	.LCFI17:
 431              		.cfi_def_cfa_offset 16
 432 0004 00AF     		add	r7, sp, #0
 433              	.LCFI18:
 434              		.cfi_def_cfa_register 7
 435 0006 7860     		str	r0, [r7, #4]
 299:Drivers/STM32F7xx_HAL_Driver/Src/stm32f7xx_hal_tim_ex.c ****   /* Prevent unused argument(s) compilation warning */
 300:Drivers/STM32F7xx_HAL_Driver/Src/stm32f7xx_hal_tim_ex.c ****   UNUSED(htim);
 301:Drivers/STM32F7xx_HAL_Driver/Src/stm32f7xx_hal_tim_ex.c **** 
 302:Drivers/STM32F7xx_HAL_Driver/Src/stm32f7xx_hal_tim_ex.c ****   /* NOTE : This function should not be modified, when the callback is needed,
 303:Drivers/STM32F7xx_HAL_Driver/Src/stm32f7xx_hal_tim_ex.c ****             the HAL_TIMEx_HallSensor_MspDeInit could be implemented in the user file
 304:Drivers/STM32F7xx_HAL_Driver/Src/stm32f7xx_hal_tim_ex.c ****    */
 305:Drivers/STM32F7xx_HAL_Driver/Src/stm32f7xx_hal_tim_ex.c **** }
 436              		.loc 1 305 1
 437 0008 00BF     		nop
 438 000a 0C37     		adds	r7, r7, #12
 439              	.LCFI19:
 440              		.cfi_def_cfa_offset 4
 441 000c BD46     		mov	sp, r7
 442              	.LCFI20:
 443              		.cfi_def_cfa_register 13
ARM GAS  /tmp/ccOFTjtU.s 			page 14


 444              		@ sp needed
 445 000e 5DF8047B 		ldr	r7, [sp], #4
 446              	.LCFI21:
 447              		.cfi_restore 7
 448              		.cfi_def_cfa_offset 0
 449 0012 7047     		bx	lr
 450              		.cfi_endproc
 451              	.LFE144:
 453              		.section	.text.HAL_TIMEx_HallSensor_Start,"ax",%progbits
 454              		.align	1
 455              		.global	HAL_TIMEx_HallSensor_Start
 456              		.syntax unified
 457              		.thumb
 458              		.thumb_func
 459              		.fpu fpv5-d16
 461              	HAL_TIMEx_HallSensor_Start:
 462              	.LFB145:
 306:Drivers/STM32F7xx_HAL_Driver/Src/stm32f7xx_hal_tim_ex.c **** 
 307:Drivers/STM32F7xx_HAL_Driver/Src/stm32f7xx_hal_tim_ex.c **** /**
 308:Drivers/STM32F7xx_HAL_Driver/Src/stm32f7xx_hal_tim_ex.c ****   * @brief  Starts the TIM Hall Sensor Interface.
 309:Drivers/STM32F7xx_HAL_Driver/Src/stm32f7xx_hal_tim_ex.c ****   * @param  htim TIM Hall Sensor Interface handle
 310:Drivers/STM32F7xx_HAL_Driver/Src/stm32f7xx_hal_tim_ex.c ****   * @retval HAL status
 311:Drivers/STM32F7xx_HAL_Driver/Src/stm32f7xx_hal_tim_ex.c ****   */
 312:Drivers/STM32F7xx_HAL_Driver/Src/stm32f7xx_hal_tim_ex.c **** HAL_StatusTypeDef HAL_TIMEx_HallSensor_Start(TIM_HandleTypeDef *htim)
 313:Drivers/STM32F7xx_HAL_Driver/Src/stm32f7xx_hal_tim_ex.c **** {
 463              		.loc 1 313 1
 464              		.cfi_startproc
 465              		@ args = 0, pretend = 0, frame = 16
 466              		@ frame_needed = 1, uses_anonymous_args = 0
 467 0000 80B5     		push	{r7, lr}
 468              	.LCFI22:
 469              		.cfi_def_cfa_offset 8
 470              		.cfi_offset 7, -8
 471              		.cfi_offset 14, -4
 472 0002 84B0     		sub	sp, sp, #16
 473              	.LCFI23:
 474              		.cfi_def_cfa_offset 24
 475 0004 00AF     		add	r7, sp, #0
 476              	.LCFI24:
 477              		.cfi_def_cfa_register 7
 478 0006 7860     		str	r0, [r7, #4]
 314:Drivers/STM32F7xx_HAL_Driver/Src/stm32f7xx_hal_tim_ex.c ****   uint32_t tmpsmcr;
 315:Drivers/STM32F7xx_HAL_Driver/Src/stm32f7xx_hal_tim_ex.c ****   HAL_TIM_ChannelStateTypeDef channel_1_state = TIM_CHANNEL_STATE_GET(htim, TIM_CHANNEL_1);
 479              		.loc 1 315 31
 480 0008 7B68     		ldr	r3, [r7, #4]
 481 000a 93F83E30 		ldrb	r3, [r3, #62]
 482 000e FB73     		strb	r3, [r7, #15]
 316:Drivers/STM32F7xx_HAL_Driver/Src/stm32f7xx_hal_tim_ex.c ****   HAL_TIM_ChannelStateTypeDef channel_2_state = TIM_CHANNEL_STATE_GET(htim, TIM_CHANNEL_2);
 483              		.loc 1 316 31
 484 0010 7B68     		ldr	r3, [r7, #4]
 485 0012 93F83F30 		ldrb	r3, [r3, #63]
 486 0016 BB73     		strb	r3, [r7, #14]
 317:Drivers/STM32F7xx_HAL_Driver/Src/stm32f7xx_hal_tim_ex.c ****   HAL_TIM_ChannelStateTypeDef complementary_channel_1_state = TIM_CHANNEL_N_STATE_GET(htim, TIM_CHA
 487              		.loc 1 317 31
 488 0018 7B68     		ldr	r3, [r7, #4]
 489 001a 93F84430 		ldrb	r3, [r3, #68]
 490 001e 7B73     		strb	r3, [r7, #13]
ARM GAS  /tmp/ccOFTjtU.s 			page 15


 318:Drivers/STM32F7xx_HAL_Driver/Src/stm32f7xx_hal_tim_ex.c ****   HAL_TIM_ChannelStateTypeDef complementary_channel_2_state = TIM_CHANNEL_N_STATE_GET(htim, TIM_CHA
 491              		.loc 1 318 31
 492 0020 7B68     		ldr	r3, [r7, #4]
 493 0022 93F84530 		ldrb	r3, [r3, #69]
 494 0026 3B73     		strb	r3, [r7, #12]
 319:Drivers/STM32F7xx_HAL_Driver/Src/stm32f7xx_hal_tim_ex.c **** 
 320:Drivers/STM32F7xx_HAL_Driver/Src/stm32f7xx_hal_tim_ex.c ****   /* Check the parameters */
 321:Drivers/STM32F7xx_HAL_Driver/Src/stm32f7xx_hal_tim_ex.c ****   assert_param(IS_TIM_HALL_SENSOR_INTERFACE_INSTANCE(htim->Instance));
 322:Drivers/STM32F7xx_HAL_Driver/Src/stm32f7xx_hal_tim_ex.c **** 
 323:Drivers/STM32F7xx_HAL_Driver/Src/stm32f7xx_hal_tim_ex.c ****   /* Check the TIM channels state */
 324:Drivers/STM32F7xx_HAL_Driver/Src/stm32f7xx_hal_tim_ex.c ****   if ((channel_1_state != HAL_TIM_CHANNEL_STATE_READY)
 495              		.loc 1 324 6
 496 0028 FB7B     		ldrb	r3, [r7, #15]	@ zero_extendqisi2
 497 002a 012B     		cmp	r3, #1
 498 002c 08D1     		bne	.L14
 325:Drivers/STM32F7xx_HAL_Driver/Src/stm32f7xx_hal_tim_ex.c ****       || (channel_2_state != HAL_TIM_CHANNEL_STATE_READY)
 499              		.loc 1 325 7
 500 002e BB7B     		ldrb	r3, [r7, #14]	@ zero_extendqisi2
 501 0030 012B     		cmp	r3, #1
 502 0032 05D1     		bne	.L14
 326:Drivers/STM32F7xx_HAL_Driver/Src/stm32f7xx_hal_tim_ex.c ****       || (complementary_channel_1_state != HAL_TIM_CHANNEL_STATE_READY)
 503              		.loc 1 326 7
 504 0034 7B7B     		ldrb	r3, [r7, #13]	@ zero_extendqisi2
 505 0036 012B     		cmp	r3, #1
 506 0038 02D1     		bne	.L14
 327:Drivers/STM32F7xx_HAL_Driver/Src/stm32f7xx_hal_tim_ex.c ****       || (complementary_channel_2_state != HAL_TIM_CHANNEL_STATE_READY))
 507              		.loc 1 327 7
 508 003a 3B7B     		ldrb	r3, [r7, #12]	@ zero_extendqisi2
 509 003c 012B     		cmp	r3, #1
 510 003e 01D0     		beq	.L15
 511              	.L14:
 328:Drivers/STM32F7xx_HAL_Driver/Src/stm32f7xx_hal_tim_ex.c ****   {
 329:Drivers/STM32F7xx_HAL_Driver/Src/stm32f7xx_hal_tim_ex.c ****     return HAL_ERROR;
 512              		.loc 1 329 12
 513 0040 0123     		movs	r3, #1
 514 0042 5FE0     		b	.L16
 515              	.L15:
 330:Drivers/STM32F7xx_HAL_Driver/Src/stm32f7xx_hal_tim_ex.c ****   }
 331:Drivers/STM32F7xx_HAL_Driver/Src/stm32f7xx_hal_tim_ex.c **** 
 332:Drivers/STM32F7xx_HAL_Driver/Src/stm32f7xx_hal_tim_ex.c ****   /* Set the TIM channels state */
 333:Drivers/STM32F7xx_HAL_Driver/Src/stm32f7xx_hal_tim_ex.c ****   TIM_CHANNEL_STATE_SET(htim, TIM_CHANNEL_1, HAL_TIM_CHANNEL_STATE_BUSY);
 516              		.loc 1 333 3
 517 0044 7B68     		ldr	r3, [r7, #4]
 518 0046 0222     		movs	r2, #2
 519 0048 83F83E20 		strb	r2, [r3, #62]
 334:Drivers/STM32F7xx_HAL_Driver/Src/stm32f7xx_hal_tim_ex.c ****   TIM_CHANNEL_STATE_SET(htim, TIM_CHANNEL_2, HAL_TIM_CHANNEL_STATE_BUSY);
 520              		.loc 1 334 3
 521 004c 7B68     		ldr	r3, [r7, #4]
 522 004e 0222     		movs	r2, #2
 523 0050 83F83F20 		strb	r2, [r3, #63]
 335:Drivers/STM32F7xx_HAL_Driver/Src/stm32f7xx_hal_tim_ex.c ****   TIM_CHANNEL_N_STATE_SET(htim, TIM_CHANNEL_1, HAL_TIM_CHANNEL_STATE_BUSY);
 524              		.loc 1 335 3
 525 0054 7B68     		ldr	r3, [r7, #4]
 526 0056 0222     		movs	r2, #2
 527 0058 83F84420 		strb	r2, [r3, #68]
 336:Drivers/STM32F7xx_HAL_Driver/Src/stm32f7xx_hal_tim_ex.c ****   TIM_CHANNEL_N_STATE_SET(htim, TIM_CHANNEL_2, HAL_TIM_CHANNEL_STATE_BUSY);
 528              		.loc 1 336 3
ARM GAS  /tmp/ccOFTjtU.s 			page 16


 529 005c 7B68     		ldr	r3, [r7, #4]
 530 005e 0222     		movs	r2, #2
 531 0060 83F84520 		strb	r2, [r3, #69]
 337:Drivers/STM32F7xx_HAL_Driver/Src/stm32f7xx_hal_tim_ex.c **** 
 338:Drivers/STM32F7xx_HAL_Driver/Src/stm32f7xx_hal_tim_ex.c ****   /* Enable the Input Capture channel 1
 339:Drivers/STM32F7xx_HAL_Driver/Src/stm32f7xx_hal_tim_ex.c ****   (in the Hall Sensor Interface the three possible channels that can be used are TIM_CHANNEL_1, TIM
 340:Drivers/STM32F7xx_HAL_Driver/Src/stm32f7xx_hal_tim_ex.c ****   TIM_CCxChannelCmd(htim->Instance, TIM_CHANNEL_1, TIM_CCx_ENABLE);
 532              		.loc 1 340 3
 533 0064 7B68     		ldr	r3, [r7, #4]
 534 0066 1B68     		ldr	r3, [r3]
 535 0068 0122     		movs	r2, #1
 536 006a 0021     		movs	r1, #0
 537 006c 1846     		mov	r0, r3
 538 006e FFF7FEFF 		bl	TIM_CCxChannelCmd
 341:Drivers/STM32F7xx_HAL_Driver/Src/stm32f7xx_hal_tim_ex.c **** 
 342:Drivers/STM32F7xx_HAL_Driver/Src/stm32f7xx_hal_tim_ex.c ****   /* Enable the Peripheral, except in trigger mode where enable is automatically done with trigger 
 343:Drivers/STM32F7xx_HAL_Driver/Src/stm32f7xx_hal_tim_ex.c ****   if (IS_TIM_SLAVE_INSTANCE(htim->Instance))
 539              		.loc 1 343 7
 540 0072 7B68     		ldr	r3, [r7, #4]
 541 0074 1B68     		ldr	r3, [r3]
 542              		.loc 1 343 6
 543 0076 254A     		ldr	r2, .L22
 544 0078 9342     		cmp	r3, r2
 545 007a 22D0     		beq	.L17
 546              		.loc 1 343 7 discriminator 1
 547 007c 7B68     		ldr	r3, [r7, #4]
 548 007e 1B68     		ldr	r3, [r3]
 549 0080 B3F1804F 		cmp	r3, #1073741824
 550 0084 1DD0     		beq	.L17
 551              		.loc 1 343 7 is_stmt 0 discriminator 2
 552 0086 7B68     		ldr	r3, [r7, #4]
 553 0088 1B68     		ldr	r3, [r3]
 554 008a 214A     		ldr	r2, .L22+4
 555 008c 9342     		cmp	r3, r2
 556 008e 18D0     		beq	.L17
 557              		.loc 1 343 7 discriminator 3
 558 0090 7B68     		ldr	r3, [r7, #4]
 559 0092 1B68     		ldr	r3, [r3]
 560 0094 1F4A     		ldr	r2, .L22+8
 561 0096 9342     		cmp	r3, r2
 562 0098 13D0     		beq	.L17
 563              		.loc 1 343 7 discriminator 4
 564 009a 7B68     		ldr	r3, [r7, #4]
 565 009c 1B68     		ldr	r3, [r3]
 566 009e 1E4A     		ldr	r2, .L22+12
 567 00a0 9342     		cmp	r3, r2
 568 00a2 0ED0     		beq	.L17
 569              		.loc 1 343 7 discriminator 5
 570 00a4 7B68     		ldr	r3, [r7, #4]
 571 00a6 1B68     		ldr	r3, [r3]
 572 00a8 1C4A     		ldr	r2, .L22+16
 573 00aa 9342     		cmp	r3, r2
 574 00ac 09D0     		beq	.L17
 575              		.loc 1 343 7 discriminator 6
 576 00ae 7B68     		ldr	r3, [r7, #4]
 577 00b0 1B68     		ldr	r3, [r3]
 578 00b2 1B4A     		ldr	r2, .L22+20
ARM GAS  /tmp/ccOFTjtU.s 			page 17


 579 00b4 9342     		cmp	r3, r2
 580 00b6 04D0     		beq	.L17
 581              		.loc 1 343 7 discriminator 7
 582 00b8 7B68     		ldr	r3, [r7, #4]
 583 00ba 1B68     		ldr	r3, [r3]
 584 00bc 194A     		ldr	r2, .L22+24
 585 00be 9342     		cmp	r3, r2
 586 00c0 15D1     		bne	.L18
 587              	.L17:
 344:Drivers/STM32F7xx_HAL_Driver/Src/stm32f7xx_hal_tim_ex.c ****   {
 345:Drivers/STM32F7xx_HAL_Driver/Src/stm32f7xx_hal_tim_ex.c ****     tmpsmcr = htim->Instance->SMCR & TIM_SMCR_SMS;
 588              		.loc 1 345 19 is_stmt 1
 589 00c2 7B68     		ldr	r3, [r7, #4]
 590 00c4 1B68     		ldr	r3, [r3]
 591              		.loc 1 345 29
 592 00c6 9A68     		ldr	r2, [r3, #8]
 593              		.loc 1 345 13
 594 00c8 174B     		ldr	r3, .L22+28
 595 00ca 1340     		ands	r3, r3, r2
 596 00cc BB60     		str	r3, [r7, #8]
 346:Drivers/STM32F7xx_HAL_Driver/Src/stm32f7xx_hal_tim_ex.c ****     if (!IS_TIM_SLAVEMODE_TRIGGER_ENABLED(tmpsmcr))
 597              		.loc 1 346 8
 598 00ce BB68     		ldr	r3, [r7, #8]
 599 00d0 062B     		cmp	r3, #6
 600 00d2 15D0     		beq	.L21
 601              		.loc 1 346 9 discriminator 1
 602 00d4 BB68     		ldr	r3, [r7, #8]
 603 00d6 B3F5803F 		cmp	r3, #65536
 604 00da 11D0     		beq	.L21
 347:Drivers/STM32F7xx_HAL_Driver/Src/stm32f7xx_hal_tim_ex.c ****     {
 348:Drivers/STM32F7xx_HAL_Driver/Src/stm32f7xx_hal_tim_ex.c ****       __HAL_TIM_ENABLE(htim);
 605              		.loc 1 348 7
 606 00dc 7B68     		ldr	r3, [r7, #4]
 607 00de 1B68     		ldr	r3, [r3]
 608 00e0 1A68     		ldr	r2, [r3]
 609 00e2 7B68     		ldr	r3, [r7, #4]
 610 00e4 1B68     		ldr	r3, [r3]
 611 00e6 42F00102 		orr	r2, r2, #1
 612 00ea 1A60     		str	r2, [r3]
 346:Drivers/STM32F7xx_HAL_Driver/Src/stm32f7xx_hal_tim_ex.c ****     if (!IS_TIM_SLAVEMODE_TRIGGER_ENABLED(tmpsmcr))
 613              		.loc 1 346 8
 614 00ec 08E0     		b	.L21
 615              	.L18:
 349:Drivers/STM32F7xx_HAL_Driver/Src/stm32f7xx_hal_tim_ex.c ****     }
 350:Drivers/STM32F7xx_HAL_Driver/Src/stm32f7xx_hal_tim_ex.c ****   }
 351:Drivers/STM32F7xx_HAL_Driver/Src/stm32f7xx_hal_tim_ex.c ****   else
 352:Drivers/STM32F7xx_HAL_Driver/Src/stm32f7xx_hal_tim_ex.c ****   {
 353:Drivers/STM32F7xx_HAL_Driver/Src/stm32f7xx_hal_tim_ex.c ****     __HAL_TIM_ENABLE(htim);
 616              		.loc 1 353 5
 617 00ee 7B68     		ldr	r3, [r7, #4]
 618 00f0 1B68     		ldr	r3, [r3]
 619 00f2 1A68     		ldr	r2, [r3]
 620 00f4 7B68     		ldr	r3, [r7, #4]
 621 00f6 1B68     		ldr	r3, [r3]
 622 00f8 42F00102 		orr	r2, r2, #1
 623 00fc 1A60     		str	r2, [r3]
 624 00fe 00E0     		b	.L20
ARM GAS  /tmp/ccOFTjtU.s 			page 18


 625              	.L21:
 346:Drivers/STM32F7xx_HAL_Driver/Src/stm32f7xx_hal_tim_ex.c ****     {
 626              		.loc 1 346 8
 627 0100 00BF     		nop
 628              	.L20:
 354:Drivers/STM32F7xx_HAL_Driver/Src/stm32f7xx_hal_tim_ex.c ****   }
 355:Drivers/STM32F7xx_HAL_Driver/Src/stm32f7xx_hal_tim_ex.c **** 
 356:Drivers/STM32F7xx_HAL_Driver/Src/stm32f7xx_hal_tim_ex.c ****   /* Return function status */
 357:Drivers/STM32F7xx_HAL_Driver/Src/stm32f7xx_hal_tim_ex.c ****   return HAL_OK;
 629              		.loc 1 357 10
 630 0102 0023     		movs	r3, #0
 631              	.L16:
 358:Drivers/STM32F7xx_HAL_Driver/Src/stm32f7xx_hal_tim_ex.c **** }
 632              		.loc 1 358 1
 633 0104 1846     		mov	r0, r3
 634 0106 1037     		adds	r7, r7, #16
 635              	.LCFI25:
 636              		.cfi_def_cfa_offset 8
 637 0108 BD46     		mov	sp, r7
 638              	.LCFI26:
 639              		.cfi_def_cfa_register 13
 640              		@ sp needed
 641 010a 80BD     		pop	{r7, pc}
 642              	.L23:
 643              		.align	2
 644              	.L22:
 645 010c 00000140 		.word	1073807360
 646 0110 00040040 		.word	1073742848
 647 0114 00080040 		.word	1073743872
 648 0118 000C0040 		.word	1073744896
 649 011c 00040140 		.word	1073808384
 650 0120 00400140 		.word	1073823744
 651 0124 00180040 		.word	1073747968
 652 0128 07000100 		.word	65543
 653              		.cfi_endproc
 654              	.LFE145:
 656              		.section	.text.HAL_TIMEx_HallSensor_Stop,"ax",%progbits
 657              		.align	1
 658              		.global	HAL_TIMEx_HallSensor_Stop
 659              		.syntax unified
 660              		.thumb
 661              		.thumb_func
 662              		.fpu fpv5-d16
 664              	HAL_TIMEx_HallSensor_Stop:
 665              	.LFB146:
 359:Drivers/STM32F7xx_HAL_Driver/Src/stm32f7xx_hal_tim_ex.c **** 
 360:Drivers/STM32F7xx_HAL_Driver/Src/stm32f7xx_hal_tim_ex.c **** /**
 361:Drivers/STM32F7xx_HAL_Driver/Src/stm32f7xx_hal_tim_ex.c ****   * @brief  Stops the TIM Hall sensor Interface.
 362:Drivers/STM32F7xx_HAL_Driver/Src/stm32f7xx_hal_tim_ex.c ****   * @param  htim TIM Hall Sensor Interface handle
 363:Drivers/STM32F7xx_HAL_Driver/Src/stm32f7xx_hal_tim_ex.c ****   * @retval HAL status
 364:Drivers/STM32F7xx_HAL_Driver/Src/stm32f7xx_hal_tim_ex.c ****   */
 365:Drivers/STM32F7xx_HAL_Driver/Src/stm32f7xx_hal_tim_ex.c **** HAL_StatusTypeDef HAL_TIMEx_HallSensor_Stop(TIM_HandleTypeDef *htim)
 366:Drivers/STM32F7xx_HAL_Driver/Src/stm32f7xx_hal_tim_ex.c **** {
 666              		.loc 1 366 1
 667              		.cfi_startproc
 668              		@ args = 0, pretend = 0, frame = 8
 669              		@ frame_needed = 1, uses_anonymous_args = 0
ARM GAS  /tmp/ccOFTjtU.s 			page 19


 670 0000 80B5     		push	{r7, lr}
 671              	.LCFI27:
 672              		.cfi_def_cfa_offset 8
 673              		.cfi_offset 7, -8
 674              		.cfi_offset 14, -4
 675 0002 82B0     		sub	sp, sp, #8
 676              	.LCFI28:
 677              		.cfi_def_cfa_offset 16
 678 0004 00AF     		add	r7, sp, #0
 679              	.LCFI29:
 680              		.cfi_def_cfa_register 7
 681 0006 7860     		str	r0, [r7, #4]
 367:Drivers/STM32F7xx_HAL_Driver/Src/stm32f7xx_hal_tim_ex.c ****   /* Check the parameters */
 368:Drivers/STM32F7xx_HAL_Driver/Src/stm32f7xx_hal_tim_ex.c ****   assert_param(IS_TIM_HALL_SENSOR_INTERFACE_INSTANCE(htim->Instance));
 369:Drivers/STM32F7xx_HAL_Driver/Src/stm32f7xx_hal_tim_ex.c **** 
 370:Drivers/STM32F7xx_HAL_Driver/Src/stm32f7xx_hal_tim_ex.c ****   /* Disable the Input Capture channels 1, 2 and 3
 371:Drivers/STM32F7xx_HAL_Driver/Src/stm32f7xx_hal_tim_ex.c ****     (in the Hall Sensor Interface the three possible channels that can be used are TIM_CHANNEL_1, T
 372:Drivers/STM32F7xx_HAL_Driver/Src/stm32f7xx_hal_tim_ex.c ****   TIM_CCxChannelCmd(htim->Instance, TIM_CHANNEL_1, TIM_CCx_DISABLE);
 682              		.loc 1 372 3
 683 0008 7B68     		ldr	r3, [r7, #4]
 684 000a 1B68     		ldr	r3, [r3]
 685 000c 0022     		movs	r2, #0
 686 000e 0021     		movs	r1, #0
 687 0010 1846     		mov	r0, r3
 688 0012 FFF7FEFF 		bl	TIM_CCxChannelCmd
 373:Drivers/STM32F7xx_HAL_Driver/Src/stm32f7xx_hal_tim_ex.c **** 
 374:Drivers/STM32F7xx_HAL_Driver/Src/stm32f7xx_hal_tim_ex.c ****   /* Disable the Peripheral */
 375:Drivers/STM32F7xx_HAL_Driver/Src/stm32f7xx_hal_tim_ex.c ****   __HAL_TIM_DISABLE(htim);
 689              		.loc 1 375 3
 690 0016 7B68     		ldr	r3, [r7, #4]
 691 0018 1B68     		ldr	r3, [r3]
 692 001a 1A6A     		ldr	r2, [r3, #32]
 693 001c 41F21113 		movw	r3, #4369
 694 0020 1340     		ands	r3, r3, r2
 695 0022 002B     		cmp	r3, #0
 696 0024 0FD1     		bne	.L25
 697              		.loc 1 375 3 is_stmt 0 discriminator 1
 698 0026 7B68     		ldr	r3, [r7, #4]
 699 0028 1B68     		ldr	r3, [r3]
 700 002a 1A6A     		ldr	r2, [r3, #32]
 701 002c 40F24443 		movw	r3, #1092
 702 0030 1340     		ands	r3, r3, r2
 703 0032 002B     		cmp	r3, #0
 704 0034 07D1     		bne	.L25
 705              		.loc 1 375 3 discriminator 2
 706 0036 7B68     		ldr	r3, [r7, #4]
 707 0038 1B68     		ldr	r3, [r3]
 708 003a 1A68     		ldr	r2, [r3]
 709 003c 7B68     		ldr	r3, [r7, #4]
 710 003e 1B68     		ldr	r3, [r3]
 711 0040 22F00102 		bic	r2, r2, #1
 712 0044 1A60     		str	r2, [r3]
 713              	.L25:
 376:Drivers/STM32F7xx_HAL_Driver/Src/stm32f7xx_hal_tim_ex.c **** 
 377:Drivers/STM32F7xx_HAL_Driver/Src/stm32f7xx_hal_tim_ex.c ****   /* Set the TIM channels state */
 378:Drivers/STM32F7xx_HAL_Driver/Src/stm32f7xx_hal_tim_ex.c ****   TIM_CHANNEL_STATE_SET(htim, TIM_CHANNEL_1, HAL_TIM_CHANNEL_STATE_READY);
 714              		.loc 1 378 3 is_stmt 1
ARM GAS  /tmp/ccOFTjtU.s 			page 20


 715 0046 7B68     		ldr	r3, [r7, #4]
 716 0048 0122     		movs	r2, #1
 717 004a 83F83E20 		strb	r2, [r3, #62]
 379:Drivers/STM32F7xx_HAL_Driver/Src/stm32f7xx_hal_tim_ex.c ****   TIM_CHANNEL_STATE_SET(htim, TIM_CHANNEL_2, HAL_TIM_CHANNEL_STATE_READY);
 718              		.loc 1 379 3
 719 004e 7B68     		ldr	r3, [r7, #4]
 720 0050 0122     		movs	r2, #1
 721 0052 83F83F20 		strb	r2, [r3, #63]
 380:Drivers/STM32F7xx_HAL_Driver/Src/stm32f7xx_hal_tim_ex.c ****   TIM_CHANNEL_N_STATE_SET(htim, TIM_CHANNEL_1, HAL_TIM_CHANNEL_STATE_READY);
 722              		.loc 1 380 3
 723 0056 7B68     		ldr	r3, [r7, #4]
 724 0058 0122     		movs	r2, #1
 725 005a 83F84420 		strb	r2, [r3, #68]
 381:Drivers/STM32F7xx_HAL_Driver/Src/stm32f7xx_hal_tim_ex.c ****   TIM_CHANNEL_N_STATE_SET(htim, TIM_CHANNEL_2, HAL_TIM_CHANNEL_STATE_READY);
 726              		.loc 1 381 3
 727 005e 7B68     		ldr	r3, [r7, #4]
 728 0060 0122     		movs	r2, #1
 729 0062 83F84520 		strb	r2, [r3, #69]
 382:Drivers/STM32F7xx_HAL_Driver/Src/stm32f7xx_hal_tim_ex.c **** 
 383:Drivers/STM32F7xx_HAL_Driver/Src/stm32f7xx_hal_tim_ex.c ****   /* Return function status */
 384:Drivers/STM32F7xx_HAL_Driver/Src/stm32f7xx_hal_tim_ex.c ****   return HAL_OK;
 730              		.loc 1 384 10
 731 0066 0023     		movs	r3, #0
 385:Drivers/STM32F7xx_HAL_Driver/Src/stm32f7xx_hal_tim_ex.c **** }
 732              		.loc 1 385 1
 733 0068 1846     		mov	r0, r3
 734 006a 0837     		adds	r7, r7, #8
 735              	.LCFI30:
 736              		.cfi_def_cfa_offset 8
 737 006c BD46     		mov	sp, r7
 738              	.LCFI31:
 739              		.cfi_def_cfa_register 13
 740              		@ sp needed
 741 006e 80BD     		pop	{r7, pc}
 742              		.cfi_endproc
 743              	.LFE146:
 745              		.section	.text.HAL_TIMEx_HallSensor_Start_IT,"ax",%progbits
 746              		.align	1
 747              		.global	HAL_TIMEx_HallSensor_Start_IT
 748              		.syntax unified
 749              		.thumb
 750              		.thumb_func
 751              		.fpu fpv5-d16
 753              	HAL_TIMEx_HallSensor_Start_IT:
 754              	.LFB147:
 386:Drivers/STM32F7xx_HAL_Driver/Src/stm32f7xx_hal_tim_ex.c **** 
 387:Drivers/STM32F7xx_HAL_Driver/Src/stm32f7xx_hal_tim_ex.c **** /**
 388:Drivers/STM32F7xx_HAL_Driver/Src/stm32f7xx_hal_tim_ex.c ****   * @brief  Starts the TIM Hall Sensor Interface in interrupt mode.
 389:Drivers/STM32F7xx_HAL_Driver/Src/stm32f7xx_hal_tim_ex.c ****   * @param  htim TIM Hall Sensor Interface handle
 390:Drivers/STM32F7xx_HAL_Driver/Src/stm32f7xx_hal_tim_ex.c ****   * @retval HAL status
 391:Drivers/STM32F7xx_HAL_Driver/Src/stm32f7xx_hal_tim_ex.c ****   */
 392:Drivers/STM32F7xx_HAL_Driver/Src/stm32f7xx_hal_tim_ex.c **** HAL_StatusTypeDef HAL_TIMEx_HallSensor_Start_IT(TIM_HandleTypeDef *htim)
 393:Drivers/STM32F7xx_HAL_Driver/Src/stm32f7xx_hal_tim_ex.c **** {
 755              		.loc 1 393 1
 756              		.cfi_startproc
 757              		@ args = 0, pretend = 0, frame = 16
 758              		@ frame_needed = 1, uses_anonymous_args = 0
ARM GAS  /tmp/ccOFTjtU.s 			page 21


 759 0000 80B5     		push	{r7, lr}
 760              	.LCFI32:
 761              		.cfi_def_cfa_offset 8
 762              		.cfi_offset 7, -8
 763              		.cfi_offset 14, -4
 764 0002 84B0     		sub	sp, sp, #16
 765              	.LCFI33:
 766              		.cfi_def_cfa_offset 24
 767 0004 00AF     		add	r7, sp, #0
 768              	.LCFI34:
 769              		.cfi_def_cfa_register 7
 770 0006 7860     		str	r0, [r7, #4]
 394:Drivers/STM32F7xx_HAL_Driver/Src/stm32f7xx_hal_tim_ex.c ****   uint32_t tmpsmcr;
 395:Drivers/STM32F7xx_HAL_Driver/Src/stm32f7xx_hal_tim_ex.c ****   HAL_TIM_ChannelStateTypeDef channel_1_state = TIM_CHANNEL_STATE_GET(htim, TIM_CHANNEL_1);
 771              		.loc 1 395 31
 772 0008 7B68     		ldr	r3, [r7, #4]
 773 000a 93F83E30 		ldrb	r3, [r3, #62]
 774 000e FB73     		strb	r3, [r7, #15]
 396:Drivers/STM32F7xx_HAL_Driver/Src/stm32f7xx_hal_tim_ex.c ****   HAL_TIM_ChannelStateTypeDef channel_2_state = TIM_CHANNEL_STATE_GET(htim, TIM_CHANNEL_2);
 775              		.loc 1 396 31
 776 0010 7B68     		ldr	r3, [r7, #4]
 777 0012 93F83F30 		ldrb	r3, [r3, #63]
 778 0016 BB73     		strb	r3, [r7, #14]
 397:Drivers/STM32F7xx_HAL_Driver/Src/stm32f7xx_hal_tim_ex.c ****   HAL_TIM_ChannelStateTypeDef complementary_channel_1_state = TIM_CHANNEL_N_STATE_GET(htim, TIM_CHA
 779              		.loc 1 397 31
 780 0018 7B68     		ldr	r3, [r7, #4]
 781 001a 93F84430 		ldrb	r3, [r3, #68]
 782 001e 7B73     		strb	r3, [r7, #13]
 398:Drivers/STM32F7xx_HAL_Driver/Src/stm32f7xx_hal_tim_ex.c ****   HAL_TIM_ChannelStateTypeDef complementary_channel_2_state = TIM_CHANNEL_N_STATE_GET(htim, TIM_CHA
 783              		.loc 1 398 31
 784 0020 7B68     		ldr	r3, [r7, #4]
 785 0022 93F84530 		ldrb	r3, [r3, #69]
 786 0026 3B73     		strb	r3, [r7, #12]
 399:Drivers/STM32F7xx_HAL_Driver/Src/stm32f7xx_hal_tim_ex.c **** 
 400:Drivers/STM32F7xx_HAL_Driver/Src/stm32f7xx_hal_tim_ex.c ****   /* Check the parameters */
 401:Drivers/STM32F7xx_HAL_Driver/Src/stm32f7xx_hal_tim_ex.c ****   assert_param(IS_TIM_HALL_SENSOR_INTERFACE_INSTANCE(htim->Instance));
 402:Drivers/STM32F7xx_HAL_Driver/Src/stm32f7xx_hal_tim_ex.c **** 
 403:Drivers/STM32F7xx_HAL_Driver/Src/stm32f7xx_hal_tim_ex.c ****   /* Check the TIM channels state */
 404:Drivers/STM32F7xx_HAL_Driver/Src/stm32f7xx_hal_tim_ex.c ****   if ((channel_1_state != HAL_TIM_CHANNEL_STATE_READY)
 787              		.loc 1 404 6
 788 0028 FB7B     		ldrb	r3, [r7, #15]	@ zero_extendqisi2
 789 002a 012B     		cmp	r3, #1
 790 002c 08D1     		bne	.L28
 405:Drivers/STM32F7xx_HAL_Driver/Src/stm32f7xx_hal_tim_ex.c ****       || (channel_2_state != HAL_TIM_CHANNEL_STATE_READY)
 791              		.loc 1 405 7
 792 002e BB7B     		ldrb	r3, [r7, #14]	@ zero_extendqisi2
 793 0030 012B     		cmp	r3, #1
 794 0032 05D1     		bne	.L28
 406:Drivers/STM32F7xx_HAL_Driver/Src/stm32f7xx_hal_tim_ex.c ****       || (complementary_channel_1_state != HAL_TIM_CHANNEL_STATE_READY)
 795              		.loc 1 406 7
 796 0034 7B7B     		ldrb	r3, [r7, #13]	@ zero_extendqisi2
 797 0036 012B     		cmp	r3, #1
 798 0038 02D1     		bne	.L28
 407:Drivers/STM32F7xx_HAL_Driver/Src/stm32f7xx_hal_tim_ex.c ****       || (complementary_channel_2_state != HAL_TIM_CHANNEL_STATE_READY))
 799              		.loc 1 407 7
 800 003a 3B7B     		ldrb	r3, [r7, #12]	@ zero_extendqisi2
 801 003c 012B     		cmp	r3, #1
ARM GAS  /tmp/ccOFTjtU.s 			page 22


 802 003e 01D0     		beq	.L29
 803              	.L28:
 408:Drivers/STM32F7xx_HAL_Driver/Src/stm32f7xx_hal_tim_ex.c ****   {
 409:Drivers/STM32F7xx_HAL_Driver/Src/stm32f7xx_hal_tim_ex.c ****     return HAL_ERROR;
 804              		.loc 1 409 12
 805 0040 0123     		movs	r3, #1
 806 0042 67E0     		b	.L30
 807              	.L29:
 410:Drivers/STM32F7xx_HAL_Driver/Src/stm32f7xx_hal_tim_ex.c ****   }
 411:Drivers/STM32F7xx_HAL_Driver/Src/stm32f7xx_hal_tim_ex.c **** 
 412:Drivers/STM32F7xx_HAL_Driver/Src/stm32f7xx_hal_tim_ex.c ****   /* Set the TIM channels state */
 413:Drivers/STM32F7xx_HAL_Driver/Src/stm32f7xx_hal_tim_ex.c ****   TIM_CHANNEL_STATE_SET(htim, TIM_CHANNEL_1, HAL_TIM_CHANNEL_STATE_BUSY);
 808              		.loc 1 413 3
 809 0044 7B68     		ldr	r3, [r7, #4]
 810 0046 0222     		movs	r2, #2
 811 0048 83F83E20 		strb	r2, [r3, #62]
 414:Drivers/STM32F7xx_HAL_Driver/Src/stm32f7xx_hal_tim_ex.c ****   TIM_CHANNEL_STATE_SET(htim, TIM_CHANNEL_2, HAL_TIM_CHANNEL_STATE_BUSY);
 812              		.loc 1 414 3
 813 004c 7B68     		ldr	r3, [r7, #4]
 814 004e 0222     		movs	r2, #2
 815 0050 83F83F20 		strb	r2, [r3, #63]
 415:Drivers/STM32F7xx_HAL_Driver/Src/stm32f7xx_hal_tim_ex.c ****   TIM_CHANNEL_N_STATE_SET(htim, TIM_CHANNEL_1, HAL_TIM_CHANNEL_STATE_BUSY);
 816              		.loc 1 415 3
 817 0054 7B68     		ldr	r3, [r7, #4]
 818 0056 0222     		movs	r2, #2
 819 0058 83F84420 		strb	r2, [r3, #68]
 416:Drivers/STM32F7xx_HAL_Driver/Src/stm32f7xx_hal_tim_ex.c ****   TIM_CHANNEL_N_STATE_SET(htim, TIM_CHANNEL_2, HAL_TIM_CHANNEL_STATE_BUSY);
 820              		.loc 1 416 3
 821 005c 7B68     		ldr	r3, [r7, #4]
 822 005e 0222     		movs	r2, #2
 823 0060 83F84520 		strb	r2, [r3, #69]
 417:Drivers/STM32F7xx_HAL_Driver/Src/stm32f7xx_hal_tim_ex.c **** 
 418:Drivers/STM32F7xx_HAL_Driver/Src/stm32f7xx_hal_tim_ex.c ****   /* Enable the capture compare Interrupts 1 event */
 419:Drivers/STM32F7xx_HAL_Driver/Src/stm32f7xx_hal_tim_ex.c ****   __HAL_TIM_ENABLE_IT(htim, TIM_IT_CC1);
 824              		.loc 1 419 3
 825 0064 7B68     		ldr	r3, [r7, #4]
 826 0066 1B68     		ldr	r3, [r3]
 827 0068 DA68     		ldr	r2, [r3, #12]
 828 006a 7B68     		ldr	r3, [r7, #4]
 829 006c 1B68     		ldr	r3, [r3]
 830 006e 42F00202 		orr	r2, r2, #2
 831 0072 DA60     		str	r2, [r3, #12]
 420:Drivers/STM32F7xx_HAL_Driver/Src/stm32f7xx_hal_tim_ex.c **** 
 421:Drivers/STM32F7xx_HAL_Driver/Src/stm32f7xx_hal_tim_ex.c ****   /* Enable the Input Capture channel 1
 422:Drivers/STM32F7xx_HAL_Driver/Src/stm32f7xx_hal_tim_ex.c ****     (in the Hall Sensor Interface the three possible channels that can be used are TIM_CHANNEL_1, T
 423:Drivers/STM32F7xx_HAL_Driver/Src/stm32f7xx_hal_tim_ex.c ****   TIM_CCxChannelCmd(htim->Instance, TIM_CHANNEL_1, TIM_CCx_ENABLE);
 832              		.loc 1 423 3
 833 0074 7B68     		ldr	r3, [r7, #4]
 834 0076 1B68     		ldr	r3, [r3]
 835 0078 0122     		movs	r2, #1
 836 007a 0021     		movs	r1, #0
 837 007c 1846     		mov	r0, r3
 838 007e FFF7FEFF 		bl	TIM_CCxChannelCmd
 424:Drivers/STM32F7xx_HAL_Driver/Src/stm32f7xx_hal_tim_ex.c **** 
 425:Drivers/STM32F7xx_HAL_Driver/Src/stm32f7xx_hal_tim_ex.c ****   /* Enable the Peripheral, except in trigger mode where enable is automatically done with trigger 
 426:Drivers/STM32F7xx_HAL_Driver/Src/stm32f7xx_hal_tim_ex.c ****   if (IS_TIM_SLAVE_INSTANCE(htim->Instance))
 839              		.loc 1 426 7
ARM GAS  /tmp/ccOFTjtU.s 			page 23


 840 0082 7B68     		ldr	r3, [r7, #4]
 841 0084 1B68     		ldr	r3, [r3]
 842              		.loc 1 426 6
 843 0086 254A     		ldr	r2, .L36
 844 0088 9342     		cmp	r3, r2
 845 008a 22D0     		beq	.L31
 846              		.loc 1 426 7 discriminator 1
 847 008c 7B68     		ldr	r3, [r7, #4]
 848 008e 1B68     		ldr	r3, [r3]
 849 0090 B3F1804F 		cmp	r3, #1073741824
 850 0094 1DD0     		beq	.L31
 851              		.loc 1 426 7 is_stmt 0 discriminator 2
 852 0096 7B68     		ldr	r3, [r7, #4]
 853 0098 1B68     		ldr	r3, [r3]
 854 009a 214A     		ldr	r2, .L36+4
 855 009c 9342     		cmp	r3, r2
 856 009e 18D0     		beq	.L31
 857              		.loc 1 426 7 discriminator 3
 858 00a0 7B68     		ldr	r3, [r7, #4]
 859 00a2 1B68     		ldr	r3, [r3]
 860 00a4 1F4A     		ldr	r2, .L36+8
 861 00a6 9342     		cmp	r3, r2
 862 00a8 13D0     		beq	.L31
 863              		.loc 1 426 7 discriminator 4
 864 00aa 7B68     		ldr	r3, [r7, #4]
 865 00ac 1B68     		ldr	r3, [r3]
 866 00ae 1E4A     		ldr	r2, .L36+12
 867 00b0 9342     		cmp	r3, r2
 868 00b2 0ED0     		beq	.L31
 869              		.loc 1 426 7 discriminator 5
 870 00b4 7B68     		ldr	r3, [r7, #4]
 871 00b6 1B68     		ldr	r3, [r3]
 872 00b8 1C4A     		ldr	r2, .L36+16
 873 00ba 9342     		cmp	r3, r2
 874 00bc 09D0     		beq	.L31
 875              		.loc 1 426 7 discriminator 6
 876 00be 7B68     		ldr	r3, [r7, #4]
 877 00c0 1B68     		ldr	r3, [r3]
 878 00c2 1B4A     		ldr	r2, .L36+20
 879 00c4 9342     		cmp	r3, r2
 880 00c6 04D0     		beq	.L31
 881              		.loc 1 426 7 discriminator 7
 882 00c8 7B68     		ldr	r3, [r7, #4]
 883 00ca 1B68     		ldr	r3, [r3]
 884 00cc 194A     		ldr	r2, .L36+24
 885 00ce 9342     		cmp	r3, r2
 886 00d0 15D1     		bne	.L32
 887              	.L31:
 427:Drivers/STM32F7xx_HAL_Driver/Src/stm32f7xx_hal_tim_ex.c ****   {
 428:Drivers/STM32F7xx_HAL_Driver/Src/stm32f7xx_hal_tim_ex.c ****     tmpsmcr = htim->Instance->SMCR & TIM_SMCR_SMS;
 888              		.loc 1 428 19 is_stmt 1
 889 00d2 7B68     		ldr	r3, [r7, #4]
 890 00d4 1B68     		ldr	r3, [r3]
 891              		.loc 1 428 29
 892 00d6 9A68     		ldr	r2, [r3, #8]
 893              		.loc 1 428 13
 894 00d8 174B     		ldr	r3, .L36+28
ARM GAS  /tmp/ccOFTjtU.s 			page 24


 895 00da 1340     		ands	r3, r3, r2
 896 00dc BB60     		str	r3, [r7, #8]
 429:Drivers/STM32F7xx_HAL_Driver/Src/stm32f7xx_hal_tim_ex.c ****     if (!IS_TIM_SLAVEMODE_TRIGGER_ENABLED(tmpsmcr))
 897              		.loc 1 429 8
 898 00de BB68     		ldr	r3, [r7, #8]
 899 00e0 062B     		cmp	r3, #6
 900 00e2 15D0     		beq	.L35
 901              		.loc 1 429 9 discriminator 1
 902 00e4 BB68     		ldr	r3, [r7, #8]
 903 00e6 B3F5803F 		cmp	r3, #65536
 904 00ea 11D0     		beq	.L35
 430:Drivers/STM32F7xx_HAL_Driver/Src/stm32f7xx_hal_tim_ex.c ****     {
 431:Drivers/STM32F7xx_HAL_Driver/Src/stm32f7xx_hal_tim_ex.c ****       __HAL_TIM_ENABLE(htim);
 905              		.loc 1 431 7
 906 00ec 7B68     		ldr	r3, [r7, #4]
 907 00ee 1B68     		ldr	r3, [r3]
 908 00f0 1A68     		ldr	r2, [r3]
 909 00f2 7B68     		ldr	r3, [r7, #4]
 910 00f4 1B68     		ldr	r3, [r3]
 911 00f6 42F00102 		orr	r2, r2, #1
 912 00fa 1A60     		str	r2, [r3]
 429:Drivers/STM32F7xx_HAL_Driver/Src/stm32f7xx_hal_tim_ex.c ****     if (!IS_TIM_SLAVEMODE_TRIGGER_ENABLED(tmpsmcr))
 913              		.loc 1 429 8
 914 00fc 08E0     		b	.L35
 915              	.L32:
 432:Drivers/STM32F7xx_HAL_Driver/Src/stm32f7xx_hal_tim_ex.c ****     }
 433:Drivers/STM32F7xx_HAL_Driver/Src/stm32f7xx_hal_tim_ex.c ****   }
 434:Drivers/STM32F7xx_HAL_Driver/Src/stm32f7xx_hal_tim_ex.c ****   else
 435:Drivers/STM32F7xx_HAL_Driver/Src/stm32f7xx_hal_tim_ex.c ****   {
 436:Drivers/STM32F7xx_HAL_Driver/Src/stm32f7xx_hal_tim_ex.c ****     __HAL_TIM_ENABLE(htim);
 916              		.loc 1 436 5
 917 00fe 7B68     		ldr	r3, [r7, #4]
 918 0100 1B68     		ldr	r3, [r3]
 919 0102 1A68     		ldr	r2, [r3]
 920 0104 7B68     		ldr	r3, [r7, #4]
 921 0106 1B68     		ldr	r3, [r3]
 922 0108 42F00102 		orr	r2, r2, #1
 923 010c 1A60     		str	r2, [r3]
 924 010e 00E0     		b	.L34
 925              	.L35:
 429:Drivers/STM32F7xx_HAL_Driver/Src/stm32f7xx_hal_tim_ex.c ****     {
 926              		.loc 1 429 8
 927 0110 00BF     		nop
 928              	.L34:
 437:Drivers/STM32F7xx_HAL_Driver/Src/stm32f7xx_hal_tim_ex.c ****   }
 438:Drivers/STM32F7xx_HAL_Driver/Src/stm32f7xx_hal_tim_ex.c **** 
 439:Drivers/STM32F7xx_HAL_Driver/Src/stm32f7xx_hal_tim_ex.c ****   /* Return function status */
 440:Drivers/STM32F7xx_HAL_Driver/Src/stm32f7xx_hal_tim_ex.c ****   return HAL_OK;
 929              		.loc 1 440 10
 930 0112 0023     		movs	r3, #0
 931              	.L30:
 441:Drivers/STM32F7xx_HAL_Driver/Src/stm32f7xx_hal_tim_ex.c **** }
 932              		.loc 1 441 1
 933 0114 1846     		mov	r0, r3
 934 0116 1037     		adds	r7, r7, #16
 935              	.LCFI35:
 936              		.cfi_def_cfa_offset 8
ARM GAS  /tmp/ccOFTjtU.s 			page 25


 937 0118 BD46     		mov	sp, r7
 938              	.LCFI36:
 939              		.cfi_def_cfa_register 13
 940              		@ sp needed
 941 011a 80BD     		pop	{r7, pc}
 942              	.L37:
 943              		.align	2
 944              	.L36:
 945 011c 00000140 		.word	1073807360
 946 0120 00040040 		.word	1073742848
 947 0124 00080040 		.word	1073743872
 948 0128 000C0040 		.word	1073744896
 949 012c 00040140 		.word	1073808384
 950 0130 00400140 		.word	1073823744
 951 0134 00180040 		.word	1073747968
 952 0138 07000100 		.word	65543
 953              		.cfi_endproc
 954              	.LFE147:
 956              		.section	.text.HAL_TIMEx_HallSensor_Stop_IT,"ax",%progbits
 957              		.align	1
 958              		.global	HAL_TIMEx_HallSensor_Stop_IT
 959              		.syntax unified
 960              		.thumb
 961              		.thumb_func
 962              		.fpu fpv5-d16
 964              	HAL_TIMEx_HallSensor_Stop_IT:
 965              	.LFB148:
 442:Drivers/STM32F7xx_HAL_Driver/Src/stm32f7xx_hal_tim_ex.c **** 
 443:Drivers/STM32F7xx_HAL_Driver/Src/stm32f7xx_hal_tim_ex.c **** /**
 444:Drivers/STM32F7xx_HAL_Driver/Src/stm32f7xx_hal_tim_ex.c ****   * @brief  Stops the TIM Hall Sensor Interface in interrupt mode.
 445:Drivers/STM32F7xx_HAL_Driver/Src/stm32f7xx_hal_tim_ex.c ****   * @param  htim TIM Hall Sensor Interface handle
 446:Drivers/STM32F7xx_HAL_Driver/Src/stm32f7xx_hal_tim_ex.c ****   * @retval HAL status
 447:Drivers/STM32F7xx_HAL_Driver/Src/stm32f7xx_hal_tim_ex.c ****   */
 448:Drivers/STM32F7xx_HAL_Driver/Src/stm32f7xx_hal_tim_ex.c **** HAL_StatusTypeDef HAL_TIMEx_HallSensor_Stop_IT(TIM_HandleTypeDef *htim)
 449:Drivers/STM32F7xx_HAL_Driver/Src/stm32f7xx_hal_tim_ex.c **** {
 966              		.loc 1 449 1
 967              		.cfi_startproc
 968              		@ args = 0, pretend = 0, frame = 8
 969              		@ frame_needed = 1, uses_anonymous_args = 0
 970 0000 80B5     		push	{r7, lr}
 971              	.LCFI37:
 972              		.cfi_def_cfa_offset 8
 973              		.cfi_offset 7, -8
 974              		.cfi_offset 14, -4
 975 0002 82B0     		sub	sp, sp, #8
 976              	.LCFI38:
 977              		.cfi_def_cfa_offset 16
 978 0004 00AF     		add	r7, sp, #0
 979              	.LCFI39:
 980              		.cfi_def_cfa_register 7
 981 0006 7860     		str	r0, [r7, #4]
 450:Drivers/STM32F7xx_HAL_Driver/Src/stm32f7xx_hal_tim_ex.c ****   /* Check the parameters */
 451:Drivers/STM32F7xx_HAL_Driver/Src/stm32f7xx_hal_tim_ex.c ****   assert_param(IS_TIM_HALL_SENSOR_INTERFACE_INSTANCE(htim->Instance));
 452:Drivers/STM32F7xx_HAL_Driver/Src/stm32f7xx_hal_tim_ex.c **** 
 453:Drivers/STM32F7xx_HAL_Driver/Src/stm32f7xx_hal_tim_ex.c ****   /* Disable the Input Capture channel 1
 454:Drivers/STM32F7xx_HAL_Driver/Src/stm32f7xx_hal_tim_ex.c ****     (in the Hall Sensor Interface the three possible channels that can be used are TIM_CHANNEL_1, T
 455:Drivers/STM32F7xx_HAL_Driver/Src/stm32f7xx_hal_tim_ex.c ****   TIM_CCxChannelCmd(htim->Instance, TIM_CHANNEL_1, TIM_CCx_DISABLE);
ARM GAS  /tmp/ccOFTjtU.s 			page 26


 982              		.loc 1 455 3
 983 0008 7B68     		ldr	r3, [r7, #4]
 984 000a 1B68     		ldr	r3, [r3]
 985 000c 0022     		movs	r2, #0
 986 000e 0021     		movs	r1, #0
 987 0010 1846     		mov	r0, r3
 988 0012 FFF7FEFF 		bl	TIM_CCxChannelCmd
 456:Drivers/STM32F7xx_HAL_Driver/Src/stm32f7xx_hal_tim_ex.c **** 
 457:Drivers/STM32F7xx_HAL_Driver/Src/stm32f7xx_hal_tim_ex.c ****   /* Disable the capture compare Interrupts event */
 458:Drivers/STM32F7xx_HAL_Driver/Src/stm32f7xx_hal_tim_ex.c ****   __HAL_TIM_DISABLE_IT(htim, TIM_IT_CC1);
 989              		.loc 1 458 3
 990 0016 7B68     		ldr	r3, [r7, #4]
 991 0018 1B68     		ldr	r3, [r3]
 992 001a DA68     		ldr	r2, [r3, #12]
 993 001c 7B68     		ldr	r3, [r7, #4]
 994 001e 1B68     		ldr	r3, [r3]
 995 0020 22F00202 		bic	r2, r2, #2
 996 0024 DA60     		str	r2, [r3, #12]
 459:Drivers/STM32F7xx_HAL_Driver/Src/stm32f7xx_hal_tim_ex.c **** 
 460:Drivers/STM32F7xx_HAL_Driver/Src/stm32f7xx_hal_tim_ex.c ****   /* Disable the Peripheral */
 461:Drivers/STM32F7xx_HAL_Driver/Src/stm32f7xx_hal_tim_ex.c ****   __HAL_TIM_DISABLE(htim);
 997              		.loc 1 461 3
 998 0026 7B68     		ldr	r3, [r7, #4]
 999 0028 1B68     		ldr	r3, [r3]
 1000 002a 1A6A     		ldr	r2, [r3, #32]
 1001 002c 41F21113 		movw	r3, #4369
 1002 0030 1340     		ands	r3, r3, r2
 1003 0032 002B     		cmp	r3, #0
 1004 0034 0FD1     		bne	.L39
 1005              		.loc 1 461 3 is_stmt 0 discriminator 1
 1006 0036 7B68     		ldr	r3, [r7, #4]
 1007 0038 1B68     		ldr	r3, [r3]
 1008 003a 1A6A     		ldr	r2, [r3, #32]
 1009 003c 40F24443 		movw	r3, #1092
 1010 0040 1340     		ands	r3, r3, r2
 1011 0042 002B     		cmp	r3, #0
 1012 0044 07D1     		bne	.L39
 1013              		.loc 1 461 3 discriminator 2
 1014 0046 7B68     		ldr	r3, [r7, #4]
 1015 0048 1B68     		ldr	r3, [r3]
 1016 004a 1A68     		ldr	r2, [r3]
 1017 004c 7B68     		ldr	r3, [r7, #4]
 1018 004e 1B68     		ldr	r3, [r3]
 1019 0050 22F00102 		bic	r2, r2, #1
 1020 0054 1A60     		str	r2, [r3]
 1021              	.L39:
 462:Drivers/STM32F7xx_HAL_Driver/Src/stm32f7xx_hal_tim_ex.c **** 
 463:Drivers/STM32F7xx_HAL_Driver/Src/stm32f7xx_hal_tim_ex.c ****   /* Set the TIM channels state */
 464:Drivers/STM32F7xx_HAL_Driver/Src/stm32f7xx_hal_tim_ex.c ****   TIM_CHANNEL_STATE_SET(htim, TIM_CHANNEL_1, HAL_TIM_CHANNEL_STATE_READY);
 1022              		.loc 1 464 3 is_stmt 1
 1023 0056 7B68     		ldr	r3, [r7, #4]
 1024 0058 0122     		movs	r2, #1
 1025 005a 83F83E20 		strb	r2, [r3, #62]
 465:Drivers/STM32F7xx_HAL_Driver/Src/stm32f7xx_hal_tim_ex.c ****   TIM_CHANNEL_STATE_SET(htim, TIM_CHANNEL_2, HAL_TIM_CHANNEL_STATE_READY);
 1026              		.loc 1 465 3
 1027 005e 7B68     		ldr	r3, [r7, #4]
 1028 0060 0122     		movs	r2, #1
ARM GAS  /tmp/ccOFTjtU.s 			page 27


 1029 0062 83F83F20 		strb	r2, [r3, #63]
 466:Drivers/STM32F7xx_HAL_Driver/Src/stm32f7xx_hal_tim_ex.c ****   TIM_CHANNEL_N_STATE_SET(htim, TIM_CHANNEL_1, HAL_TIM_CHANNEL_STATE_READY);
 1030              		.loc 1 466 3
 1031 0066 7B68     		ldr	r3, [r7, #4]
 1032 0068 0122     		movs	r2, #1
 1033 006a 83F84420 		strb	r2, [r3, #68]
 467:Drivers/STM32F7xx_HAL_Driver/Src/stm32f7xx_hal_tim_ex.c ****   TIM_CHANNEL_N_STATE_SET(htim, TIM_CHANNEL_2, HAL_TIM_CHANNEL_STATE_READY);
 1034              		.loc 1 467 3
 1035 006e 7B68     		ldr	r3, [r7, #4]
 1036 0070 0122     		movs	r2, #1
 1037 0072 83F84520 		strb	r2, [r3, #69]
 468:Drivers/STM32F7xx_HAL_Driver/Src/stm32f7xx_hal_tim_ex.c **** 
 469:Drivers/STM32F7xx_HAL_Driver/Src/stm32f7xx_hal_tim_ex.c ****   /* Return function status */
 470:Drivers/STM32F7xx_HAL_Driver/Src/stm32f7xx_hal_tim_ex.c ****   return HAL_OK;
 1038              		.loc 1 470 10
 1039 0076 0023     		movs	r3, #0
 471:Drivers/STM32F7xx_HAL_Driver/Src/stm32f7xx_hal_tim_ex.c **** }
 1040              		.loc 1 471 1
 1041 0078 1846     		mov	r0, r3
 1042 007a 0837     		adds	r7, r7, #8
 1043              	.LCFI40:
 1044              		.cfi_def_cfa_offset 8
 1045 007c BD46     		mov	sp, r7
 1046              	.LCFI41:
 1047              		.cfi_def_cfa_register 13
 1048              		@ sp needed
 1049 007e 80BD     		pop	{r7, pc}
 1050              		.cfi_endproc
 1051              	.LFE148:
 1053              		.section	.text.HAL_TIMEx_HallSensor_Start_DMA,"ax",%progbits
 1054              		.align	1
 1055              		.global	HAL_TIMEx_HallSensor_Start_DMA
 1056              		.syntax unified
 1057              		.thumb
 1058              		.thumb_func
 1059              		.fpu fpv5-d16
 1061              	HAL_TIMEx_HallSensor_Start_DMA:
 1062              	.LFB149:
 472:Drivers/STM32F7xx_HAL_Driver/Src/stm32f7xx_hal_tim_ex.c **** 
 473:Drivers/STM32F7xx_HAL_Driver/Src/stm32f7xx_hal_tim_ex.c **** /**
 474:Drivers/STM32F7xx_HAL_Driver/Src/stm32f7xx_hal_tim_ex.c ****   * @brief  Starts the TIM Hall Sensor Interface in DMA mode.
 475:Drivers/STM32F7xx_HAL_Driver/Src/stm32f7xx_hal_tim_ex.c ****   * @param  htim TIM Hall Sensor Interface handle
 476:Drivers/STM32F7xx_HAL_Driver/Src/stm32f7xx_hal_tim_ex.c ****   * @param  pData The destination Buffer address.
 477:Drivers/STM32F7xx_HAL_Driver/Src/stm32f7xx_hal_tim_ex.c ****   * @param  Length The length of data to be transferred from TIM peripheral to memory.
 478:Drivers/STM32F7xx_HAL_Driver/Src/stm32f7xx_hal_tim_ex.c ****   * @retval HAL status
 479:Drivers/STM32F7xx_HAL_Driver/Src/stm32f7xx_hal_tim_ex.c ****   */
 480:Drivers/STM32F7xx_HAL_Driver/Src/stm32f7xx_hal_tim_ex.c **** HAL_StatusTypeDef HAL_TIMEx_HallSensor_Start_DMA(TIM_HandleTypeDef *htim, uint32_t *pData, uint16_t
 481:Drivers/STM32F7xx_HAL_Driver/Src/stm32f7xx_hal_tim_ex.c **** {
 1063              		.loc 1 481 1
 1064              		.cfi_startproc
 1065              		@ args = 0, pretend = 0, frame = 24
 1066              		@ frame_needed = 1, uses_anonymous_args = 0
 1067 0000 80B5     		push	{r7, lr}
 1068              	.LCFI42:
 1069              		.cfi_def_cfa_offset 8
 1070              		.cfi_offset 7, -8
 1071              		.cfi_offset 14, -4
ARM GAS  /tmp/ccOFTjtU.s 			page 28


 1072 0002 86B0     		sub	sp, sp, #24
 1073              	.LCFI43:
 1074              		.cfi_def_cfa_offset 32
 1075 0004 00AF     		add	r7, sp, #0
 1076              	.LCFI44:
 1077              		.cfi_def_cfa_register 7
 1078 0006 F860     		str	r0, [r7, #12]
 1079 0008 B960     		str	r1, [r7, #8]
 1080 000a 1346     		mov	r3, r2
 1081 000c FB80     		strh	r3, [r7, #6]	@ movhi
 482:Drivers/STM32F7xx_HAL_Driver/Src/stm32f7xx_hal_tim_ex.c ****   uint32_t tmpsmcr;
 483:Drivers/STM32F7xx_HAL_Driver/Src/stm32f7xx_hal_tim_ex.c ****   HAL_TIM_ChannelStateTypeDef channel_1_state = TIM_CHANNEL_STATE_GET(htim, TIM_CHANNEL_1);
 1082              		.loc 1 483 31
 1083 000e FB68     		ldr	r3, [r7, #12]
 1084 0010 93F83E30 		ldrb	r3, [r3, #62]
 1085 0014 FB75     		strb	r3, [r7, #23]
 484:Drivers/STM32F7xx_HAL_Driver/Src/stm32f7xx_hal_tim_ex.c ****   HAL_TIM_ChannelStateTypeDef complementary_channel_1_state = TIM_CHANNEL_N_STATE_GET(htim, TIM_CHA
 1086              		.loc 1 484 31
 1087 0016 FB68     		ldr	r3, [r7, #12]
 1088 0018 93F84430 		ldrb	r3, [r3, #68]
 1089 001c BB75     		strb	r3, [r7, #22]
 485:Drivers/STM32F7xx_HAL_Driver/Src/stm32f7xx_hal_tim_ex.c **** 
 486:Drivers/STM32F7xx_HAL_Driver/Src/stm32f7xx_hal_tim_ex.c ****   /* Check the parameters */
 487:Drivers/STM32F7xx_HAL_Driver/Src/stm32f7xx_hal_tim_ex.c ****   assert_param(IS_TIM_HALL_SENSOR_INTERFACE_INSTANCE(htim->Instance));
 488:Drivers/STM32F7xx_HAL_Driver/Src/stm32f7xx_hal_tim_ex.c **** 
 489:Drivers/STM32F7xx_HAL_Driver/Src/stm32f7xx_hal_tim_ex.c ****   /* Set the TIM channel state */
 490:Drivers/STM32F7xx_HAL_Driver/Src/stm32f7xx_hal_tim_ex.c ****   if ((channel_1_state == HAL_TIM_CHANNEL_STATE_BUSY)
 1090              		.loc 1 490 6
 1091 001e FB7D     		ldrb	r3, [r7, #23]	@ zero_extendqisi2
 1092 0020 022B     		cmp	r3, #2
 1093 0022 02D0     		beq	.L42
 491:Drivers/STM32F7xx_HAL_Driver/Src/stm32f7xx_hal_tim_ex.c ****       || (complementary_channel_1_state == HAL_TIM_CHANNEL_STATE_BUSY))
 1094              		.loc 1 491 7
 1095 0024 BB7D     		ldrb	r3, [r7, #22]	@ zero_extendqisi2
 1096 0026 022B     		cmp	r3, #2
 1097 0028 01D1     		bne	.L43
 1098              	.L42:
 492:Drivers/STM32F7xx_HAL_Driver/Src/stm32f7xx_hal_tim_ex.c ****   {
 493:Drivers/STM32F7xx_HAL_Driver/Src/stm32f7xx_hal_tim_ex.c ****     return HAL_BUSY;
 1099              		.loc 1 493 12
 1100 002a 0223     		movs	r3, #2
 1101 002c 8CE0     		b	.L44
 1102              	.L43:
 494:Drivers/STM32F7xx_HAL_Driver/Src/stm32f7xx_hal_tim_ex.c ****   }
 495:Drivers/STM32F7xx_HAL_Driver/Src/stm32f7xx_hal_tim_ex.c ****   else if ((channel_1_state == HAL_TIM_CHANNEL_STATE_READY)
 1103              		.loc 1 495 11
 1104 002e FB7D     		ldrb	r3, [r7, #23]	@ zero_extendqisi2
 1105 0030 012B     		cmp	r3, #1
 1106 0032 34D1     		bne	.L45
 496:Drivers/STM32F7xx_HAL_Driver/Src/stm32f7xx_hal_tim_ex.c ****            && (complementary_channel_1_state == HAL_TIM_CHANNEL_STATE_READY))
 1107              		.loc 1 496 12
 1108 0034 BB7D     		ldrb	r3, [r7, #22]	@ zero_extendqisi2
 1109 0036 012B     		cmp	r3, #1
 1110 0038 31D1     		bne	.L45
 497:Drivers/STM32F7xx_HAL_Driver/Src/stm32f7xx_hal_tim_ex.c ****   {
 498:Drivers/STM32F7xx_HAL_Driver/Src/stm32f7xx_hal_tim_ex.c ****     if ((pData == NULL) && (Length > 0U))
 1111              		.loc 1 498 8
ARM GAS  /tmp/ccOFTjtU.s 			page 29


 1112 003a BB68     		ldr	r3, [r7, #8]
 1113 003c 002B     		cmp	r3, #0
 1114 003e 04D1     		bne	.L46
 1115              		.loc 1 498 25 discriminator 1
 1116 0040 FB88     		ldrh	r3, [r7, #6]
 1117 0042 002B     		cmp	r3, #0
 1118 0044 01D0     		beq	.L46
 499:Drivers/STM32F7xx_HAL_Driver/Src/stm32f7xx_hal_tim_ex.c ****     {
 500:Drivers/STM32F7xx_HAL_Driver/Src/stm32f7xx_hal_tim_ex.c ****       return HAL_ERROR;
 1119              		.loc 1 500 14
 1120 0046 0123     		movs	r3, #1
 1121 0048 7EE0     		b	.L44
 1122              	.L46:
 501:Drivers/STM32F7xx_HAL_Driver/Src/stm32f7xx_hal_tim_ex.c ****     }
 502:Drivers/STM32F7xx_HAL_Driver/Src/stm32f7xx_hal_tim_ex.c ****     else
 503:Drivers/STM32F7xx_HAL_Driver/Src/stm32f7xx_hal_tim_ex.c ****     {
 504:Drivers/STM32F7xx_HAL_Driver/Src/stm32f7xx_hal_tim_ex.c ****       TIM_CHANNEL_STATE_SET(htim, TIM_CHANNEL_1, HAL_TIM_CHANNEL_STATE_BUSY);
 1123              		.loc 1 504 7
 1124 004a FB68     		ldr	r3, [r7, #12]
 1125 004c 0222     		movs	r2, #2
 1126 004e 83F83E20 		strb	r2, [r3, #62]
 505:Drivers/STM32F7xx_HAL_Driver/Src/stm32f7xx_hal_tim_ex.c ****       TIM_CHANNEL_N_STATE_SET(htim, TIM_CHANNEL_1, HAL_TIM_CHANNEL_STATE_BUSY);
 1127              		.loc 1 505 7
 1128 0052 FB68     		ldr	r3, [r7, #12]
 1129 0054 0222     		movs	r2, #2
 1130 0056 83F84420 		strb	r2, [r3, #68]
 498:Drivers/STM32F7xx_HAL_Driver/Src/stm32f7xx_hal_tim_ex.c ****     {
 1131              		.loc 1 498 8
 1132 005a 00BF     		nop
 506:Drivers/STM32F7xx_HAL_Driver/Src/stm32f7xx_hal_tim_ex.c ****     }
 507:Drivers/STM32F7xx_HAL_Driver/Src/stm32f7xx_hal_tim_ex.c ****   }
 508:Drivers/STM32F7xx_HAL_Driver/Src/stm32f7xx_hal_tim_ex.c ****   else
 509:Drivers/STM32F7xx_HAL_Driver/Src/stm32f7xx_hal_tim_ex.c ****   {
 510:Drivers/STM32F7xx_HAL_Driver/Src/stm32f7xx_hal_tim_ex.c ****     return HAL_ERROR;
 511:Drivers/STM32F7xx_HAL_Driver/Src/stm32f7xx_hal_tim_ex.c ****   }
 512:Drivers/STM32F7xx_HAL_Driver/Src/stm32f7xx_hal_tim_ex.c **** 
 513:Drivers/STM32F7xx_HAL_Driver/Src/stm32f7xx_hal_tim_ex.c ****   /* Enable the Input Capture channel 1
 514:Drivers/STM32F7xx_HAL_Driver/Src/stm32f7xx_hal_tim_ex.c ****     (in the Hall Sensor Interface the three possible channels that can be used are TIM_CHANNEL_1, T
 515:Drivers/STM32F7xx_HAL_Driver/Src/stm32f7xx_hal_tim_ex.c ****   TIM_CCxChannelCmd(htim->Instance, TIM_CHANNEL_1, TIM_CCx_ENABLE);
 1133              		.loc 1 515 3
 1134 005c FB68     		ldr	r3, [r7, #12]
 1135 005e 1B68     		ldr	r3, [r3]
 1136 0060 0122     		movs	r2, #1
 1137 0062 0021     		movs	r1, #0
 1138 0064 1846     		mov	r0, r3
 1139 0066 FFF7FEFF 		bl	TIM_CCxChannelCmd
 516:Drivers/STM32F7xx_HAL_Driver/Src/stm32f7xx_hal_tim_ex.c **** 
 517:Drivers/STM32F7xx_HAL_Driver/Src/stm32f7xx_hal_tim_ex.c ****   /* Set the DMA Input Capture 1 Callbacks */
 518:Drivers/STM32F7xx_HAL_Driver/Src/stm32f7xx_hal_tim_ex.c ****   htim->hdma[TIM_DMA_ID_CC1]->XferCpltCallback = TIM_DMACaptureCplt;
 1140              		.loc 1 518 13
 1141 006a FB68     		ldr	r3, [r7, #12]
 1142 006c 5B6A     		ldr	r3, [r3, #36]
 1143              		.loc 1 518 48
 1144 006e 384A     		ldr	r2, .L55
 1145 0070 DA63     		str	r2, [r3, #60]
 519:Drivers/STM32F7xx_HAL_Driver/Src/stm32f7xx_hal_tim_ex.c ****   htim->hdma[TIM_DMA_ID_CC1]->XferHalfCpltCallback = TIM_DMACaptureHalfCplt;
 1146              		.loc 1 519 13
ARM GAS  /tmp/ccOFTjtU.s 			page 30


 1147 0072 FB68     		ldr	r3, [r7, #12]
 1148 0074 5B6A     		ldr	r3, [r3, #36]
 1149              		.loc 1 519 52
 1150 0076 374A     		ldr	r2, .L55+4
 1151 0078 1A64     		str	r2, [r3, #64]
 520:Drivers/STM32F7xx_HAL_Driver/Src/stm32f7xx_hal_tim_ex.c ****   /* Set the DMA error callback */
 521:Drivers/STM32F7xx_HAL_Driver/Src/stm32f7xx_hal_tim_ex.c ****   htim->hdma[TIM_DMA_ID_CC1]->XferErrorCallback = TIM_DMAError ;
 1152              		.loc 1 521 13
 1153 007a FB68     		ldr	r3, [r7, #12]
 1154 007c 5B6A     		ldr	r3, [r3, #36]
 1155              		.loc 1 521 49
 1156 007e 364A     		ldr	r2, .L55+8
 1157 0080 DA64     		str	r2, [r3, #76]
 522:Drivers/STM32F7xx_HAL_Driver/Src/stm32f7xx_hal_tim_ex.c **** 
 523:Drivers/STM32F7xx_HAL_Driver/Src/stm32f7xx_hal_tim_ex.c ****   /* Enable the DMA stream for Capture 1*/
 524:Drivers/STM32F7xx_HAL_Driver/Src/stm32f7xx_hal_tim_ex.c ****   if (HAL_DMA_Start_IT(htim->hdma[TIM_DMA_ID_CC1], (uint32_t)&htim->Instance->CCR1, (uint32_t)pData
 1158              		.loc 1 524 7
 1159 0082 FB68     		ldr	r3, [r7, #12]
 1160 0084 586A     		ldr	r0, [r3, #36]
 1161              		.loc 1 524 67
 1162 0086 FB68     		ldr	r3, [r7, #12]
 1163 0088 1B68     		ldr	r3, [r3]
 1164              		.loc 1 524 62
 1165 008a 3433     		adds	r3, r3, #52
 1166              		.loc 1 524 7
 1167 008c 1946     		mov	r1, r3
 1168 008e BA68     		ldr	r2, [r7, #8]
 1169 0090 FB88     		ldrh	r3, [r7, #6]
 1170 0092 FFF7FEFF 		bl	HAL_DMA_Start_IT
 1171 0096 0346     		mov	r3, r0
 1172              		.loc 1 524 6
 1173 0098 002B     		cmp	r3, #0
 1174 009a 04D0     		beq	.L48
 1175 009c 01E0     		b	.L53
 1176              	.L45:
 510:Drivers/STM32F7xx_HAL_Driver/Src/stm32f7xx_hal_tim_ex.c ****   }
 1177              		.loc 1 510 12
 1178 009e 0123     		movs	r3, #1
 1179 00a0 52E0     		b	.L44
 1180              	.L53:
 525:Drivers/STM32F7xx_HAL_Driver/Src/stm32f7xx_hal_tim_ex.c ****   {
 526:Drivers/STM32F7xx_HAL_Driver/Src/stm32f7xx_hal_tim_ex.c ****     /* Return error status */
 527:Drivers/STM32F7xx_HAL_Driver/Src/stm32f7xx_hal_tim_ex.c ****     return HAL_ERROR;
 1181              		.loc 1 527 12
 1182 00a2 0123     		movs	r3, #1
 1183 00a4 50E0     		b	.L44
 1184              	.L48:
 528:Drivers/STM32F7xx_HAL_Driver/Src/stm32f7xx_hal_tim_ex.c ****   }
 529:Drivers/STM32F7xx_HAL_Driver/Src/stm32f7xx_hal_tim_ex.c ****   /* Enable the capture compare 1 Interrupt */
 530:Drivers/STM32F7xx_HAL_Driver/Src/stm32f7xx_hal_tim_ex.c ****   __HAL_TIM_ENABLE_DMA(htim, TIM_DMA_CC1);
 1185              		.loc 1 530 3
 1186 00a6 FB68     		ldr	r3, [r7, #12]
 1187 00a8 1B68     		ldr	r3, [r3]
 1188 00aa DA68     		ldr	r2, [r3, #12]
 1189 00ac FB68     		ldr	r3, [r7, #12]
 1190 00ae 1B68     		ldr	r3, [r3]
 1191 00b0 42F40072 		orr	r2, r2, #512
ARM GAS  /tmp/ccOFTjtU.s 			page 31


 1192 00b4 DA60     		str	r2, [r3, #12]
 531:Drivers/STM32F7xx_HAL_Driver/Src/stm32f7xx_hal_tim_ex.c **** 
 532:Drivers/STM32F7xx_HAL_Driver/Src/stm32f7xx_hal_tim_ex.c ****   /* Enable the Peripheral, except in trigger mode where enable is automatically done with trigger 
 533:Drivers/STM32F7xx_HAL_Driver/Src/stm32f7xx_hal_tim_ex.c ****   if (IS_TIM_SLAVE_INSTANCE(htim->Instance))
 1193              		.loc 1 533 7
 1194 00b6 FB68     		ldr	r3, [r7, #12]
 1195 00b8 1B68     		ldr	r3, [r3]
 1196              		.loc 1 533 6
 1197 00ba 284A     		ldr	r2, .L55+12
 1198 00bc 9342     		cmp	r3, r2
 1199 00be 22D0     		beq	.L49
 1200              		.loc 1 533 7 discriminator 1
 1201 00c0 FB68     		ldr	r3, [r7, #12]
 1202 00c2 1B68     		ldr	r3, [r3]
 1203 00c4 B3F1804F 		cmp	r3, #1073741824
 1204 00c8 1DD0     		beq	.L49
 1205              		.loc 1 533 7 is_stmt 0 discriminator 2
 1206 00ca FB68     		ldr	r3, [r7, #12]
 1207 00cc 1B68     		ldr	r3, [r3]
 1208 00ce 244A     		ldr	r2, .L55+16
 1209 00d0 9342     		cmp	r3, r2
 1210 00d2 18D0     		beq	.L49
 1211              		.loc 1 533 7 discriminator 3
 1212 00d4 FB68     		ldr	r3, [r7, #12]
 1213 00d6 1B68     		ldr	r3, [r3]
 1214 00d8 224A     		ldr	r2, .L55+20
 1215 00da 9342     		cmp	r3, r2
 1216 00dc 13D0     		beq	.L49
 1217              		.loc 1 533 7 discriminator 4
 1218 00de FB68     		ldr	r3, [r7, #12]
 1219 00e0 1B68     		ldr	r3, [r3]
 1220 00e2 214A     		ldr	r2, .L55+24
 1221 00e4 9342     		cmp	r3, r2
 1222 00e6 0ED0     		beq	.L49
 1223              		.loc 1 533 7 discriminator 5
 1224 00e8 FB68     		ldr	r3, [r7, #12]
 1225 00ea 1B68     		ldr	r3, [r3]
 1226 00ec 1F4A     		ldr	r2, .L55+28
 1227 00ee 9342     		cmp	r3, r2
 1228 00f0 09D0     		beq	.L49
 1229              		.loc 1 533 7 discriminator 6
 1230 00f2 FB68     		ldr	r3, [r7, #12]
 1231 00f4 1B68     		ldr	r3, [r3]
 1232 00f6 1E4A     		ldr	r2, .L55+32
 1233 00f8 9342     		cmp	r3, r2
 1234 00fa 04D0     		beq	.L49
 1235              		.loc 1 533 7 discriminator 7
 1236 00fc FB68     		ldr	r3, [r7, #12]
 1237 00fe 1B68     		ldr	r3, [r3]
 1238 0100 1C4A     		ldr	r2, .L55+36
 1239 0102 9342     		cmp	r3, r2
 1240 0104 15D1     		bne	.L50
 1241              	.L49:
 534:Drivers/STM32F7xx_HAL_Driver/Src/stm32f7xx_hal_tim_ex.c ****   {
 535:Drivers/STM32F7xx_HAL_Driver/Src/stm32f7xx_hal_tim_ex.c ****     tmpsmcr = htim->Instance->SMCR & TIM_SMCR_SMS;
 1242              		.loc 1 535 19 is_stmt 1
 1243 0106 FB68     		ldr	r3, [r7, #12]
ARM GAS  /tmp/ccOFTjtU.s 			page 32


 1244 0108 1B68     		ldr	r3, [r3]
 1245              		.loc 1 535 29
 1246 010a 9A68     		ldr	r2, [r3, #8]
 1247              		.loc 1 535 13
 1248 010c 1A4B     		ldr	r3, .L55+40
 1249 010e 1340     		ands	r3, r3, r2
 1250 0110 3B61     		str	r3, [r7, #16]
 536:Drivers/STM32F7xx_HAL_Driver/Src/stm32f7xx_hal_tim_ex.c ****     if (!IS_TIM_SLAVEMODE_TRIGGER_ENABLED(tmpsmcr))
 1251              		.loc 1 536 8
 1252 0112 3B69     		ldr	r3, [r7, #16]
 1253 0114 062B     		cmp	r3, #6
 1254 0116 15D0     		beq	.L54
 1255              		.loc 1 536 9 discriminator 1
 1256 0118 3B69     		ldr	r3, [r7, #16]
 1257 011a B3F5803F 		cmp	r3, #65536
 1258 011e 11D0     		beq	.L54
 537:Drivers/STM32F7xx_HAL_Driver/Src/stm32f7xx_hal_tim_ex.c ****     {
 538:Drivers/STM32F7xx_HAL_Driver/Src/stm32f7xx_hal_tim_ex.c ****       __HAL_TIM_ENABLE(htim);
 1259              		.loc 1 538 7
 1260 0120 FB68     		ldr	r3, [r7, #12]
 1261 0122 1B68     		ldr	r3, [r3]
 1262 0124 1A68     		ldr	r2, [r3]
 1263 0126 FB68     		ldr	r3, [r7, #12]
 1264 0128 1B68     		ldr	r3, [r3]
 1265 012a 42F00102 		orr	r2, r2, #1
 1266 012e 1A60     		str	r2, [r3]
 536:Drivers/STM32F7xx_HAL_Driver/Src/stm32f7xx_hal_tim_ex.c ****     if (!IS_TIM_SLAVEMODE_TRIGGER_ENABLED(tmpsmcr))
 1267              		.loc 1 536 8
 1268 0130 08E0     		b	.L54
 1269              	.L50:
 539:Drivers/STM32F7xx_HAL_Driver/Src/stm32f7xx_hal_tim_ex.c ****     }
 540:Drivers/STM32F7xx_HAL_Driver/Src/stm32f7xx_hal_tim_ex.c ****   }
 541:Drivers/STM32F7xx_HAL_Driver/Src/stm32f7xx_hal_tim_ex.c ****   else
 542:Drivers/STM32F7xx_HAL_Driver/Src/stm32f7xx_hal_tim_ex.c ****   {
 543:Drivers/STM32F7xx_HAL_Driver/Src/stm32f7xx_hal_tim_ex.c ****     __HAL_TIM_ENABLE(htim);
 1270              		.loc 1 543 5
 1271 0132 FB68     		ldr	r3, [r7, #12]
 1272 0134 1B68     		ldr	r3, [r3]
 1273 0136 1A68     		ldr	r2, [r3]
 1274 0138 FB68     		ldr	r3, [r7, #12]
 1275 013a 1B68     		ldr	r3, [r3]
 1276 013c 42F00102 		orr	r2, r2, #1
 1277 0140 1A60     		str	r2, [r3]
 1278 0142 00E0     		b	.L52
 1279              	.L54:
 536:Drivers/STM32F7xx_HAL_Driver/Src/stm32f7xx_hal_tim_ex.c ****     {
 1280              		.loc 1 536 8
 1281 0144 00BF     		nop
 1282              	.L52:
 544:Drivers/STM32F7xx_HAL_Driver/Src/stm32f7xx_hal_tim_ex.c ****   }
 545:Drivers/STM32F7xx_HAL_Driver/Src/stm32f7xx_hal_tim_ex.c **** 
 546:Drivers/STM32F7xx_HAL_Driver/Src/stm32f7xx_hal_tim_ex.c ****   /* Return function status */
 547:Drivers/STM32F7xx_HAL_Driver/Src/stm32f7xx_hal_tim_ex.c ****   return HAL_OK;
 1283              		.loc 1 547 10
 1284 0146 0023     		movs	r3, #0
 1285              	.L44:
 548:Drivers/STM32F7xx_HAL_Driver/Src/stm32f7xx_hal_tim_ex.c **** }
ARM GAS  /tmp/ccOFTjtU.s 			page 33


 1286              		.loc 1 548 1
 1287 0148 1846     		mov	r0, r3
 1288 014a 1837     		adds	r7, r7, #24
 1289              	.LCFI45:
 1290              		.cfi_def_cfa_offset 8
 1291 014c BD46     		mov	sp, r7
 1292              	.LCFI46:
 1293              		.cfi_def_cfa_register 13
 1294              		@ sp needed
 1295 014e 80BD     		pop	{r7, pc}
 1296              	.L56:
 1297              		.align	2
 1298              	.L55:
 1299 0150 00000000 		.word	TIM_DMACaptureCplt
 1300 0154 00000000 		.word	TIM_DMACaptureHalfCplt
 1301 0158 00000000 		.word	TIM_DMAError
 1302 015c 00000140 		.word	1073807360
 1303 0160 00040040 		.word	1073742848
 1304 0164 00080040 		.word	1073743872
 1305 0168 000C0040 		.word	1073744896
 1306 016c 00040140 		.word	1073808384
 1307 0170 00400140 		.word	1073823744
 1308 0174 00180040 		.word	1073747968
 1309 0178 07000100 		.word	65543
 1310              		.cfi_endproc
 1311              	.LFE149:
 1313              		.section	.text.HAL_TIMEx_HallSensor_Stop_DMA,"ax",%progbits
 1314              		.align	1
 1315              		.global	HAL_TIMEx_HallSensor_Stop_DMA
 1316              		.syntax unified
 1317              		.thumb
 1318              		.thumb_func
 1319              		.fpu fpv5-d16
 1321              	HAL_TIMEx_HallSensor_Stop_DMA:
 1322              	.LFB150:
 549:Drivers/STM32F7xx_HAL_Driver/Src/stm32f7xx_hal_tim_ex.c **** 
 550:Drivers/STM32F7xx_HAL_Driver/Src/stm32f7xx_hal_tim_ex.c **** /**
 551:Drivers/STM32F7xx_HAL_Driver/Src/stm32f7xx_hal_tim_ex.c ****   * @brief  Stops the TIM Hall Sensor Interface in DMA mode.
 552:Drivers/STM32F7xx_HAL_Driver/Src/stm32f7xx_hal_tim_ex.c ****   * @param  htim TIM Hall Sensor Interface handle
 553:Drivers/STM32F7xx_HAL_Driver/Src/stm32f7xx_hal_tim_ex.c ****   * @retval HAL status
 554:Drivers/STM32F7xx_HAL_Driver/Src/stm32f7xx_hal_tim_ex.c ****   */
 555:Drivers/STM32F7xx_HAL_Driver/Src/stm32f7xx_hal_tim_ex.c **** HAL_StatusTypeDef HAL_TIMEx_HallSensor_Stop_DMA(TIM_HandleTypeDef *htim)
 556:Drivers/STM32F7xx_HAL_Driver/Src/stm32f7xx_hal_tim_ex.c **** {
 1323              		.loc 1 556 1
 1324              		.cfi_startproc
 1325              		@ args = 0, pretend = 0, frame = 8
 1326              		@ frame_needed = 1, uses_anonymous_args = 0
 1327 0000 80B5     		push	{r7, lr}
 1328              	.LCFI47:
 1329              		.cfi_def_cfa_offset 8
 1330              		.cfi_offset 7, -8
 1331              		.cfi_offset 14, -4
 1332 0002 82B0     		sub	sp, sp, #8
 1333              	.LCFI48:
 1334              		.cfi_def_cfa_offset 16
 1335 0004 00AF     		add	r7, sp, #0
 1336              	.LCFI49:
ARM GAS  /tmp/ccOFTjtU.s 			page 34


 1337              		.cfi_def_cfa_register 7
 1338 0006 7860     		str	r0, [r7, #4]
 557:Drivers/STM32F7xx_HAL_Driver/Src/stm32f7xx_hal_tim_ex.c ****   /* Check the parameters */
 558:Drivers/STM32F7xx_HAL_Driver/Src/stm32f7xx_hal_tim_ex.c ****   assert_param(IS_TIM_HALL_SENSOR_INTERFACE_INSTANCE(htim->Instance));
 559:Drivers/STM32F7xx_HAL_Driver/Src/stm32f7xx_hal_tim_ex.c **** 
 560:Drivers/STM32F7xx_HAL_Driver/Src/stm32f7xx_hal_tim_ex.c ****   /* Disable the Input Capture channel 1
 561:Drivers/STM32F7xx_HAL_Driver/Src/stm32f7xx_hal_tim_ex.c ****     (in the Hall Sensor Interface the three possible channels that can be used are TIM_CHANNEL_1, T
 562:Drivers/STM32F7xx_HAL_Driver/Src/stm32f7xx_hal_tim_ex.c ****   TIM_CCxChannelCmd(htim->Instance, TIM_CHANNEL_1, TIM_CCx_DISABLE);
 1339              		.loc 1 562 3
 1340 0008 7B68     		ldr	r3, [r7, #4]
 1341 000a 1B68     		ldr	r3, [r3]
 1342 000c 0022     		movs	r2, #0
 1343 000e 0021     		movs	r1, #0
 1344 0010 1846     		mov	r0, r3
 1345 0012 FFF7FEFF 		bl	TIM_CCxChannelCmd
 563:Drivers/STM32F7xx_HAL_Driver/Src/stm32f7xx_hal_tim_ex.c **** 
 564:Drivers/STM32F7xx_HAL_Driver/Src/stm32f7xx_hal_tim_ex.c **** 
 565:Drivers/STM32F7xx_HAL_Driver/Src/stm32f7xx_hal_tim_ex.c ****   /* Disable the capture compare Interrupts 1 event */
 566:Drivers/STM32F7xx_HAL_Driver/Src/stm32f7xx_hal_tim_ex.c ****   __HAL_TIM_DISABLE_DMA(htim, TIM_DMA_CC1);
 1346              		.loc 1 566 3
 1347 0016 7B68     		ldr	r3, [r7, #4]
 1348 0018 1B68     		ldr	r3, [r3]
 1349 001a DA68     		ldr	r2, [r3, #12]
 1350 001c 7B68     		ldr	r3, [r7, #4]
 1351 001e 1B68     		ldr	r3, [r3]
 1352 0020 22F40072 		bic	r2, r2, #512
 1353 0024 DA60     		str	r2, [r3, #12]
 567:Drivers/STM32F7xx_HAL_Driver/Src/stm32f7xx_hal_tim_ex.c **** 
 568:Drivers/STM32F7xx_HAL_Driver/Src/stm32f7xx_hal_tim_ex.c ****   (void)HAL_DMA_Abort_IT(htim->hdma[TIM_DMA_ID_CC1]);
 1354              		.loc 1 568 9
 1355 0026 7B68     		ldr	r3, [r7, #4]
 1356 0028 5B6A     		ldr	r3, [r3, #36]
 1357 002a 1846     		mov	r0, r3
 1358 002c FFF7FEFF 		bl	HAL_DMA_Abort_IT
 569:Drivers/STM32F7xx_HAL_Driver/Src/stm32f7xx_hal_tim_ex.c **** 
 570:Drivers/STM32F7xx_HAL_Driver/Src/stm32f7xx_hal_tim_ex.c ****   /* Disable the Peripheral */
 571:Drivers/STM32F7xx_HAL_Driver/Src/stm32f7xx_hal_tim_ex.c ****   __HAL_TIM_DISABLE(htim);
 1359              		.loc 1 571 3
 1360 0030 7B68     		ldr	r3, [r7, #4]
 1361 0032 1B68     		ldr	r3, [r3]
 1362 0034 1A6A     		ldr	r2, [r3, #32]
 1363 0036 41F21113 		movw	r3, #4369
 1364 003a 1340     		ands	r3, r3, r2
 1365 003c 002B     		cmp	r3, #0
 1366 003e 0FD1     		bne	.L58
 1367              		.loc 1 571 3 is_stmt 0 discriminator 1
 1368 0040 7B68     		ldr	r3, [r7, #4]
 1369 0042 1B68     		ldr	r3, [r3]
 1370 0044 1A6A     		ldr	r2, [r3, #32]
 1371 0046 40F24443 		movw	r3, #1092
 1372 004a 1340     		ands	r3, r3, r2
 1373 004c 002B     		cmp	r3, #0
 1374 004e 07D1     		bne	.L58
 1375              		.loc 1 571 3 discriminator 2
 1376 0050 7B68     		ldr	r3, [r7, #4]
 1377 0052 1B68     		ldr	r3, [r3]
 1378 0054 1A68     		ldr	r2, [r3]
ARM GAS  /tmp/ccOFTjtU.s 			page 35


 1379 0056 7B68     		ldr	r3, [r7, #4]
 1380 0058 1B68     		ldr	r3, [r3]
 1381 005a 22F00102 		bic	r2, r2, #1
 1382 005e 1A60     		str	r2, [r3]
 1383              	.L58:
 572:Drivers/STM32F7xx_HAL_Driver/Src/stm32f7xx_hal_tim_ex.c **** 
 573:Drivers/STM32F7xx_HAL_Driver/Src/stm32f7xx_hal_tim_ex.c ****   /* Set the TIM channel state */
 574:Drivers/STM32F7xx_HAL_Driver/Src/stm32f7xx_hal_tim_ex.c ****   TIM_CHANNEL_STATE_SET(htim, TIM_CHANNEL_1, HAL_TIM_CHANNEL_STATE_READY);
 1384              		.loc 1 574 3 is_stmt 1
 1385 0060 7B68     		ldr	r3, [r7, #4]
 1386 0062 0122     		movs	r2, #1
 1387 0064 83F83E20 		strb	r2, [r3, #62]
 575:Drivers/STM32F7xx_HAL_Driver/Src/stm32f7xx_hal_tim_ex.c ****   TIM_CHANNEL_N_STATE_SET(htim, TIM_CHANNEL_1, HAL_TIM_CHANNEL_STATE_READY);
 1388              		.loc 1 575 3
 1389 0068 7B68     		ldr	r3, [r7, #4]
 1390 006a 0122     		movs	r2, #1
 1391 006c 83F84420 		strb	r2, [r3, #68]
 576:Drivers/STM32F7xx_HAL_Driver/Src/stm32f7xx_hal_tim_ex.c **** 
 577:Drivers/STM32F7xx_HAL_Driver/Src/stm32f7xx_hal_tim_ex.c ****   /* Return function status */
 578:Drivers/STM32F7xx_HAL_Driver/Src/stm32f7xx_hal_tim_ex.c ****   return HAL_OK;
 1392              		.loc 1 578 10
 1393 0070 0023     		movs	r3, #0
 579:Drivers/STM32F7xx_HAL_Driver/Src/stm32f7xx_hal_tim_ex.c **** }
 1394              		.loc 1 579 1
 1395 0072 1846     		mov	r0, r3
 1396 0074 0837     		adds	r7, r7, #8
 1397              	.LCFI50:
 1398              		.cfi_def_cfa_offset 8
 1399 0076 BD46     		mov	sp, r7
 1400              	.LCFI51:
 1401              		.cfi_def_cfa_register 13
 1402              		@ sp needed
 1403 0078 80BD     		pop	{r7, pc}
 1404              		.cfi_endproc
 1405              	.LFE150:
 1407              		.section	.text.HAL_TIMEx_OCN_Start,"ax",%progbits
 1408              		.align	1
 1409              		.global	HAL_TIMEx_OCN_Start
 1410              		.syntax unified
 1411              		.thumb
 1412              		.thumb_func
 1413              		.fpu fpv5-d16
 1415              	HAL_TIMEx_OCN_Start:
 1416              	.LFB151:
 580:Drivers/STM32F7xx_HAL_Driver/Src/stm32f7xx_hal_tim_ex.c **** 
 581:Drivers/STM32F7xx_HAL_Driver/Src/stm32f7xx_hal_tim_ex.c **** /**
 582:Drivers/STM32F7xx_HAL_Driver/Src/stm32f7xx_hal_tim_ex.c ****   * @}
 583:Drivers/STM32F7xx_HAL_Driver/Src/stm32f7xx_hal_tim_ex.c ****   */
 584:Drivers/STM32F7xx_HAL_Driver/Src/stm32f7xx_hal_tim_ex.c **** 
 585:Drivers/STM32F7xx_HAL_Driver/Src/stm32f7xx_hal_tim_ex.c **** /** @defgroup TIMEx_Exported_Functions_Group2 Extended Timer Complementary Output Compare functions
 586:Drivers/STM32F7xx_HAL_Driver/Src/stm32f7xx_hal_tim_ex.c ****   *  @brief   Timer Complementary Output Compare functions
 587:Drivers/STM32F7xx_HAL_Driver/Src/stm32f7xx_hal_tim_ex.c ****   *
 588:Drivers/STM32F7xx_HAL_Driver/Src/stm32f7xx_hal_tim_ex.c **** @verbatim
 589:Drivers/STM32F7xx_HAL_Driver/Src/stm32f7xx_hal_tim_ex.c ****   ==============================================================================
 590:Drivers/STM32F7xx_HAL_Driver/Src/stm32f7xx_hal_tim_ex.c ****               ##### Timer Complementary Output Compare functions #####
 591:Drivers/STM32F7xx_HAL_Driver/Src/stm32f7xx_hal_tim_ex.c ****   ==============================================================================
 592:Drivers/STM32F7xx_HAL_Driver/Src/stm32f7xx_hal_tim_ex.c ****   [..]
ARM GAS  /tmp/ccOFTjtU.s 			page 36


 593:Drivers/STM32F7xx_HAL_Driver/Src/stm32f7xx_hal_tim_ex.c ****     This section provides functions allowing to:
 594:Drivers/STM32F7xx_HAL_Driver/Src/stm32f7xx_hal_tim_ex.c ****     (+) Start the Complementary Output Compare/PWM.
 595:Drivers/STM32F7xx_HAL_Driver/Src/stm32f7xx_hal_tim_ex.c ****     (+) Stop the Complementary Output Compare/PWM.
 596:Drivers/STM32F7xx_HAL_Driver/Src/stm32f7xx_hal_tim_ex.c ****     (+) Start the Complementary Output Compare/PWM and enable interrupts.
 597:Drivers/STM32F7xx_HAL_Driver/Src/stm32f7xx_hal_tim_ex.c ****     (+) Stop the Complementary Output Compare/PWM and disable interrupts.
 598:Drivers/STM32F7xx_HAL_Driver/Src/stm32f7xx_hal_tim_ex.c ****     (+) Start the Complementary Output Compare/PWM and enable DMA transfers.
 599:Drivers/STM32F7xx_HAL_Driver/Src/stm32f7xx_hal_tim_ex.c ****     (+) Stop the Complementary Output Compare/PWM and disable DMA transfers.
 600:Drivers/STM32F7xx_HAL_Driver/Src/stm32f7xx_hal_tim_ex.c **** 
 601:Drivers/STM32F7xx_HAL_Driver/Src/stm32f7xx_hal_tim_ex.c **** @endverbatim
 602:Drivers/STM32F7xx_HAL_Driver/Src/stm32f7xx_hal_tim_ex.c ****   * @{
 603:Drivers/STM32F7xx_HAL_Driver/Src/stm32f7xx_hal_tim_ex.c ****   */
 604:Drivers/STM32F7xx_HAL_Driver/Src/stm32f7xx_hal_tim_ex.c **** 
 605:Drivers/STM32F7xx_HAL_Driver/Src/stm32f7xx_hal_tim_ex.c **** /**
 606:Drivers/STM32F7xx_HAL_Driver/Src/stm32f7xx_hal_tim_ex.c ****   * @brief  Starts the TIM Output Compare signal generation on the complementary
 607:Drivers/STM32F7xx_HAL_Driver/Src/stm32f7xx_hal_tim_ex.c ****   *         output.
 608:Drivers/STM32F7xx_HAL_Driver/Src/stm32f7xx_hal_tim_ex.c ****   * @param  htim TIM Output Compare handle
 609:Drivers/STM32F7xx_HAL_Driver/Src/stm32f7xx_hal_tim_ex.c ****   * @param  Channel TIM Channel to be enabled
 610:Drivers/STM32F7xx_HAL_Driver/Src/stm32f7xx_hal_tim_ex.c ****   *          This parameter can be one of the following values:
 611:Drivers/STM32F7xx_HAL_Driver/Src/stm32f7xx_hal_tim_ex.c ****   *            @arg TIM_CHANNEL_1: TIM Channel 1 selected
 612:Drivers/STM32F7xx_HAL_Driver/Src/stm32f7xx_hal_tim_ex.c ****   *            @arg TIM_CHANNEL_2: TIM Channel 2 selected
 613:Drivers/STM32F7xx_HAL_Driver/Src/stm32f7xx_hal_tim_ex.c ****   *            @arg TIM_CHANNEL_3: TIM Channel 3 selected
 614:Drivers/STM32F7xx_HAL_Driver/Src/stm32f7xx_hal_tim_ex.c ****   * @retval HAL status
 615:Drivers/STM32F7xx_HAL_Driver/Src/stm32f7xx_hal_tim_ex.c ****   */
 616:Drivers/STM32F7xx_HAL_Driver/Src/stm32f7xx_hal_tim_ex.c **** HAL_StatusTypeDef HAL_TIMEx_OCN_Start(TIM_HandleTypeDef *htim, uint32_t Channel)
 617:Drivers/STM32F7xx_HAL_Driver/Src/stm32f7xx_hal_tim_ex.c **** {
 1417              		.loc 1 617 1
 1418              		.cfi_startproc
 1419              		@ args = 0, pretend = 0, frame = 16
 1420              		@ frame_needed = 1, uses_anonymous_args = 0
 1421 0000 80B5     		push	{r7, lr}
 1422              	.LCFI52:
 1423              		.cfi_def_cfa_offset 8
 1424              		.cfi_offset 7, -8
 1425              		.cfi_offset 14, -4
 1426 0002 84B0     		sub	sp, sp, #16
 1427              	.LCFI53:
 1428              		.cfi_def_cfa_offset 24
 1429 0004 00AF     		add	r7, sp, #0
 1430              	.LCFI54:
 1431              		.cfi_def_cfa_register 7
 1432 0006 7860     		str	r0, [r7, #4]
 1433 0008 3960     		str	r1, [r7]
 618:Drivers/STM32F7xx_HAL_Driver/Src/stm32f7xx_hal_tim_ex.c ****   uint32_t tmpsmcr;
 619:Drivers/STM32F7xx_HAL_Driver/Src/stm32f7xx_hal_tim_ex.c **** 
 620:Drivers/STM32F7xx_HAL_Driver/Src/stm32f7xx_hal_tim_ex.c ****   /* Check the parameters */
 621:Drivers/STM32F7xx_HAL_Driver/Src/stm32f7xx_hal_tim_ex.c ****   assert_param(IS_TIM_CCXN_INSTANCE(htim->Instance, Channel));
 622:Drivers/STM32F7xx_HAL_Driver/Src/stm32f7xx_hal_tim_ex.c **** 
 623:Drivers/STM32F7xx_HAL_Driver/Src/stm32f7xx_hal_tim_ex.c ****   /* Check the TIM complementary channel state */
 624:Drivers/STM32F7xx_HAL_Driver/Src/stm32f7xx_hal_tim_ex.c ****   if (TIM_CHANNEL_N_STATE_GET(htim, Channel) != HAL_TIM_CHANNEL_STATE_READY)
 1434              		.loc 1 624 46
 1435 000a 3B68     		ldr	r3, [r7]
 1436 000c 002B     		cmp	r3, #0
 1437 000e 09D1     		bne	.L61
 1438              		.loc 1 624 7 discriminator 1
 1439 0010 7B68     		ldr	r3, [r7, #4]
 1440 0012 93F84430 		ldrb	r3, [r3, #68]
 1441 0016 DBB2     		uxtb	r3, r3
ARM GAS  /tmp/ccOFTjtU.s 			page 37


 1442              		.loc 1 624 46 discriminator 1
 1443 0018 012B     		cmp	r3, #1
 1444 001a 14BF     		ite	ne
 1445 001c 0123     		movne	r3, #1
 1446 001e 0023     		moveq	r3, #0
 1447 0020 DBB2     		uxtb	r3, r3
 1448 0022 22E0     		b	.L62
 1449              	.L61:
 1450              		.loc 1 624 46 is_stmt 0 discriminator 2
 1451 0024 3B68     		ldr	r3, [r7]
 1452 0026 042B     		cmp	r3, #4
 1453 0028 09D1     		bne	.L63
 1454              		.loc 1 624 7 is_stmt 1 discriminator 4
 1455 002a 7B68     		ldr	r3, [r7, #4]
 1456 002c 93F84530 		ldrb	r3, [r3, #69]
 1457 0030 DBB2     		uxtb	r3, r3
 1458              		.loc 1 624 46 discriminator 4
 1459 0032 012B     		cmp	r3, #1
 1460 0034 14BF     		ite	ne
 1461 0036 0123     		movne	r3, #1
 1462 0038 0023     		moveq	r3, #0
 1463 003a DBB2     		uxtb	r3, r3
 1464 003c 15E0     		b	.L62
 1465              	.L63:
 1466              		.loc 1 624 46 is_stmt 0 discriminator 5
 1467 003e 3B68     		ldr	r3, [r7]
 1468 0040 082B     		cmp	r3, #8
 1469 0042 09D1     		bne	.L65
 1470              		.loc 1 624 7 is_stmt 1 discriminator 7
 1471 0044 7B68     		ldr	r3, [r7, #4]
 1472 0046 93F84630 		ldrb	r3, [r3, #70]
 1473 004a DBB2     		uxtb	r3, r3
 1474              		.loc 1 624 46 discriminator 7
 1475 004c 012B     		cmp	r3, #1
 1476 004e 14BF     		ite	ne
 1477 0050 0123     		movne	r3, #1
 1478 0052 0023     		moveq	r3, #0
 1479 0054 DBB2     		uxtb	r3, r3
 1480 0056 08E0     		b	.L62
 1481              	.L65:
 1482              		.loc 1 624 7 discriminator 8
 1483 0058 7B68     		ldr	r3, [r7, #4]
 1484 005a 93F84730 		ldrb	r3, [r3, #71]
 1485 005e DBB2     		uxtb	r3, r3
 1486              		.loc 1 624 46 discriminator 8
 1487 0060 012B     		cmp	r3, #1
 1488 0062 14BF     		ite	ne
 1489 0064 0123     		movne	r3, #1
 1490 0066 0023     		moveq	r3, #0
 1491 0068 DBB2     		uxtb	r3, r3
 1492              	.L62:
 1493              		.loc 1 624 6 discriminator 12
 1494 006a 002B     		cmp	r3, #0
 1495 006c 01D0     		beq	.L67
 625:Drivers/STM32F7xx_HAL_Driver/Src/stm32f7xx_hal_tim_ex.c ****   {
 626:Drivers/STM32F7xx_HAL_Driver/Src/stm32f7xx_hal_tim_ex.c ****     return HAL_ERROR;
 1496              		.loc 1 626 12
ARM GAS  /tmp/ccOFTjtU.s 			page 38


 1497 006e 0123     		movs	r3, #1
 1498 0070 73E0     		b	.L68
 1499              	.L67:
 627:Drivers/STM32F7xx_HAL_Driver/Src/stm32f7xx_hal_tim_ex.c ****   }
 628:Drivers/STM32F7xx_HAL_Driver/Src/stm32f7xx_hal_tim_ex.c **** 
 629:Drivers/STM32F7xx_HAL_Driver/Src/stm32f7xx_hal_tim_ex.c ****   /* Set the TIM complementary channel state */
 630:Drivers/STM32F7xx_HAL_Driver/Src/stm32f7xx_hal_tim_ex.c ****   TIM_CHANNEL_N_STATE_SET(htim, Channel, HAL_TIM_CHANNEL_STATE_BUSY);
 1500              		.loc 1 630 3
 1501 0072 3B68     		ldr	r3, [r7]
 1502 0074 002B     		cmp	r3, #0
 1503 0076 04D1     		bne	.L69
 1504              		.loc 1 630 3 is_stmt 0 discriminator 1
 1505 0078 7B68     		ldr	r3, [r7, #4]
 1506 007a 0222     		movs	r2, #2
 1507 007c 83F84420 		strb	r2, [r3, #68]
 1508 0080 13E0     		b	.L70
 1509              	.L69:
 1510              		.loc 1 630 3 discriminator 2
 1511 0082 3B68     		ldr	r3, [r7]
 1512 0084 042B     		cmp	r3, #4
 1513 0086 04D1     		bne	.L71
 1514              		.loc 1 630 3 discriminator 3
 1515 0088 7B68     		ldr	r3, [r7, #4]
 1516 008a 0222     		movs	r2, #2
 1517 008c 83F84520 		strb	r2, [r3, #69]
 1518 0090 0BE0     		b	.L70
 1519              	.L71:
 1520              		.loc 1 630 3 discriminator 4
 1521 0092 3B68     		ldr	r3, [r7]
 1522 0094 082B     		cmp	r3, #8
 1523 0096 04D1     		bne	.L73
 1524              		.loc 1 630 3 discriminator 6
 1525 0098 7B68     		ldr	r3, [r7, #4]
 1526 009a 0222     		movs	r2, #2
 1527 009c 83F84620 		strb	r2, [r3, #70]
 1528 00a0 03E0     		b	.L70
 1529              	.L73:
 1530              		.loc 1 630 3 discriminator 7
 1531 00a2 7B68     		ldr	r3, [r7, #4]
 1532 00a4 0222     		movs	r2, #2
 1533 00a6 83F84720 		strb	r2, [r3, #71]
 1534              	.L70:
 631:Drivers/STM32F7xx_HAL_Driver/Src/stm32f7xx_hal_tim_ex.c **** 
 632:Drivers/STM32F7xx_HAL_Driver/Src/stm32f7xx_hal_tim_ex.c ****   /* Enable the Capture compare channel N */
 633:Drivers/STM32F7xx_HAL_Driver/Src/stm32f7xx_hal_tim_ex.c ****   TIM_CCxNChannelCmd(htim->Instance, Channel, TIM_CCxN_ENABLE);
 1535              		.loc 1 633 3 is_stmt 1
 1536 00aa 7B68     		ldr	r3, [r7, #4]
 1537 00ac 1B68     		ldr	r3, [r3]
 1538 00ae 0422     		movs	r2, #4
 1539 00b0 3968     		ldr	r1, [r7]
 1540 00b2 1846     		mov	r0, r3
 1541 00b4 FFF7FEFF 		bl	TIM_CCxNChannelCmd
 634:Drivers/STM32F7xx_HAL_Driver/Src/stm32f7xx_hal_tim_ex.c **** 
 635:Drivers/STM32F7xx_HAL_Driver/Src/stm32f7xx_hal_tim_ex.c ****   /* Enable the Main Output */
 636:Drivers/STM32F7xx_HAL_Driver/Src/stm32f7xx_hal_tim_ex.c ****   __HAL_TIM_MOE_ENABLE(htim);
 1542              		.loc 1 636 3
 1543 00b8 7B68     		ldr	r3, [r7, #4]
ARM GAS  /tmp/ccOFTjtU.s 			page 39


 1544 00ba 1B68     		ldr	r3, [r3]
 1545 00bc 5A6C     		ldr	r2, [r3, #68]
 1546 00be 7B68     		ldr	r3, [r7, #4]
 1547 00c0 1B68     		ldr	r3, [r3]
 1548 00c2 42F40042 		orr	r2, r2, #32768
 1549 00c6 5A64     		str	r2, [r3, #68]
 637:Drivers/STM32F7xx_HAL_Driver/Src/stm32f7xx_hal_tim_ex.c **** 
 638:Drivers/STM32F7xx_HAL_Driver/Src/stm32f7xx_hal_tim_ex.c ****   /* Enable the Peripheral, except in trigger mode where enable is automatically done with trigger 
 639:Drivers/STM32F7xx_HAL_Driver/Src/stm32f7xx_hal_tim_ex.c ****   if (IS_TIM_SLAVE_INSTANCE(htim->Instance))
 1550              		.loc 1 639 7
 1551 00c8 7B68     		ldr	r3, [r7, #4]
 1552 00ca 1B68     		ldr	r3, [r3]
 1553              		.loc 1 639 6
 1554 00cc 254A     		ldr	r2, .L80
 1555 00ce 9342     		cmp	r3, r2
 1556 00d0 22D0     		beq	.L75
 1557              		.loc 1 639 7 discriminator 1
 1558 00d2 7B68     		ldr	r3, [r7, #4]
 1559 00d4 1B68     		ldr	r3, [r3]
 1560 00d6 B3F1804F 		cmp	r3, #1073741824
 1561 00da 1DD0     		beq	.L75
 1562              		.loc 1 639 7 is_stmt 0 discriminator 2
 1563 00dc 7B68     		ldr	r3, [r7, #4]
 1564 00de 1B68     		ldr	r3, [r3]
 1565 00e0 214A     		ldr	r2, .L80+4
 1566 00e2 9342     		cmp	r3, r2
 1567 00e4 18D0     		beq	.L75
 1568              		.loc 1 639 7 discriminator 3
 1569 00e6 7B68     		ldr	r3, [r7, #4]
 1570 00e8 1B68     		ldr	r3, [r3]
 1571 00ea 204A     		ldr	r2, .L80+8
 1572 00ec 9342     		cmp	r3, r2
 1573 00ee 13D0     		beq	.L75
 1574              		.loc 1 639 7 discriminator 4
 1575 00f0 7B68     		ldr	r3, [r7, #4]
 1576 00f2 1B68     		ldr	r3, [r3]
 1577 00f4 1E4A     		ldr	r2, .L80+12
 1578 00f6 9342     		cmp	r3, r2
 1579 00f8 0ED0     		beq	.L75
 1580              		.loc 1 639 7 discriminator 5
 1581 00fa 7B68     		ldr	r3, [r7, #4]
 1582 00fc 1B68     		ldr	r3, [r3]
 1583 00fe 1D4A     		ldr	r2, .L80+16
 1584 0100 9342     		cmp	r3, r2
 1585 0102 09D0     		beq	.L75
 1586              		.loc 1 639 7 discriminator 6
 1587 0104 7B68     		ldr	r3, [r7, #4]
 1588 0106 1B68     		ldr	r3, [r3]
 1589 0108 1B4A     		ldr	r2, .L80+20
 1590 010a 9342     		cmp	r3, r2
 1591 010c 04D0     		beq	.L75
 1592              		.loc 1 639 7 discriminator 7
 1593 010e 7B68     		ldr	r3, [r7, #4]
 1594 0110 1B68     		ldr	r3, [r3]
 1595 0112 1A4A     		ldr	r2, .L80+24
 1596 0114 9342     		cmp	r3, r2
 1597 0116 15D1     		bne	.L76
ARM GAS  /tmp/ccOFTjtU.s 			page 40


 1598              	.L75:
 640:Drivers/STM32F7xx_HAL_Driver/Src/stm32f7xx_hal_tim_ex.c ****   {
 641:Drivers/STM32F7xx_HAL_Driver/Src/stm32f7xx_hal_tim_ex.c ****     tmpsmcr = htim->Instance->SMCR & TIM_SMCR_SMS;
 1599              		.loc 1 641 19 is_stmt 1
 1600 0118 7B68     		ldr	r3, [r7, #4]
 1601 011a 1B68     		ldr	r3, [r3]
 1602              		.loc 1 641 29
 1603 011c 9A68     		ldr	r2, [r3, #8]
 1604              		.loc 1 641 13
 1605 011e 184B     		ldr	r3, .L80+28
 1606 0120 1340     		ands	r3, r3, r2
 1607 0122 FB60     		str	r3, [r7, #12]
 642:Drivers/STM32F7xx_HAL_Driver/Src/stm32f7xx_hal_tim_ex.c ****     if (!IS_TIM_SLAVEMODE_TRIGGER_ENABLED(tmpsmcr))
 1608              		.loc 1 642 8
 1609 0124 FB68     		ldr	r3, [r7, #12]
 1610 0126 062B     		cmp	r3, #6
 1611 0128 15D0     		beq	.L79
 1612              		.loc 1 642 9 discriminator 1
 1613 012a FB68     		ldr	r3, [r7, #12]
 1614 012c B3F5803F 		cmp	r3, #65536
 1615 0130 11D0     		beq	.L79
 643:Drivers/STM32F7xx_HAL_Driver/Src/stm32f7xx_hal_tim_ex.c ****     {
 644:Drivers/STM32F7xx_HAL_Driver/Src/stm32f7xx_hal_tim_ex.c ****       __HAL_TIM_ENABLE(htim);
 1616              		.loc 1 644 7
 1617 0132 7B68     		ldr	r3, [r7, #4]
 1618 0134 1B68     		ldr	r3, [r3]
 1619 0136 1A68     		ldr	r2, [r3]
 1620 0138 7B68     		ldr	r3, [r7, #4]
 1621 013a 1B68     		ldr	r3, [r3]
 1622 013c 42F00102 		orr	r2, r2, #1
 1623 0140 1A60     		str	r2, [r3]
 642:Drivers/STM32F7xx_HAL_Driver/Src/stm32f7xx_hal_tim_ex.c ****     if (!IS_TIM_SLAVEMODE_TRIGGER_ENABLED(tmpsmcr))
 1624              		.loc 1 642 8
 1625 0142 08E0     		b	.L79
 1626              	.L76:
 645:Drivers/STM32F7xx_HAL_Driver/Src/stm32f7xx_hal_tim_ex.c ****     }
 646:Drivers/STM32F7xx_HAL_Driver/Src/stm32f7xx_hal_tim_ex.c ****   }
 647:Drivers/STM32F7xx_HAL_Driver/Src/stm32f7xx_hal_tim_ex.c ****   else
 648:Drivers/STM32F7xx_HAL_Driver/Src/stm32f7xx_hal_tim_ex.c ****   {
 649:Drivers/STM32F7xx_HAL_Driver/Src/stm32f7xx_hal_tim_ex.c ****     __HAL_TIM_ENABLE(htim);
 1627              		.loc 1 649 5
 1628 0144 7B68     		ldr	r3, [r7, #4]
 1629 0146 1B68     		ldr	r3, [r3]
 1630 0148 1A68     		ldr	r2, [r3]
 1631 014a 7B68     		ldr	r3, [r7, #4]
 1632 014c 1B68     		ldr	r3, [r3]
 1633 014e 42F00102 		orr	r2, r2, #1
 1634 0152 1A60     		str	r2, [r3]
 1635 0154 00E0     		b	.L78
 1636              	.L79:
 642:Drivers/STM32F7xx_HAL_Driver/Src/stm32f7xx_hal_tim_ex.c ****     {
 1637              		.loc 1 642 8
 1638 0156 00BF     		nop
 1639              	.L78:
 650:Drivers/STM32F7xx_HAL_Driver/Src/stm32f7xx_hal_tim_ex.c ****   }
 651:Drivers/STM32F7xx_HAL_Driver/Src/stm32f7xx_hal_tim_ex.c **** 
 652:Drivers/STM32F7xx_HAL_Driver/Src/stm32f7xx_hal_tim_ex.c ****   /* Return function status */
ARM GAS  /tmp/ccOFTjtU.s 			page 41


 653:Drivers/STM32F7xx_HAL_Driver/Src/stm32f7xx_hal_tim_ex.c ****   return HAL_OK;
 1640              		.loc 1 653 10
 1641 0158 0023     		movs	r3, #0
 1642              	.L68:
 654:Drivers/STM32F7xx_HAL_Driver/Src/stm32f7xx_hal_tim_ex.c **** }
 1643              		.loc 1 654 1
 1644 015a 1846     		mov	r0, r3
 1645 015c 1037     		adds	r7, r7, #16
 1646              	.LCFI55:
 1647              		.cfi_def_cfa_offset 8
 1648 015e BD46     		mov	sp, r7
 1649              	.LCFI56:
 1650              		.cfi_def_cfa_register 13
 1651              		@ sp needed
 1652 0160 80BD     		pop	{r7, pc}
 1653              	.L81:
 1654 0162 00BF     		.align	2
 1655              	.L80:
 1656 0164 00000140 		.word	1073807360
 1657 0168 00040040 		.word	1073742848
 1658 016c 00080040 		.word	1073743872
 1659 0170 000C0040 		.word	1073744896
 1660 0174 00040140 		.word	1073808384
 1661 0178 00400140 		.word	1073823744
 1662 017c 00180040 		.word	1073747968
 1663 0180 07000100 		.word	65543
 1664              		.cfi_endproc
 1665              	.LFE151:
 1667              		.section	.text.HAL_TIMEx_OCN_Stop,"ax",%progbits
 1668              		.align	1
 1669              		.global	HAL_TIMEx_OCN_Stop
 1670              		.syntax unified
 1671              		.thumb
 1672              		.thumb_func
 1673              		.fpu fpv5-d16
 1675              	HAL_TIMEx_OCN_Stop:
 1676              	.LFB152:
 655:Drivers/STM32F7xx_HAL_Driver/Src/stm32f7xx_hal_tim_ex.c **** 
 656:Drivers/STM32F7xx_HAL_Driver/Src/stm32f7xx_hal_tim_ex.c **** /**
 657:Drivers/STM32F7xx_HAL_Driver/Src/stm32f7xx_hal_tim_ex.c ****   * @brief  Stops the TIM Output Compare signal generation on the complementary
 658:Drivers/STM32F7xx_HAL_Driver/Src/stm32f7xx_hal_tim_ex.c ****   *         output.
 659:Drivers/STM32F7xx_HAL_Driver/Src/stm32f7xx_hal_tim_ex.c ****   * @param  htim TIM handle
 660:Drivers/STM32F7xx_HAL_Driver/Src/stm32f7xx_hal_tim_ex.c ****   * @param  Channel TIM Channel to be disabled
 661:Drivers/STM32F7xx_HAL_Driver/Src/stm32f7xx_hal_tim_ex.c ****   *          This parameter can be one of the following values:
 662:Drivers/STM32F7xx_HAL_Driver/Src/stm32f7xx_hal_tim_ex.c ****   *            @arg TIM_CHANNEL_1: TIM Channel 1 selected
 663:Drivers/STM32F7xx_HAL_Driver/Src/stm32f7xx_hal_tim_ex.c ****   *            @arg TIM_CHANNEL_2: TIM Channel 2 selected
 664:Drivers/STM32F7xx_HAL_Driver/Src/stm32f7xx_hal_tim_ex.c ****   *            @arg TIM_CHANNEL_3: TIM Channel 3 selected
 665:Drivers/STM32F7xx_HAL_Driver/Src/stm32f7xx_hal_tim_ex.c ****   * @retval HAL status
 666:Drivers/STM32F7xx_HAL_Driver/Src/stm32f7xx_hal_tim_ex.c ****   */
 667:Drivers/STM32F7xx_HAL_Driver/Src/stm32f7xx_hal_tim_ex.c **** HAL_StatusTypeDef HAL_TIMEx_OCN_Stop(TIM_HandleTypeDef *htim, uint32_t Channel)
 668:Drivers/STM32F7xx_HAL_Driver/Src/stm32f7xx_hal_tim_ex.c **** {
 1677              		.loc 1 668 1
 1678              		.cfi_startproc
 1679              		@ args = 0, pretend = 0, frame = 8
 1680              		@ frame_needed = 1, uses_anonymous_args = 0
 1681 0000 80B5     		push	{r7, lr}
 1682              	.LCFI57:
ARM GAS  /tmp/ccOFTjtU.s 			page 42


 1683              		.cfi_def_cfa_offset 8
 1684              		.cfi_offset 7, -8
 1685              		.cfi_offset 14, -4
 1686 0002 82B0     		sub	sp, sp, #8
 1687              	.LCFI58:
 1688              		.cfi_def_cfa_offset 16
 1689 0004 00AF     		add	r7, sp, #0
 1690              	.LCFI59:
 1691              		.cfi_def_cfa_register 7
 1692 0006 7860     		str	r0, [r7, #4]
 1693 0008 3960     		str	r1, [r7]
 669:Drivers/STM32F7xx_HAL_Driver/Src/stm32f7xx_hal_tim_ex.c ****   /* Check the parameters */
 670:Drivers/STM32F7xx_HAL_Driver/Src/stm32f7xx_hal_tim_ex.c ****   assert_param(IS_TIM_CCXN_INSTANCE(htim->Instance, Channel));
 671:Drivers/STM32F7xx_HAL_Driver/Src/stm32f7xx_hal_tim_ex.c **** 
 672:Drivers/STM32F7xx_HAL_Driver/Src/stm32f7xx_hal_tim_ex.c ****   /* Disable the Capture compare channel N */
 673:Drivers/STM32F7xx_HAL_Driver/Src/stm32f7xx_hal_tim_ex.c ****   TIM_CCxNChannelCmd(htim->Instance, Channel, TIM_CCxN_DISABLE);
 1694              		.loc 1 673 3
 1695 000a 7B68     		ldr	r3, [r7, #4]
 1696 000c 1B68     		ldr	r3, [r3]
 1697 000e 0022     		movs	r2, #0
 1698 0010 3968     		ldr	r1, [r7]
 1699 0012 1846     		mov	r0, r3
 1700 0014 FFF7FEFF 		bl	TIM_CCxNChannelCmd
 674:Drivers/STM32F7xx_HAL_Driver/Src/stm32f7xx_hal_tim_ex.c **** 
 675:Drivers/STM32F7xx_HAL_Driver/Src/stm32f7xx_hal_tim_ex.c ****   /* Disable the Main Output */
 676:Drivers/STM32F7xx_HAL_Driver/Src/stm32f7xx_hal_tim_ex.c ****   __HAL_TIM_MOE_DISABLE(htim);
 1701              		.loc 1 676 3
 1702 0018 7B68     		ldr	r3, [r7, #4]
 1703 001a 1B68     		ldr	r3, [r3]
 1704 001c 1A6A     		ldr	r2, [r3, #32]
 1705 001e 41F21113 		movw	r3, #4369
 1706 0022 1340     		ands	r3, r3, r2
 1707 0024 002B     		cmp	r3, #0
 1708 0026 0FD1     		bne	.L83
 1709              		.loc 1 676 3 is_stmt 0 discriminator 1
 1710 0028 7B68     		ldr	r3, [r7, #4]
 1711 002a 1B68     		ldr	r3, [r3]
 1712 002c 1A6A     		ldr	r2, [r3, #32]
 1713 002e 40F24443 		movw	r3, #1092
 1714 0032 1340     		ands	r3, r3, r2
 1715 0034 002B     		cmp	r3, #0
 1716 0036 07D1     		bne	.L83
 1717              		.loc 1 676 3 discriminator 2
 1718 0038 7B68     		ldr	r3, [r7, #4]
 1719 003a 1B68     		ldr	r3, [r3]
 1720 003c 5A6C     		ldr	r2, [r3, #68]
 1721 003e 7B68     		ldr	r3, [r7, #4]
 1722 0040 1B68     		ldr	r3, [r3]
 1723 0042 22F40042 		bic	r2, r2, #32768
 1724 0046 5A64     		str	r2, [r3, #68]
 1725              	.L83:
 677:Drivers/STM32F7xx_HAL_Driver/Src/stm32f7xx_hal_tim_ex.c **** 
 678:Drivers/STM32F7xx_HAL_Driver/Src/stm32f7xx_hal_tim_ex.c ****   /* Disable the Peripheral */
 679:Drivers/STM32F7xx_HAL_Driver/Src/stm32f7xx_hal_tim_ex.c ****   __HAL_TIM_DISABLE(htim);
 1726              		.loc 1 679 3 is_stmt 1
 1727 0048 7B68     		ldr	r3, [r7, #4]
 1728 004a 1B68     		ldr	r3, [r3]
ARM GAS  /tmp/ccOFTjtU.s 			page 43


 1729 004c 1A6A     		ldr	r2, [r3, #32]
 1730 004e 41F21113 		movw	r3, #4369
 1731 0052 1340     		ands	r3, r3, r2
 1732 0054 002B     		cmp	r3, #0
 1733 0056 0FD1     		bne	.L84
 1734              		.loc 1 679 3 is_stmt 0 discriminator 1
 1735 0058 7B68     		ldr	r3, [r7, #4]
 1736 005a 1B68     		ldr	r3, [r3]
 1737 005c 1A6A     		ldr	r2, [r3, #32]
 1738 005e 40F24443 		movw	r3, #1092
 1739 0062 1340     		ands	r3, r3, r2
 1740 0064 002B     		cmp	r3, #0
 1741 0066 07D1     		bne	.L84
 1742              		.loc 1 679 3 discriminator 2
 1743 0068 7B68     		ldr	r3, [r7, #4]
 1744 006a 1B68     		ldr	r3, [r3]
 1745 006c 1A68     		ldr	r2, [r3]
 1746 006e 7B68     		ldr	r3, [r7, #4]
 1747 0070 1B68     		ldr	r3, [r3]
 1748 0072 22F00102 		bic	r2, r2, #1
 1749 0076 1A60     		str	r2, [r3]
 1750              	.L84:
 680:Drivers/STM32F7xx_HAL_Driver/Src/stm32f7xx_hal_tim_ex.c **** 
 681:Drivers/STM32F7xx_HAL_Driver/Src/stm32f7xx_hal_tim_ex.c ****   /* Set the TIM complementary channel state */
 682:Drivers/STM32F7xx_HAL_Driver/Src/stm32f7xx_hal_tim_ex.c ****   TIM_CHANNEL_N_STATE_SET(htim, Channel, HAL_TIM_CHANNEL_STATE_READY);
 1751              		.loc 1 682 3 is_stmt 1
 1752 0078 3B68     		ldr	r3, [r7]
 1753 007a 002B     		cmp	r3, #0
 1754 007c 04D1     		bne	.L85
 1755              		.loc 1 682 3 is_stmt 0 discriminator 1
 1756 007e 7B68     		ldr	r3, [r7, #4]
 1757 0080 0122     		movs	r2, #1
 1758 0082 83F84420 		strb	r2, [r3, #68]
 1759 0086 13E0     		b	.L86
 1760              	.L85:
 1761              		.loc 1 682 3 discriminator 2
 1762 0088 3B68     		ldr	r3, [r7]
 1763 008a 042B     		cmp	r3, #4
 1764 008c 04D1     		bne	.L87
 1765              		.loc 1 682 3 discriminator 3
 1766 008e 7B68     		ldr	r3, [r7, #4]
 1767 0090 0122     		movs	r2, #1
 1768 0092 83F84520 		strb	r2, [r3, #69]
 1769 0096 0BE0     		b	.L86
 1770              	.L87:
 1771              		.loc 1 682 3 discriminator 4
 1772 0098 3B68     		ldr	r3, [r7]
 1773 009a 082B     		cmp	r3, #8
 1774 009c 04D1     		bne	.L89
 1775              		.loc 1 682 3 discriminator 6
 1776 009e 7B68     		ldr	r3, [r7, #4]
 1777 00a0 0122     		movs	r2, #1
 1778 00a2 83F84620 		strb	r2, [r3, #70]
 1779 00a6 03E0     		b	.L86
 1780              	.L89:
 1781              		.loc 1 682 3 discriminator 7
 1782 00a8 7B68     		ldr	r3, [r7, #4]
ARM GAS  /tmp/ccOFTjtU.s 			page 44


 1783 00aa 0122     		movs	r2, #1
 1784 00ac 83F84720 		strb	r2, [r3, #71]
 1785              	.L86:
 683:Drivers/STM32F7xx_HAL_Driver/Src/stm32f7xx_hal_tim_ex.c **** 
 684:Drivers/STM32F7xx_HAL_Driver/Src/stm32f7xx_hal_tim_ex.c ****   /* Return function status */
 685:Drivers/STM32F7xx_HAL_Driver/Src/stm32f7xx_hal_tim_ex.c ****   return HAL_OK;
 1786              		.loc 1 685 10 is_stmt 1
 1787 00b0 0023     		movs	r3, #0
 686:Drivers/STM32F7xx_HAL_Driver/Src/stm32f7xx_hal_tim_ex.c **** }
 1788              		.loc 1 686 1
 1789 00b2 1846     		mov	r0, r3
 1790 00b4 0837     		adds	r7, r7, #8
 1791              	.LCFI60:
 1792              		.cfi_def_cfa_offset 8
 1793 00b6 BD46     		mov	sp, r7
 1794              	.LCFI61:
 1795              		.cfi_def_cfa_register 13
 1796              		@ sp needed
 1797 00b8 80BD     		pop	{r7, pc}
 1798              		.cfi_endproc
 1799              	.LFE152:
 1801              		.section	.text.HAL_TIMEx_OCN_Start_IT,"ax",%progbits
 1802              		.align	1
 1803              		.global	HAL_TIMEx_OCN_Start_IT
 1804              		.syntax unified
 1805              		.thumb
 1806              		.thumb_func
 1807              		.fpu fpv5-d16
 1809              	HAL_TIMEx_OCN_Start_IT:
 1810              	.LFB153:
 687:Drivers/STM32F7xx_HAL_Driver/Src/stm32f7xx_hal_tim_ex.c **** 
 688:Drivers/STM32F7xx_HAL_Driver/Src/stm32f7xx_hal_tim_ex.c **** /**
 689:Drivers/STM32F7xx_HAL_Driver/Src/stm32f7xx_hal_tim_ex.c ****   * @brief  Starts the TIM Output Compare signal generation in interrupt mode
 690:Drivers/STM32F7xx_HAL_Driver/Src/stm32f7xx_hal_tim_ex.c ****   *         on the complementary output.
 691:Drivers/STM32F7xx_HAL_Driver/Src/stm32f7xx_hal_tim_ex.c ****   * @param  htim TIM OC handle
 692:Drivers/STM32F7xx_HAL_Driver/Src/stm32f7xx_hal_tim_ex.c ****   * @param  Channel TIM Channel to be enabled
 693:Drivers/STM32F7xx_HAL_Driver/Src/stm32f7xx_hal_tim_ex.c ****   *          This parameter can be one of the following values:
 694:Drivers/STM32F7xx_HAL_Driver/Src/stm32f7xx_hal_tim_ex.c ****   *            @arg TIM_CHANNEL_1: TIM Channel 1 selected
 695:Drivers/STM32F7xx_HAL_Driver/Src/stm32f7xx_hal_tim_ex.c ****   *            @arg TIM_CHANNEL_2: TIM Channel 2 selected
 696:Drivers/STM32F7xx_HAL_Driver/Src/stm32f7xx_hal_tim_ex.c ****   *            @arg TIM_CHANNEL_3: TIM Channel 3 selected
 697:Drivers/STM32F7xx_HAL_Driver/Src/stm32f7xx_hal_tim_ex.c ****   * @retval HAL status
 698:Drivers/STM32F7xx_HAL_Driver/Src/stm32f7xx_hal_tim_ex.c ****   */
 699:Drivers/STM32F7xx_HAL_Driver/Src/stm32f7xx_hal_tim_ex.c **** HAL_StatusTypeDef HAL_TIMEx_OCN_Start_IT(TIM_HandleTypeDef *htim, uint32_t Channel)
 700:Drivers/STM32F7xx_HAL_Driver/Src/stm32f7xx_hal_tim_ex.c **** {
 1811              		.loc 1 700 1
 1812              		.cfi_startproc
 1813              		@ args = 0, pretend = 0, frame = 16
 1814              		@ frame_needed = 1, uses_anonymous_args = 0
 1815 0000 80B5     		push	{r7, lr}
 1816              	.LCFI62:
 1817              		.cfi_def_cfa_offset 8
 1818              		.cfi_offset 7, -8
 1819              		.cfi_offset 14, -4
 1820 0002 84B0     		sub	sp, sp, #16
 1821              	.LCFI63:
 1822              		.cfi_def_cfa_offset 24
 1823 0004 00AF     		add	r7, sp, #0
ARM GAS  /tmp/ccOFTjtU.s 			page 45


 1824              	.LCFI64:
 1825              		.cfi_def_cfa_register 7
 1826 0006 7860     		str	r0, [r7, #4]
 1827 0008 3960     		str	r1, [r7]
 701:Drivers/STM32F7xx_HAL_Driver/Src/stm32f7xx_hal_tim_ex.c ****   uint32_t tmpsmcr;
 702:Drivers/STM32F7xx_HAL_Driver/Src/stm32f7xx_hal_tim_ex.c **** 
 703:Drivers/STM32F7xx_HAL_Driver/Src/stm32f7xx_hal_tim_ex.c ****   /* Check the parameters */
 704:Drivers/STM32F7xx_HAL_Driver/Src/stm32f7xx_hal_tim_ex.c ****   assert_param(IS_TIM_CCXN_INSTANCE(htim->Instance, Channel));
 705:Drivers/STM32F7xx_HAL_Driver/Src/stm32f7xx_hal_tim_ex.c **** 
 706:Drivers/STM32F7xx_HAL_Driver/Src/stm32f7xx_hal_tim_ex.c ****   /* Check the TIM complementary channel state */
 707:Drivers/STM32F7xx_HAL_Driver/Src/stm32f7xx_hal_tim_ex.c ****   if (TIM_CHANNEL_N_STATE_GET(htim, Channel) != HAL_TIM_CHANNEL_STATE_READY)
 1828              		.loc 1 707 46
 1829 000a 3B68     		ldr	r3, [r7]
 1830 000c 002B     		cmp	r3, #0
 1831 000e 09D1     		bne	.L93
 1832              		.loc 1 707 7 discriminator 1
 1833 0010 7B68     		ldr	r3, [r7, #4]
 1834 0012 93F84430 		ldrb	r3, [r3, #68]
 1835 0016 DBB2     		uxtb	r3, r3
 1836              		.loc 1 707 46 discriminator 1
 1837 0018 012B     		cmp	r3, #1
 1838 001a 14BF     		ite	ne
 1839 001c 0123     		movne	r3, #1
 1840 001e 0023     		moveq	r3, #0
 1841 0020 DBB2     		uxtb	r3, r3
 1842 0022 22E0     		b	.L94
 1843              	.L93:
 1844              		.loc 1 707 46 is_stmt 0 discriminator 2
 1845 0024 3B68     		ldr	r3, [r7]
 1846 0026 042B     		cmp	r3, #4
 1847 0028 09D1     		bne	.L95
 1848              		.loc 1 707 7 is_stmt 1 discriminator 4
 1849 002a 7B68     		ldr	r3, [r7, #4]
 1850 002c 93F84530 		ldrb	r3, [r3, #69]
 1851 0030 DBB2     		uxtb	r3, r3
 1852              		.loc 1 707 46 discriminator 4
 1853 0032 012B     		cmp	r3, #1
 1854 0034 14BF     		ite	ne
 1855 0036 0123     		movne	r3, #1
 1856 0038 0023     		moveq	r3, #0
 1857 003a DBB2     		uxtb	r3, r3
 1858 003c 15E0     		b	.L94
 1859              	.L95:
 1860              		.loc 1 707 46 is_stmt 0 discriminator 5
 1861 003e 3B68     		ldr	r3, [r7]
 1862 0040 082B     		cmp	r3, #8
 1863 0042 09D1     		bne	.L97
 1864              		.loc 1 707 7 is_stmt 1 discriminator 7
 1865 0044 7B68     		ldr	r3, [r7, #4]
 1866 0046 93F84630 		ldrb	r3, [r3, #70]
 1867 004a DBB2     		uxtb	r3, r3
 1868              		.loc 1 707 46 discriminator 7
 1869 004c 012B     		cmp	r3, #1
 1870 004e 14BF     		ite	ne
 1871 0050 0123     		movne	r3, #1
 1872 0052 0023     		moveq	r3, #0
 1873 0054 DBB2     		uxtb	r3, r3
ARM GAS  /tmp/ccOFTjtU.s 			page 46


 1874 0056 08E0     		b	.L94
 1875              	.L97:
 1876              		.loc 1 707 7 discriminator 8
 1877 0058 7B68     		ldr	r3, [r7, #4]
 1878 005a 93F84730 		ldrb	r3, [r3, #71]
 1879 005e DBB2     		uxtb	r3, r3
 1880              		.loc 1 707 46 discriminator 8
 1881 0060 012B     		cmp	r3, #1
 1882 0062 14BF     		ite	ne
 1883 0064 0123     		movne	r3, #1
 1884 0066 0023     		moveq	r3, #0
 1885 0068 DBB2     		uxtb	r3, r3
 1886              	.L94:
 1887              		.loc 1 707 6 discriminator 12
 1888 006a 002B     		cmp	r3, #0
 1889 006c 01D0     		beq	.L99
 708:Drivers/STM32F7xx_HAL_Driver/Src/stm32f7xx_hal_tim_ex.c ****   {
 709:Drivers/STM32F7xx_HAL_Driver/Src/stm32f7xx_hal_tim_ex.c ****     return HAL_ERROR;
 1890              		.loc 1 709 12
 1891 006e 0123     		movs	r3, #1
 1892 0070 A4E0     		b	.L100
 1893              	.L99:
 710:Drivers/STM32F7xx_HAL_Driver/Src/stm32f7xx_hal_tim_ex.c ****   }
 711:Drivers/STM32F7xx_HAL_Driver/Src/stm32f7xx_hal_tim_ex.c **** 
 712:Drivers/STM32F7xx_HAL_Driver/Src/stm32f7xx_hal_tim_ex.c ****   /* Set the TIM complementary channel state */
 713:Drivers/STM32F7xx_HAL_Driver/Src/stm32f7xx_hal_tim_ex.c ****   TIM_CHANNEL_N_STATE_SET(htim, Channel, HAL_TIM_CHANNEL_STATE_BUSY);
 1894              		.loc 1 713 3
 1895 0072 3B68     		ldr	r3, [r7]
 1896 0074 002B     		cmp	r3, #0
 1897 0076 04D1     		bne	.L101
 1898              		.loc 1 713 3 is_stmt 0 discriminator 1
 1899 0078 7B68     		ldr	r3, [r7, #4]
 1900 007a 0222     		movs	r2, #2
 1901 007c 83F84420 		strb	r2, [r3, #68]
 1902 0080 13E0     		b	.L102
 1903              	.L101:
 1904              		.loc 1 713 3 discriminator 2
 1905 0082 3B68     		ldr	r3, [r7]
 1906 0084 042B     		cmp	r3, #4
 1907 0086 04D1     		bne	.L103
 1908              		.loc 1 713 3 discriminator 3
 1909 0088 7B68     		ldr	r3, [r7, #4]
 1910 008a 0222     		movs	r2, #2
 1911 008c 83F84520 		strb	r2, [r3, #69]
 1912 0090 0BE0     		b	.L102
 1913              	.L103:
 1914              		.loc 1 713 3 discriminator 4
 1915 0092 3B68     		ldr	r3, [r7]
 1916 0094 082B     		cmp	r3, #8
 1917 0096 04D1     		bne	.L105
 1918              		.loc 1 713 3 discriminator 6
 1919 0098 7B68     		ldr	r3, [r7, #4]
 1920 009a 0222     		movs	r2, #2
 1921 009c 83F84620 		strb	r2, [r3, #70]
 1922 00a0 03E0     		b	.L102
 1923              	.L105:
 1924              		.loc 1 713 3 discriminator 7
ARM GAS  /tmp/ccOFTjtU.s 			page 47


 1925 00a2 7B68     		ldr	r3, [r7, #4]
 1926 00a4 0222     		movs	r2, #2
 1927 00a6 83F84720 		strb	r2, [r3, #71]
 1928              	.L102:
 714:Drivers/STM32F7xx_HAL_Driver/Src/stm32f7xx_hal_tim_ex.c **** 
 715:Drivers/STM32F7xx_HAL_Driver/Src/stm32f7xx_hal_tim_ex.c ****   switch (Channel)
 1929              		.loc 1 715 3 is_stmt 1
 1930 00aa 3B68     		ldr	r3, [r7]
 1931 00ac 082B     		cmp	r3, #8
 1932 00ae 1BD0     		beq	.L107
 1933 00b0 3B68     		ldr	r3, [r7]
 1934 00b2 082B     		cmp	r3, #8
 1935 00b4 21D8     		bhi	.L116
 1936 00b6 3B68     		ldr	r3, [r7]
 1937 00b8 002B     		cmp	r3, #0
 1938 00ba 03D0     		beq	.L109
 1939 00bc 3B68     		ldr	r3, [r7]
 1940 00be 042B     		cmp	r3, #4
 1941 00c0 09D0     		beq	.L110
 716:Drivers/STM32F7xx_HAL_Driver/Src/stm32f7xx_hal_tim_ex.c ****   {
 717:Drivers/STM32F7xx_HAL_Driver/Src/stm32f7xx_hal_tim_ex.c ****     case TIM_CHANNEL_1:
 718:Drivers/STM32F7xx_HAL_Driver/Src/stm32f7xx_hal_tim_ex.c ****     {
 719:Drivers/STM32F7xx_HAL_Driver/Src/stm32f7xx_hal_tim_ex.c ****       /* Enable the TIM Output Compare interrupt */
 720:Drivers/STM32F7xx_HAL_Driver/Src/stm32f7xx_hal_tim_ex.c ****       __HAL_TIM_ENABLE_IT(htim, TIM_IT_CC1);
 721:Drivers/STM32F7xx_HAL_Driver/Src/stm32f7xx_hal_tim_ex.c ****       break;
 722:Drivers/STM32F7xx_HAL_Driver/Src/stm32f7xx_hal_tim_ex.c ****     }
 723:Drivers/STM32F7xx_HAL_Driver/Src/stm32f7xx_hal_tim_ex.c **** 
 724:Drivers/STM32F7xx_HAL_Driver/Src/stm32f7xx_hal_tim_ex.c ****     case TIM_CHANNEL_2:
 725:Drivers/STM32F7xx_HAL_Driver/Src/stm32f7xx_hal_tim_ex.c ****     {
 726:Drivers/STM32F7xx_HAL_Driver/Src/stm32f7xx_hal_tim_ex.c ****       /* Enable the TIM Output Compare interrupt */
 727:Drivers/STM32F7xx_HAL_Driver/Src/stm32f7xx_hal_tim_ex.c ****       __HAL_TIM_ENABLE_IT(htim, TIM_IT_CC2);
 728:Drivers/STM32F7xx_HAL_Driver/Src/stm32f7xx_hal_tim_ex.c ****       break;
 729:Drivers/STM32F7xx_HAL_Driver/Src/stm32f7xx_hal_tim_ex.c ****     }
 730:Drivers/STM32F7xx_HAL_Driver/Src/stm32f7xx_hal_tim_ex.c **** 
 731:Drivers/STM32F7xx_HAL_Driver/Src/stm32f7xx_hal_tim_ex.c ****     case TIM_CHANNEL_3:
 732:Drivers/STM32F7xx_HAL_Driver/Src/stm32f7xx_hal_tim_ex.c ****     {
 733:Drivers/STM32F7xx_HAL_Driver/Src/stm32f7xx_hal_tim_ex.c ****       /* Enable the TIM Output Compare interrupt */
 734:Drivers/STM32F7xx_HAL_Driver/Src/stm32f7xx_hal_tim_ex.c ****       __HAL_TIM_ENABLE_IT(htim, TIM_IT_CC3);
 735:Drivers/STM32F7xx_HAL_Driver/Src/stm32f7xx_hal_tim_ex.c ****       break;
 736:Drivers/STM32F7xx_HAL_Driver/Src/stm32f7xx_hal_tim_ex.c ****     }
 737:Drivers/STM32F7xx_HAL_Driver/Src/stm32f7xx_hal_tim_ex.c **** 
 738:Drivers/STM32F7xx_HAL_Driver/Src/stm32f7xx_hal_tim_ex.c **** 
 739:Drivers/STM32F7xx_HAL_Driver/Src/stm32f7xx_hal_tim_ex.c ****     default:
 740:Drivers/STM32F7xx_HAL_Driver/Src/stm32f7xx_hal_tim_ex.c ****       break;
 1942              		.loc 1 740 7
 1943 00c2 1AE0     		b	.L116
 1944              	.L109:
 720:Drivers/STM32F7xx_HAL_Driver/Src/stm32f7xx_hal_tim_ex.c ****       break;
 1945              		.loc 1 720 7
 1946 00c4 7B68     		ldr	r3, [r7, #4]
 1947 00c6 1B68     		ldr	r3, [r3]
 1948 00c8 DA68     		ldr	r2, [r3, #12]
 1949 00ca 7B68     		ldr	r3, [r7, #4]
 1950 00cc 1B68     		ldr	r3, [r3]
 1951 00ce 42F00202 		orr	r2, r2, #2
 1952 00d2 DA60     		str	r2, [r3, #12]
 721:Drivers/STM32F7xx_HAL_Driver/Src/stm32f7xx_hal_tim_ex.c ****     }
ARM GAS  /tmp/ccOFTjtU.s 			page 48


 1953              		.loc 1 721 7
 1954 00d4 12E0     		b	.L111
 1955              	.L110:
 727:Drivers/STM32F7xx_HAL_Driver/Src/stm32f7xx_hal_tim_ex.c ****       break;
 1956              		.loc 1 727 7
 1957 00d6 7B68     		ldr	r3, [r7, #4]
 1958 00d8 1B68     		ldr	r3, [r3]
 1959 00da DA68     		ldr	r2, [r3, #12]
 1960 00dc 7B68     		ldr	r3, [r7, #4]
 1961 00de 1B68     		ldr	r3, [r3]
 1962 00e0 42F00402 		orr	r2, r2, #4
 1963 00e4 DA60     		str	r2, [r3, #12]
 728:Drivers/STM32F7xx_HAL_Driver/Src/stm32f7xx_hal_tim_ex.c ****     }
 1964              		.loc 1 728 7
 1965 00e6 09E0     		b	.L111
 1966              	.L107:
 734:Drivers/STM32F7xx_HAL_Driver/Src/stm32f7xx_hal_tim_ex.c ****       break;
 1967              		.loc 1 734 7
 1968 00e8 7B68     		ldr	r3, [r7, #4]
 1969 00ea 1B68     		ldr	r3, [r3]
 1970 00ec DA68     		ldr	r2, [r3, #12]
 1971 00ee 7B68     		ldr	r3, [r7, #4]
 1972 00f0 1B68     		ldr	r3, [r3]
 1973 00f2 42F00802 		orr	r2, r2, #8
 1974 00f6 DA60     		str	r2, [r3, #12]
 735:Drivers/STM32F7xx_HAL_Driver/Src/stm32f7xx_hal_tim_ex.c ****     }
 1975              		.loc 1 735 7
 1976 00f8 00E0     		b	.L111
 1977              	.L116:
 1978              		.loc 1 740 7
 1979 00fa 00BF     		nop
 1980              	.L111:
 741:Drivers/STM32F7xx_HAL_Driver/Src/stm32f7xx_hal_tim_ex.c ****   }
 742:Drivers/STM32F7xx_HAL_Driver/Src/stm32f7xx_hal_tim_ex.c **** 
 743:Drivers/STM32F7xx_HAL_Driver/Src/stm32f7xx_hal_tim_ex.c ****   /* Enable the TIM Break interrupt */
 744:Drivers/STM32F7xx_HAL_Driver/Src/stm32f7xx_hal_tim_ex.c ****   __HAL_TIM_ENABLE_IT(htim, TIM_IT_BREAK);
 1981              		.loc 1 744 3
 1982 00fc 7B68     		ldr	r3, [r7, #4]
 1983 00fe 1B68     		ldr	r3, [r3]
 1984 0100 DA68     		ldr	r2, [r3, #12]
 1985 0102 7B68     		ldr	r3, [r7, #4]
 1986 0104 1B68     		ldr	r3, [r3]
 1987 0106 42F08002 		orr	r2, r2, #128
 1988 010a DA60     		str	r2, [r3, #12]
 745:Drivers/STM32F7xx_HAL_Driver/Src/stm32f7xx_hal_tim_ex.c **** 
 746:Drivers/STM32F7xx_HAL_Driver/Src/stm32f7xx_hal_tim_ex.c ****   /* Enable the Capture compare channel N */
 747:Drivers/STM32F7xx_HAL_Driver/Src/stm32f7xx_hal_tim_ex.c ****   TIM_CCxNChannelCmd(htim->Instance, Channel, TIM_CCxN_ENABLE);
 1989              		.loc 1 747 3
 1990 010c 7B68     		ldr	r3, [r7, #4]
 1991 010e 1B68     		ldr	r3, [r3]
 1992 0110 0422     		movs	r2, #4
 1993 0112 3968     		ldr	r1, [r7]
 1994 0114 1846     		mov	r0, r3
 1995 0116 FFF7FEFF 		bl	TIM_CCxNChannelCmd
 748:Drivers/STM32F7xx_HAL_Driver/Src/stm32f7xx_hal_tim_ex.c **** 
 749:Drivers/STM32F7xx_HAL_Driver/Src/stm32f7xx_hal_tim_ex.c ****   /* Enable the Main Output */
 750:Drivers/STM32F7xx_HAL_Driver/Src/stm32f7xx_hal_tim_ex.c ****   __HAL_TIM_MOE_ENABLE(htim);
ARM GAS  /tmp/ccOFTjtU.s 			page 49


 1996              		.loc 1 750 3
 1997 011a 7B68     		ldr	r3, [r7, #4]
 1998 011c 1B68     		ldr	r3, [r3]
 1999 011e 5A6C     		ldr	r2, [r3, #68]
 2000 0120 7B68     		ldr	r3, [r7, #4]
 2001 0122 1B68     		ldr	r3, [r3]
 2002 0124 42F40042 		orr	r2, r2, #32768
 2003 0128 5A64     		str	r2, [r3, #68]
 751:Drivers/STM32F7xx_HAL_Driver/Src/stm32f7xx_hal_tim_ex.c **** 
 752:Drivers/STM32F7xx_HAL_Driver/Src/stm32f7xx_hal_tim_ex.c ****   /* Enable the Peripheral, except in trigger mode where enable is automatically done with trigger 
 753:Drivers/STM32F7xx_HAL_Driver/Src/stm32f7xx_hal_tim_ex.c ****   if (IS_TIM_SLAVE_INSTANCE(htim->Instance))
 2004              		.loc 1 753 7
 2005 012a 7B68     		ldr	r3, [r7, #4]
 2006 012c 1B68     		ldr	r3, [r3]
 2007              		.loc 1 753 6
 2008 012e 254A     		ldr	r2, .L118
 2009 0130 9342     		cmp	r3, r2
 2010 0132 22D0     		beq	.L112
 2011              		.loc 1 753 7 discriminator 1
 2012 0134 7B68     		ldr	r3, [r7, #4]
 2013 0136 1B68     		ldr	r3, [r3]
 2014 0138 B3F1804F 		cmp	r3, #1073741824
 2015 013c 1DD0     		beq	.L112
 2016              		.loc 1 753 7 is_stmt 0 discriminator 2
 2017 013e 7B68     		ldr	r3, [r7, #4]
 2018 0140 1B68     		ldr	r3, [r3]
 2019 0142 214A     		ldr	r2, .L118+4
 2020 0144 9342     		cmp	r3, r2
 2021 0146 18D0     		beq	.L112
 2022              		.loc 1 753 7 discriminator 3
 2023 0148 7B68     		ldr	r3, [r7, #4]
 2024 014a 1B68     		ldr	r3, [r3]
 2025 014c 1F4A     		ldr	r2, .L118+8
 2026 014e 9342     		cmp	r3, r2
 2027 0150 13D0     		beq	.L112
 2028              		.loc 1 753 7 discriminator 4
 2029 0152 7B68     		ldr	r3, [r7, #4]
 2030 0154 1B68     		ldr	r3, [r3]
 2031 0156 1E4A     		ldr	r2, .L118+12
 2032 0158 9342     		cmp	r3, r2
 2033 015a 0ED0     		beq	.L112
 2034              		.loc 1 753 7 discriminator 5
 2035 015c 7B68     		ldr	r3, [r7, #4]
 2036 015e 1B68     		ldr	r3, [r3]
 2037 0160 1C4A     		ldr	r2, .L118+16
 2038 0162 9342     		cmp	r3, r2
 2039 0164 09D0     		beq	.L112
 2040              		.loc 1 753 7 discriminator 6
 2041 0166 7B68     		ldr	r3, [r7, #4]
 2042 0168 1B68     		ldr	r3, [r3]
 2043 016a 1B4A     		ldr	r2, .L118+20
 2044 016c 9342     		cmp	r3, r2
 2045 016e 04D0     		beq	.L112
 2046              		.loc 1 753 7 discriminator 7
 2047 0170 7B68     		ldr	r3, [r7, #4]
 2048 0172 1B68     		ldr	r3, [r3]
 2049 0174 194A     		ldr	r2, .L118+24
ARM GAS  /tmp/ccOFTjtU.s 			page 50


 2050 0176 9342     		cmp	r3, r2
 2051 0178 15D1     		bne	.L113
 2052              	.L112:
 754:Drivers/STM32F7xx_HAL_Driver/Src/stm32f7xx_hal_tim_ex.c ****   {
 755:Drivers/STM32F7xx_HAL_Driver/Src/stm32f7xx_hal_tim_ex.c ****     tmpsmcr = htim->Instance->SMCR & TIM_SMCR_SMS;
 2053              		.loc 1 755 19 is_stmt 1
 2054 017a 7B68     		ldr	r3, [r7, #4]
 2055 017c 1B68     		ldr	r3, [r3]
 2056              		.loc 1 755 29
 2057 017e 9A68     		ldr	r2, [r3, #8]
 2058              		.loc 1 755 13
 2059 0180 174B     		ldr	r3, .L118+28
 2060 0182 1340     		ands	r3, r3, r2
 2061 0184 FB60     		str	r3, [r7, #12]
 756:Drivers/STM32F7xx_HAL_Driver/Src/stm32f7xx_hal_tim_ex.c ****     if (!IS_TIM_SLAVEMODE_TRIGGER_ENABLED(tmpsmcr))
 2062              		.loc 1 756 8
 2063 0186 FB68     		ldr	r3, [r7, #12]
 2064 0188 062B     		cmp	r3, #6
 2065 018a 15D0     		beq	.L117
 2066              		.loc 1 756 9 discriminator 1
 2067 018c FB68     		ldr	r3, [r7, #12]
 2068 018e B3F5803F 		cmp	r3, #65536
 2069 0192 11D0     		beq	.L117
 757:Drivers/STM32F7xx_HAL_Driver/Src/stm32f7xx_hal_tim_ex.c ****     {
 758:Drivers/STM32F7xx_HAL_Driver/Src/stm32f7xx_hal_tim_ex.c ****       __HAL_TIM_ENABLE(htim);
 2070              		.loc 1 758 7
 2071 0194 7B68     		ldr	r3, [r7, #4]
 2072 0196 1B68     		ldr	r3, [r3]
 2073 0198 1A68     		ldr	r2, [r3]
 2074 019a 7B68     		ldr	r3, [r7, #4]
 2075 019c 1B68     		ldr	r3, [r3]
 2076 019e 42F00102 		orr	r2, r2, #1
 2077 01a2 1A60     		str	r2, [r3]
 756:Drivers/STM32F7xx_HAL_Driver/Src/stm32f7xx_hal_tim_ex.c ****     if (!IS_TIM_SLAVEMODE_TRIGGER_ENABLED(tmpsmcr))
 2078              		.loc 1 756 8
 2079 01a4 08E0     		b	.L117
 2080              	.L113:
 759:Drivers/STM32F7xx_HAL_Driver/Src/stm32f7xx_hal_tim_ex.c ****     }
 760:Drivers/STM32F7xx_HAL_Driver/Src/stm32f7xx_hal_tim_ex.c ****   }
 761:Drivers/STM32F7xx_HAL_Driver/Src/stm32f7xx_hal_tim_ex.c ****   else
 762:Drivers/STM32F7xx_HAL_Driver/Src/stm32f7xx_hal_tim_ex.c ****   {
 763:Drivers/STM32F7xx_HAL_Driver/Src/stm32f7xx_hal_tim_ex.c ****     __HAL_TIM_ENABLE(htim);
 2081              		.loc 1 763 5
 2082 01a6 7B68     		ldr	r3, [r7, #4]
 2083 01a8 1B68     		ldr	r3, [r3]
 2084 01aa 1A68     		ldr	r2, [r3]
 2085 01ac 7B68     		ldr	r3, [r7, #4]
 2086 01ae 1B68     		ldr	r3, [r3]
 2087 01b0 42F00102 		orr	r2, r2, #1
 2088 01b4 1A60     		str	r2, [r3]
 2089 01b6 00E0     		b	.L115
 2090              	.L117:
 756:Drivers/STM32F7xx_HAL_Driver/Src/stm32f7xx_hal_tim_ex.c ****     {
 2091              		.loc 1 756 8
 2092 01b8 00BF     		nop
 2093              	.L115:
 764:Drivers/STM32F7xx_HAL_Driver/Src/stm32f7xx_hal_tim_ex.c ****   }
ARM GAS  /tmp/ccOFTjtU.s 			page 51


 765:Drivers/STM32F7xx_HAL_Driver/Src/stm32f7xx_hal_tim_ex.c **** 
 766:Drivers/STM32F7xx_HAL_Driver/Src/stm32f7xx_hal_tim_ex.c ****   /* Return function status */
 767:Drivers/STM32F7xx_HAL_Driver/Src/stm32f7xx_hal_tim_ex.c ****   return HAL_OK;
 2094              		.loc 1 767 10
 2095 01ba 0023     		movs	r3, #0
 2096              	.L100:
 768:Drivers/STM32F7xx_HAL_Driver/Src/stm32f7xx_hal_tim_ex.c **** }
 2097              		.loc 1 768 1
 2098 01bc 1846     		mov	r0, r3
 2099 01be 1037     		adds	r7, r7, #16
 2100              	.LCFI65:
 2101              		.cfi_def_cfa_offset 8
 2102 01c0 BD46     		mov	sp, r7
 2103              	.LCFI66:
 2104              		.cfi_def_cfa_register 13
 2105              		@ sp needed
 2106 01c2 80BD     		pop	{r7, pc}
 2107              	.L119:
 2108              		.align	2
 2109              	.L118:
 2110 01c4 00000140 		.word	1073807360
 2111 01c8 00040040 		.word	1073742848
 2112 01cc 00080040 		.word	1073743872
 2113 01d0 000C0040 		.word	1073744896
 2114 01d4 00040140 		.word	1073808384
 2115 01d8 00400140 		.word	1073823744
 2116 01dc 00180040 		.word	1073747968
 2117 01e0 07000100 		.word	65543
 2118              		.cfi_endproc
 2119              	.LFE153:
 2121              		.section	.text.HAL_TIMEx_OCN_Stop_IT,"ax",%progbits
 2122              		.align	1
 2123              		.global	HAL_TIMEx_OCN_Stop_IT
 2124              		.syntax unified
 2125              		.thumb
 2126              		.thumb_func
 2127              		.fpu fpv5-d16
 2129              	HAL_TIMEx_OCN_Stop_IT:
 2130              	.LFB154:
 769:Drivers/STM32F7xx_HAL_Driver/Src/stm32f7xx_hal_tim_ex.c **** 
 770:Drivers/STM32F7xx_HAL_Driver/Src/stm32f7xx_hal_tim_ex.c **** /**
 771:Drivers/STM32F7xx_HAL_Driver/Src/stm32f7xx_hal_tim_ex.c ****   * @brief  Stops the TIM Output Compare signal generation in interrupt mode
 772:Drivers/STM32F7xx_HAL_Driver/Src/stm32f7xx_hal_tim_ex.c ****   *         on the complementary output.
 773:Drivers/STM32F7xx_HAL_Driver/Src/stm32f7xx_hal_tim_ex.c ****   * @param  htim TIM Output Compare handle
 774:Drivers/STM32F7xx_HAL_Driver/Src/stm32f7xx_hal_tim_ex.c ****   * @param  Channel TIM Channel to be disabled
 775:Drivers/STM32F7xx_HAL_Driver/Src/stm32f7xx_hal_tim_ex.c ****   *          This parameter can be one of the following values:
 776:Drivers/STM32F7xx_HAL_Driver/Src/stm32f7xx_hal_tim_ex.c ****   *            @arg TIM_CHANNEL_1: TIM Channel 1 selected
 777:Drivers/STM32F7xx_HAL_Driver/Src/stm32f7xx_hal_tim_ex.c ****   *            @arg TIM_CHANNEL_2: TIM Channel 2 selected
 778:Drivers/STM32F7xx_HAL_Driver/Src/stm32f7xx_hal_tim_ex.c ****   *            @arg TIM_CHANNEL_3: TIM Channel 3 selected
 779:Drivers/STM32F7xx_HAL_Driver/Src/stm32f7xx_hal_tim_ex.c ****   * @retval HAL status
 780:Drivers/STM32F7xx_HAL_Driver/Src/stm32f7xx_hal_tim_ex.c ****   */
 781:Drivers/STM32F7xx_HAL_Driver/Src/stm32f7xx_hal_tim_ex.c **** HAL_StatusTypeDef HAL_TIMEx_OCN_Stop_IT(TIM_HandleTypeDef *htim, uint32_t Channel)
 782:Drivers/STM32F7xx_HAL_Driver/Src/stm32f7xx_hal_tim_ex.c **** {
 2131              		.loc 1 782 1
 2132              		.cfi_startproc
 2133              		@ args = 0, pretend = 0, frame = 16
 2134              		@ frame_needed = 1, uses_anonymous_args = 0
ARM GAS  /tmp/ccOFTjtU.s 			page 52


 2135 0000 80B5     		push	{r7, lr}
 2136              	.LCFI67:
 2137              		.cfi_def_cfa_offset 8
 2138              		.cfi_offset 7, -8
 2139              		.cfi_offset 14, -4
 2140 0002 84B0     		sub	sp, sp, #16
 2141              	.LCFI68:
 2142              		.cfi_def_cfa_offset 24
 2143 0004 00AF     		add	r7, sp, #0
 2144              	.LCFI69:
 2145              		.cfi_def_cfa_register 7
 2146 0006 7860     		str	r0, [r7, #4]
 2147 0008 3960     		str	r1, [r7]
 783:Drivers/STM32F7xx_HAL_Driver/Src/stm32f7xx_hal_tim_ex.c ****   uint32_t tmpccer;
 784:Drivers/STM32F7xx_HAL_Driver/Src/stm32f7xx_hal_tim_ex.c ****   /* Check the parameters */
 785:Drivers/STM32F7xx_HAL_Driver/Src/stm32f7xx_hal_tim_ex.c ****   assert_param(IS_TIM_CCXN_INSTANCE(htim->Instance, Channel));
 786:Drivers/STM32F7xx_HAL_Driver/Src/stm32f7xx_hal_tim_ex.c **** 
 787:Drivers/STM32F7xx_HAL_Driver/Src/stm32f7xx_hal_tim_ex.c ****   switch (Channel)
 2148              		.loc 1 787 3
 2149 000a 3B68     		ldr	r3, [r7]
 2150 000c 082B     		cmp	r3, #8
 2151 000e 1BD0     		beq	.L121
 2152 0010 3B68     		ldr	r3, [r7]
 2153 0012 082B     		cmp	r3, #8
 2154 0014 21D8     		bhi	.L136
 2155 0016 3B68     		ldr	r3, [r7]
 2156 0018 002B     		cmp	r3, #0
 2157 001a 03D0     		beq	.L123
 2158 001c 3B68     		ldr	r3, [r7]
 2159 001e 042B     		cmp	r3, #4
 2160 0020 09D0     		beq	.L124
 788:Drivers/STM32F7xx_HAL_Driver/Src/stm32f7xx_hal_tim_ex.c ****   {
 789:Drivers/STM32F7xx_HAL_Driver/Src/stm32f7xx_hal_tim_ex.c ****     case TIM_CHANNEL_1:
 790:Drivers/STM32F7xx_HAL_Driver/Src/stm32f7xx_hal_tim_ex.c ****     {
 791:Drivers/STM32F7xx_HAL_Driver/Src/stm32f7xx_hal_tim_ex.c ****       /* Disable the TIM Output Compare interrupt */
 792:Drivers/STM32F7xx_HAL_Driver/Src/stm32f7xx_hal_tim_ex.c ****       __HAL_TIM_DISABLE_IT(htim, TIM_IT_CC1);
 793:Drivers/STM32F7xx_HAL_Driver/Src/stm32f7xx_hal_tim_ex.c ****       break;
 794:Drivers/STM32F7xx_HAL_Driver/Src/stm32f7xx_hal_tim_ex.c ****     }
 795:Drivers/STM32F7xx_HAL_Driver/Src/stm32f7xx_hal_tim_ex.c **** 
 796:Drivers/STM32F7xx_HAL_Driver/Src/stm32f7xx_hal_tim_ex.c ****     case TIM_CHANNEL_2:
 797:Drivers/STM32F7xx_HAL_Driver/Src/stm32f7xx_hal_tim_ex.c ****     {
 798:Drivers/STM32F7xx_HAL_Driver/Src/stm32f7xx_hal_tim_ex.c ****       /* Disable the TIM Output Compare interrupt */
 799:Drivers/STM32F7xx_HAL_Driver/Src/stm32f7xx_hal_tim_ex.c ****       __HAL_TIM_DISABLE_IT(htim, TIM_IT_CC2);
 800:Drivers/STM32F7xx_HAL_Driver/Src/stm32f7xx_hal_tim_ex.c ****       break;
 801:Drivers/STM32F7xx_HAL_Driver/Src/stm32f7xx_hal_tim_ex.c ****     }
 802:Drivers/STM32F7xx_HAL_Driver/Src/stm32f7xx_hal_tim_ex.c **** 
 803:Drivers/STM32F7xx_HAL_Driver/Src/stm32f7xx_hal_tim_ex.c ****     case TIM_CHANNEL_3:
 804:Drivers/STM32F7xx_HAL_Driver/Src/stm32f7xx_hal_tim_ex.c ****     {
 805:Drivers/STM32F7xx_HAL_Driver/Src/stm32f7xx_hal_tim_ex.c ****       /* Disable the TIM Output Compare interrupt */
 806:Drivers/STM32F7xx_HAL_Driver/Src/stm32f7xx_hal_tim_ex.c ****       __HAL_TIM_DISABLE_IT(htim, TIM_IT_CC3);
 807:Drivers/STM32F7xx_HAL_Driver/Src/stm32f7xx_hal_tim_ex.c ****       break;
 808:Drivers/STM32F7xx_HAL_Driver/Src/stm32f7xx_hal_tim_ex.c ****     }
 809:Drivers/STM32F7xx_HAL_Driver/Src/stm32f7xx_hal_tim_ex.c **** 
 810:Drivers/STM32F7xx_HAL_Driver/Src/stm32f7xx_hal_tim_ex.c ****     default:
 811:Drivers/STM32F7xx_HAL_Driver/Src/stm32f7xx_hal_tim_ex.c ****       break;
 2161              		.loc 1 811 7
 2162 0022 1AE0     		b	.L136
ARM GAS  /tmp/ccOFTjtU.s 			page 53


 2163              	.L123:
 792:Drivers/STM32F7xx_HAL_Driver/Src/stm32f7xx_hal_tim_ex.c ****       break;
 2164              		.loc 1 792 7
 2165 0024 7B68     		ldr	r3, [r7, #4]
 2166 0026 1B68     		ldr	r3, [r3]
 2167 0028 DA68     		ldr	r2, [r3, #12]
 2168 002a 7B68     		ldr	r3, [r7, #4]
 2169 002c 1B68     		ldr	r3, [r3]
 2170 002e 22F00202 		bic	r2, r2, #2
 2171 0032 DA60     		str	r2, [r3, #12]
 793:Drivers/STM32F7xx_HAL_Driver/Src/stm32f7xx_hal_tim_ex.c ****     }
 2172              		.loc 1 793 7
 2173 0034 12E0     		b	.L125
 2174              	.L124:
 799:Drivers/STM32F7xx_HAL_Driver/Src/stm32f7xx_hal_tim_ex.c ****       break;
 2175              		.loc 1 799 7
 2176 0036 7B68     		ldr	r3, [r7, #4]
 2177 0038 1B68     		ldr	r3, [r3]
 2178 003a DA68     		ldr	r2, [r3, #12]
 2179 003c 7B68     		ldr	r3, [r7, #4]
 2180 003e 1B68     		ldr	r3, [r3]
 2181 0040 22F00402 		bic	r2, r2, #4
 2182 0044 DA60     		str	r2, [r3, #12]
 800:Drivers/STM32F7xx_HAL_Driver/Src/stm32f7xx_hal_tim_ex.c ****     }
 2183              		.loc 1 800 7
 2184 0046 09E0     		b	.L125
 2185              	.L121:
 806:Drivers/STM32F7xx_HAL_Driver/Src/stm32f7xx_hal_tim_ex.c ****       break;
 2186              		.loc 1 806 7
 2187 0048 7B68     		ldr	r3, [r7, #4]
 2188 004a 1B68     		ldr	r3, [r3]
 2189 004c DA68     		ldr	r2, [r3, #12]
 2190 004e 7B68     		ldr	r3, [r7, #4]
 2191 0050 1B68     		ldr	r3, [r3]
 2192 0052 22F00802 		bic	r2, r2, #8
 2193 0056 DA60     		str	r2, [r3, #12]
 807:Drivers/STM32F7xx_HAL_Driver/Src/stm32f7xx_hal_tim_ex.c ****     }
 2194              		.loc 1 807 7
 2195 0058 00E0     		b	.L125
 2196              	.L136:
 2197              		.loc 1 811 7
 2198 005a 00BF     		nop
 2199              	.L125:
 812:Drivers/STM32F7xx_HAL_Driver/Src/stm32f7xx_hal_tim_ex.c ****   }
 813:Drivers/STM32F7xx_HAL_Driver/Src/stm32f7xx_hal_tim_ex.c **** 
 814:Drivers/STM32F7xx_HAL_Driver/Src/stm32f7xx_hal_tim_ex.c ****   /* Disable the Capture compare channel N */
 815:Drivers/STM32F7xx_HAL_Driver/Src/stm32f7xx_hal_tim_ex.c ****   TIM_CCxNChannelCmd(htim->Instance, Channel, TIM_CCxN_DISABLE);
 2200              		.loc 1 815 3
 2201 005c 7B68     		ldr	r3, [r7, #4]
 2202 005e 1B68     		ldr	r3, [r3]
 2203 0060 0022     		movs	r2, #0
 2204 0062 3968     		ldr	r1, [r7]
 2205 0064 1846     		mov	r0, r3
 2206 0066 FFF7FEFF 		bl	TIM_CCxNChannelCmd
 816:Drivers/STM32F7xx_HAL_Driver/Src/stm32f7xx_hal_tim_ex.c **** 
 817:Drivers/STM32F7xx_HAL_Driver/Src/stm32f7xx_hal_tim_ex.c ****   /* Disable the TIM Break interrupt (only if no more channel is active) */
 818:Drivers/STM32F7xx_HAL_Driver/Src/stm32f7xx_hal_tim_ex.c ****   tmpccer = htim->Instance->CCER;
ARM GAS  /tmp/ccOFTjtU.s 			page 54


 2207              		.loc 1 818 17
 2208 006a 7B68     		ldr	r3, [r7, #4]
 2209 006c 1B68     		ldr	r3, [r3]
 2210              		.loc 1 818 11
 2211 006e 1B6A     		ldr	r3, [r3, #32]
 2212 0070 FB60     		str	r3, [r7, #12]
 819:Drivers/STM32F7xx_HAL_Driver/Src/stm32f7xx_hal_tim_ex.c ****   if ((tmpccer & (TIM_CCER_CC1NE | TIM_CCER_CC2NE | TIM_CCER_CC3NE)) == (uint32_t)RESET)
 2213              		.loc 1 819 16
 2214 0072 FA68     		ldr	r2, [r7, #12]
 2215 0074 40F24443 		movw	r3, #1092
 2216 0078 1340     		ands	r3, r3, r2
 2217              		.loc 1 819 6
 2218 007a 002B     		cmp	r3, #0
 2219 007c 07D1     		bne	.L126
 820:Drivers/STM32F7xx_HAL_Driver/Src/stm32f7xx_hal_tim_ex.c ****   {
 821:Drivers/STM32F7xx_HAL_Driver/Src/stm32f7xx_hal_tim_ex.c ****     __HAL_TIM_DISABLE_IT(htim, TIM_IT_BREAK);
 2220              		.loc 1 821 5
 2221 007e 7B68     		ldr	r3, [r7, #4]
 2222 0080 1B68     		ldr	r3, [r3]
 2223 0082 DA68     		ldr	r2, [r3, #12]
 2224 0084 7B68     		ldr	r3, [r7, #4]
 2225 0086 1B68     		ldr	r3, [r3]
 2226 0088 22F08002 		bic	r2, r2, #128
 2227 008c DA60     		str	r2, [r3, #12]
 2228              	.L126:
 822:Drivers/STM32F7xx_HAL_Driver/Src/stm32f7xx_hal_tim_ex.c ****   }
 823:Drivers/STM32F7xx_HAL_Driver/Src/stm32f7xx_hal_tim_ex.c **** 
 824:Drivers/STM32F7xx_HAL_Driver/Src/stm32f7xx_hal_tim_ex.c ****   /* Disable the Main Output */
 825:Drivers/STM32F7xx_HAL_Driver/Src/stm32f7xx_hal_tim_ex.c ****   __HAL_TIM_MOE_DISABLE(htim);
 2229              		.loc 1 825 3
 2230 008e 7B68     		ldr	r3, [r7, #4]
 2231 0090 1B68     		ldr	r3, [r3]
 2232 0092 1A6A     		ldr	r2, [r3, #32]
 2233 0094 41F21113 		movw	r3, #4369
 2234 0098 1340     		ands	r3, r3, r2
 2235 009a 002B     		cmp	r3, #0
 2236 009c 0FD1     		bne	.L127
 2237              		.loc 1 825 3 is_stmt 0 discriminator 1
 2238 009e 7B68     		ldr	r3, [r7, #4]
 2239 00a0 1B68     		ldr	r3, [r3]
 2240 00a2 1A6A     		ldr	r2, [r3, #32]
 2241 00a4 40F24443 		movw	r3, #1092
 2242 00a8 1340     		ands	r3, r3, r2
 2243 00aa 002B     		cmp	r3, #0
 2244 00ac 07D1     		bne	.L127
 2245              		.loc 1 825 3 discriminator 2
 2246 00ae 7B68     		ldr	r3, [r7, #4]
 2247 00b0 1B68     		ldr	r3, [r3]
 2248 00b2 5A6C     		ldr	r2, [r3, #68]
 2249 00b4 7B68     		ldr	r3, [r7, #4]
 2250 00b6 1B68     		ldr	r3, [r3]
 2251 00b8 22F40042 		bic	r2, r2, #32768
 2252 00bc 5A64     		str	r2, [r3, #68]
 2253              	.L127:
 826:Drivers/STM32F7xx_HAL_Driver/Src/stm32f7xx_hal_tim_ex.c **** 
 827:Drivers/STM32F7xx_HAL_Driver/Src/stm32f7xx_hal_tim_ex.c ****   /* Disable the Peripheral */
 828:Drivers/STM32F7xx_HAL_Driver/Src/stm32f7xx_hal_tim_ex.c ****   __HAL_TIM_DISABLE(htim);
ARM GAS  /tmp/ccOFTjtU.s 			page 55


 2254              		.loc 1 828 3 is_stmt 1
 2255 00be 7B68     		ldr	r3, [r7, #4]
 2256 00c0 1B68     		ldr	r3, [r3]
 2257 00c2 1A6A     		ldr	r2, [r3, #32]
 2258 00c4 41F21113 		movw	r3, #4369
 2259 00c8 1340     		ands	r3, r3, r2
 2260 00ca 002B     		cmp	r3, #0
 2261 00cc 0FD1     		bne	.L128
 2262              		.loc 1 828 3 is_stmt 0 discriminator 1
 2263 00ce 7B68     		ldr	r3, [r7, #4]
 2264 00d0 1B68     		ldr	r3, [r3]
 2265 00d2 1A6A     		ldr	r2, [r3, #32]
 2266 00d4 40F24443 		movw	r3, #1092
 2267 00d8 1340     		ands	r3, r3, r2
 2268 00da 002B     		cmp	r3, #0
 2269 00dc 07D1     		bne	.L128
 2270              		.loc 1 828 3 discriminator 2
 2271 00de 7B68     		ldr	r3, [r7, #4]
 2272 00e0 1B68     		ldr	r3, [r3]
 2273 00e2 1A68     		ldr	r2, [r3]
 2274 00e4 7B68     		ldr	r3, [r7, #4]
 2275 00e6 1B68     		ldr	r3, [r3]
 2276 00e8 22F00102 		bic	r2, r2, #1
 2277 00ec 1A60     		str	r2, [r3]
 2278              	.L128:
 829:Drivers/STM32F7xx_HAL_Driver/Src/stm32f7xx_hal_tim_ex.c **** 
 830:Drivers/STM32F7xx_HAL_Driver/Src/stm32f7xx_hal_tim_ex.c ****   /* Set the TIM complementary channel state */
 831:Drivers/STM32F7xx_HAL_Driver/Src/stm32f7xx_hal_tim_ex.c ****   TIM_CHANNEL_N_STATE_SET(htim, Channel, HAL_TIM_CHANNEL_STATE_READY);
 2279              		.loc 1 831 3 is_stmt 1
 2280 00ee 3B68     		ldr	r3, [r7]
 2281 00f0 002B     		cmp	r3, #0
 2282 00f2 04D1     		bne	.L129
 2283              		.loc 1 831 3 is_stmt 0 discriminator 1
 2284 00f4 7B68     		ldr	r3, [r7, #4]
 2285 00f6 0122     		movs	r2, #1
 2286 00f8 83F84420 		strb	r2, [r3, #68]
 2287 00fc 13E0     		b	.L130
 2288              	.L129:
 2289              		.loc 1 831 3 discriminator 2
 2290 00fe 3B68     		ldr	r3, [r7]
 2291 0100 042B     		cmp	r3, #4
 2292 0102 04D1     		bne	.L131
 2293              		.loc 1 831 3 discriminator 3
 2294 0104 7B68     		ldr	r3, [r7, #4]
 2295 0106 0122     		movs	r2, #1
 2296 0108 83F84520 		strb	r2, [r3, #69]
 2297 010c 0BE0     		b	.L130
 2298              	.L131:
 2299              		.loc 1 831 3 discriminator 4
 2300 010e 3B68     		ldr	r3, [r7]
 2301 0110 082B     		cmp	r3, #8
 2302 0112 04D1     		bne	.L133
 2303              		.loc 1 831 3 discriminator 6
 2304 0114 7B68     		ldr	r3, [r7, #4]
 2305 0116 0122     		movs	r2, #1
 2306 0118 83F84620 		strb	r2, [r3, #70]
 2307 011c 03E0     		b	.L130
ARM GAS  /tmp/ccOFTjtU.s 			page 56


 2308              	.L133:
 2309              		.loc 1 831 3 discriminator 7
 2310 011e 7B68     		ldr	r3, [r7, #4]
 2311 0120 0122     		movs	r2, #1
 2312 0122 83F84720 		strb	r2, [r3, #71]
 2313              	.L130:
 832:Drivers/STM32F7xx_HAL_Driver/Src/stm32f7xx_hal_tim_ex.c **** 
 833:Drivers/STM32F7xx_HAL_Driver/Src/stm32f7xx_hal_tim_ex.c ****   /* Return function status */
 834:Drivers/STM32F7xx_HAL_Driver/Src/stm32f7xx_hal_tim_ex.c ****   return HAL_OK;
 2314              		.loc 1 834 10 is_stmt 1
 2315 0126 0023     		movs	r3, #0
 835:Drivers/STM32F7xx_HAL_Driver/Src/stm32f7xx_hal_tim_ex.c **** }
 2316              		.loc 1 835 1
 2317 0128 1846     		mov	r0, r3
 2318 012a 1037     		adds	r7, r7, #16
 2319              	.LCFI70:
 2320              		.cfi_def_cfa_offset 8
 2321 012c BD46     		mov	sp, r7
 2322              	.LCFI71:
 2323              		.cfi_def_cfa_register 13
 2324              		@ sp needed
 2325 012e 80BD     		pop	{r7, pc}
 2326              		.cfi_endproc
 2327              	.LFE154:
 2329              		.section	.text.HAL_TIMEx_OCN_Start_DMA,"ax",%progbits
 2330              		.align	1
 2331              		.global	HAL_TIMEx_OCN_Start_DMA
 2332              		.syntax unified
 2333              		.thumb
 2334              		.thumb_func
 2335              		.fpu fpv5-d16
 2337              	HAL_TIMEx_OCN_Start_DMA:
 2338              	.LFB155:
 836:Drivers/STM32F7xx_HAL_Driver/Src/stm32f7xx_hal_tim_ex.c **** 
 837:Drivers/STM32F7xx_HAL_Driver/Src/stm32f7xx_hal_tim_ex.c **** /**
 838:Drivers/STM32F7xx_HAL_Driver/Src/stm32f7xx_hal_tim_ex.c ****   * @brief  Starts the TIM Output Compare signal generation in DMA mode
 839:Drivers/STM32F7xx_HAL_Driver/Src/stm32f7xx_hal_tim_ex.c ****   *         on the complementary output.
 840:Drivers/STM32F7xx_HAL_Driver/Src/stm32f7xx_hal_tim_ex.c ****   * @param  htim TIM Output Compare handle
 841:Drivers/STM32F7xx_HAL_Driver/Src/stm32f7xx_hal_tim_ex.c ****   * @param  Channel TIM Channel to be enabled
 842:Drivers/STM32F7xx_HAL_Driver/Src/stm32f7xx_hal_tim_ex.c ****   *          This parameter can be one of the following values:
 843:Drivers/STM32F7xx_HAL_Driver/Src/stm32f7xx_hal_tim_ex.c ****   *            @arg TIM_CHANNEL_1: TIM Channel 1 selected
 844:Drivers/STM32F7xx_HAL_Driver/Src/stm32f7xx_hal_tim_ex.c ****   *            @arg TIM_CHANNEL_2: TIM Channel 2 selected
 845:Drivers/STM32F7xx_HAL_Driver/Src/stm32f7xx_hal_tim_ex.c ****   *            @arg TIM_CHANNEL_3: TIM Channel 3 selected
 846:Drivers/STM32F7xx_HAL_Driver/Src/stm32f7xx_hal_tim_ex.c ****   * @param  pData The source Buffer address.
 847:Drivers/STM32F7xx_HAL_Driver/Src/stm32f7xx_hal_tim_ex.c ****   * @param  Length The length of data to be transferred from memory to TIM peripheral
 848:Drivers/STM32F7xx_HAL_Driver/Src/stm32f7xx_hal_tim_ex.c ****   * @retval HAL status
 849:Drivers/STM32F7xx_HAL_Driver/Src/stm32f7xx_hal_tim_ex.c ****   */
 850:Drivers/STM32F7xx_HAL_Driver/Src/stm32f7xx_hal_tim_ex.c **** HAL_StatusTypeDef HAL_TIMEx_OCN_Start_DMA(TIM_HandleTypeDef *htim, uint32_t Channel, uint32_t *pDat
 851:Drivers/STM32F7xx_HAL_Driver/Src/stm32f7xx_hal_tim_ex.c **** {
 2339              		.loc 1 851 1
 2340              		.cfi_startproc
 2341              		@ args = 0, pretend = 0, frame = 24
 2342              		@ frame_needed = 1, uses_anonymous_args = 0
 2343 0000 80B5     		push	{r7, lr}
 2344              	.LCFI72:
 2345              		.cfi_def_cfa_offset 8
 2346              		.cfi_offset 7, -8
ARM GAS  /tmp/ccOFTjtU.s 			page 57


 2347              		.cfi_offset 14, -4
 2348 0002 86B0     		sub	sp, sp, #24
 2349              	.LCFI73:
 2350              		.cfi_def_cfa_offset 32
 2351 0004 00AF     		add	r7, sp, #0
 2352              	.LCFI74:
 2353              		.cfi_def_cfa_register 7
 2354 0006 F860     		str	r0, [r7, #12]
 2355 0008 B960     		str	r1, [r7, #8]
 2356 000a 7A60     		str	r2, [r7, #4]
 2357 000c 7B80     		strh	r3, [r7, #2]	@ movhi
 852:Drivers/STM32F7xx_HAL_Driver/Src/stm32f7xx_hal_tim_ex.c ****   uint32_t tmpsmcr;
 853:Drivers/STM32F7xx_HAL_Driver/Src/stm32f7xx_hal_tim_ex.c **** 
 854:Drivers/STM32F7xx_HAL_Driver/Src/stm32f7xx_hal_tim_ex.c ****   /* Check the parameters */
 855:Drivers/STM32F7xx_HAL_Driver/Src/stm32f7xx_hal_tim_ex.c ****   assert_param(IS_TIM_CCXN_INSTANCE(htim->Instance, Channel));
 856:Drivers/STM32F7xx_HAL_Driver/Src/stm32f7xx_hal_tim_ex.c **** 
 857:Drivers/STM32F7xx_HAL_Driver/Src/stm32f7xx_hal_tim_ex.c ****   /* Set the TIM complementary channel state */
 858:Drivers/STM32F7xx_HAL_Driver/Src/stm32f7xx_hal_tim_ex.c ****   if (TIM_CHANNEL_N_STATE_GET(htim, Channel) == HAL_TIM_CHANNEL_STATE_BUSY)
 2358              		.loc 1 858 46
 2359 000e BB68     		ldr	r3, [r7, #8]
 2360 0010 002B     		cmp	r3, #0
 2361 0012 09D1     		bne	.L138
 2362              		.loc 1 858 7 discriminator 1
 2363 0014 FB68     		ldr	r3, [r7, #12]
 2364 0016 93F84430 		ldrb	r3, [r3, #68]
 2365 001a DBB2     		uxtb	r3, r3
 2366              		.loc 1 858 46 discriminator 1
 2367 001c 022B     		cmp	r3, #2
 2368 001e 0CBF     		ite	eq
 2369 0020 0123     		moveq	r3, #1
 2370 0022 0023     		movne	r3, #0
 2371 0024 DBB2     		uxtb	r3, r3
 2372 0026 22E0     		b	.L139
 2373              	.L138:
 2374              		.loc 1 858 46 is_stmt 0 discriminator 2
 2375 0028 BB68     		ldr	r3, [r7, #8]
 2376 002a 042B     		cmp	r3, #4
 2377 002c 09D1     		bne	.L140
 2378              		.loc 1 858 7 is_stmt 1 discriminator 4
 2379 002e FB68     		ldr	r3, [r7, #12]
 2380 0030 93F84530 		ldrb	r3, [r3, #69]
 2381 0034 DBB2     		uxtb	r3, r3
 2382              		.loc 1 858 46 discriminator 4
 2383 0036 022B     		cmp	r3, #2
 2384 0038 0CBF     		ite	eq
 2385 003a 0123     		moveq	r3, #1
 2386 003c 0023     		movne	r3, #0
 2387 003e DBB2     		uxtb	r3, r3
 2388 0040 15E0     		b	.L139
 2389              	.L140:
 2390              		.loc 1 858 46 is_stmt 0 discriminator 5
 2391 0042 BB68     		ldr	r3, [r7, #8]
 2392 0044 082B     		cmp	r3, #8
 2393 0046 09D1     		bne	.L142
 2394              		.loc 1 858 7 is_stmt 1 discriminator 7
 2395 0048 FB68     		ldr	r3, [r7, #12]
 2396 004a 93F84630 		ldrb	r3, [r3, #70]
ARM GAS  /tmp/ccOFTjtU.s 			page 58


 2397 004e DBB2     		uxtb	r3, r3
 2398              		.loc 1 858 46 discriminator 7
 2399 0050 022B     		cmp	r3, #2
 2400 0052 0CBF     		ite	eq
 2401 0054 0123     		moveq	r3, #1
 2402 0056 0023     		movne	r3, #0
 2403 0058 DBB2     		uxtb	r3, r3
 2404 005a 08E0     		b	.L139
 2405              	.L142:
 2406              		.loc 1 858 7 discriminator 8
 2407 005c FB68     		ldr	r3, [r7, #12]
 2408 005e 93F84730 		ldrb	r3, [r3, #71]
 2409 0062 DBB2     		uxtb	r3, r3
 2410              		.loc 1 858 46 discriminator 8
 2411 0064 022B     		cmp	r3, #2
 2412 0066 0CBF     		ite	eq
 2413 0068 0123     		moveq	r3, #1
 2414 006a 0023     		movne	r3, #0
 2415 006c DBB2     		uxtb	r3, r3
 2416              	.L139:
 2417              		.loc 1 858 6 discriminator 12
 2418 006e 002B     		cmp	r3, #0
 2419 0070 01D0     		beq	.L144
 859:Drivers/STM32F7xx_HAL_Driver/Src/stm32f7xx_hal_tim_ex.c ****   {
 860:Drivers/STM32F7xx_HAL_Driver/Src/stm32f7xx_hal_tim_ex.c ****     return HAL_BUSY;
 2420              		.loc 1 860 12
 2421 0072 0223     		movs	r3, #2
 2422 0074 2AE1     		b	.L145
 2423              	.L144:
 861:Drivers/STM32F7xx_HAL_Driver/Src/stm32f7xx_hal_tim_ex.c ****   }
 862:Drivers/STM32F7xx_HAL_Driver/Src/stm32f7xx_hal_tim_ex.c ****   else if (TIM_CHANNEL_N_STATE_GET(htim, Channel) == HAL_TIM_CHANNEL_STATE_READY)
 2424              		.loc 1 862 51
 2425 0076 BB68     		ldr	r3, [r7, #8]
 2426 0078 002B     		cmp	r3, #0
 2427 007a 09D1     		bne	.L146
 2428              		.loc 1 862 12 discriminator 1
 2429 007c FB68     		ldr	r3, [r7, #12]
 2430 007e 93F84430 		ldrb	r3, [r3, #68]
 2431 0082 DBB2     		uxtb	r3, r3
 2432              		.loc 1 862 51 discriminator 1
 2433 0084 012B     		cmp	r3, #1
 2434 0086 0CBF     		ite	eq
 2435 0088 0123     		moveq	r3, #1
 2436 008a 0023     		movne	r3, #0
 2437 008c DBB2     		uxtb	r3, r3
 2438 008e 22E0     		b	.L147
 2439              	.L146:
 2440              		.loc 1 862 51 is_stmt 0 discriminator 2
 2441 0090 BB68     		ldr	r3, [r7, #8]
 2442 0092 042B     		cmp	r3, #4
 2443 0094 09D1     		bne	.L148
 2444              		.loc 1 862 12 is_stmt 1 discriminator 4
 2445 0096 FB68     		ldr	r3, [r7, #12]
 2446 0098 93F84530 		ldrb	r3, [r3, #69]
 2447 009c DBB2     		uxtb	r3, r3
 2448              		.loc 1 862 51 discriminator 4
 2449 009e 012B     		cmp	r3, #1
ARM GAS  /tmp/ccOFTjtU.s 			page 59


 2450 00a0 0CBF     		ite	eq
 2451 00a2 0123     		moveq	r3, #1
 2452 00a4 0023     		movne	r3, #0
 2453 00a6 DBB2     		uxtb	r3, r3
 2454 00a8 15E0     		b	.L147
 2455              	.L148:
 2456              		.loc 1 862 51 is_stmt 0 discriminator 5
 2457 00aa BB68     		ldr	r3, [r7, #8]
 2458 00ac 082B     		cmp	r3, #8
 2459 00ae 09D1     		bne	.L150
 2460              		.loc 1 862 12 is_stmt 1 discriminator 7
 2461 00b0 FB68     		ldr	r3, [r7, #12]
 2462 00b2 93F84630 		ldrb	r3, [r3, #70]
 2463 00b6 DBB2     		uxtb	r3, r3
 2464              		.loc 1 862 51 discriminator 7
 2465 00b8 012B     		cmp	r3, #1
 2466 00ba 0CBF     		ite	eq
 2467 00bc 0123     		moveq	r3, #1
 2468 00be 0023     		movne	r3, #0
 2469 00c0 DBB2     		uxtb	r3, r3
 2470 00c2 08E0     		b	.L147
 2471              	.L150:
 2472              		.loc 1 862 12 discriminator 8
 2473 00c4 FB68     		ldr	r3, [r7, #12]
 2474 00c6 93F84730 		ldrb	r3, [r3, #71]
 2475 00ca DBB2     		uxtb	r3, r3
 2476              		.loc 1 862 51 discriminator 8
 2477 00cc 012B     		cmp	r3, #1
 2478 00ce 0CBF     		ite	eq
 2479 00d0 0123     		moveq	r3, #1
 2480 00d2 0023     		movne	r3, #0
 2481 00d4 DBB2     		uxtb	r3, r3
 2482              	.L147:
 2483              		.loc 1 862 11 discriminator 12
 2484 00d6 002B     		cmp	r3, #0
 2485 00d8 24D0     		beq	.L152
 863:Drivers/STM32F7xx_HAL_Driver/Src/stm32f7xx_hal_tim_ex.c ****   {
 864:Drivers/STM32F7xx_HAL_Driver/Src/stm32f7xx_hal_tim_ex.c ****     if ((pData == NULL) && (Length > 0U))
 2486              		.loc 1 864 8
 2487 00da 7B68     		ldr	r3, [r7, #4]
 2488 00dc 002B     		cmp	r3, #0
 2489 00de 04D1     		bne	.L153
 2490              		.loc 1 864 25 discriminator 1
 2491 00e0 7B88     		ldrh	r3, [r7, #2]
 2492 00e2 002B     		cmp	r3, #0
 2493 00e4 01D0     		beq	.L153
 865:Drivers/STM32F7xx_HAL_Driver/Src/stm32f7xx_hal_tim_ex.c ****     {
 866:Drivers/STM32F7xx_HAL_Driver/Src/stm32f7xx_hal_tim_ex.c ****       return HAL_ERROR;
 2494              		.loc 1 866 14
 2495 00e6 0123     		movs	r3, #1
 2496 00e8 F0E0     		b	.L145
 2497              	.L153:
 867:Drivers/STM32F7xx_HAL_Driver/Src/stm32f7xx_hal_tim_ex.c ****     }
 868:Drivers/STM32F7xx_HAL_Driver/Src/stm32f7xx_hal_tim_ex.c ****     else
 869:Drivers/STM32F7xx_HAL_Driver/Src/stm32f7xx_hal_tim_ex.c ****     {
 870:Drivers/STM32F7xx_HAL_Driver/Src/stm32f7xx_hal_tim_ex.c ****       TIM_CHANNEL_N_STATE_SET(htim, Channel, HAL_TIM_CHANNEL_STATE_BUSY);
 2498              		.loc 1 870 7
ARM GAS  /tmp/ccOFTjtU.s 			page 60


 2499 00ea BB68     		ldr	r3, [r7, #8]
 2500 00ec 002B     		cmp	r3, #0
 2501 00ee 04D1     		bne	.L154
 2502              		.loc 1 870 7 is_stmt 0 discriminator 1
 2503 00f0 FB68     		ldr	r3, [r7, #12]
 2504 00f2 0222     		movs	r2, #2
 2505 00f4 83F84420 		strb	r2, [r3, #68]
 2506 00f8 16E0     		b	.L155
 2507              	.L154:
 2508              		.loc 1 870 7 discriminator 2
 2509 00fa BB68     		ldr	r3, [r7, #8]
 2510 00fc 042B     		cmp	r3, #4
 2511 00fe 04D1     		bne	.L156
 2512              		.loc 1 870 7 discriminator 3
 2513 0100 FB68     		ldr	r3, [r7, #12]
 2514 0102 0222     		movs	r2, #2
 2515 0104 83F84520 		strb	r2, [r3, #69]
 2516 0108 0EE0     		b	.L155
 2517              	.L156:
 2518              		.loc 1 870 7 discriminator 4
 2519 010a BB68     		ldr	r3, [r7, #8]
 2520 010c 082B     		cmp	r3, #8
 2521 010e 04D1     		bne	.L158
 2522              		.loc 1 870 7 discriminator 6
 2523 0110 FB68     		ldr	r3, [r7, #12]
 2524 0112 0222     		movs	r2, #2
 2525 0114 83F84620 		strb	r2, [r3, #70]
 2526 0118 06E0     		b	.L155
 2527              	.L158:
 2528              		.loc 1 870 7 discriminator 7
 2529 011a FB68     		ldr	r3, [r7, #12]
 2530 011c 0222     		movs	r2, #2
 2531 011e 83F84720 		strb	r2, [r3, #71]
 2532 0122 01E0     		b	.L155
 2533              	.L152:
 871:Drivers/STM32F7xx_HAL_Driver/Src/stm32f7xx_hal_tim_ex.c ****     }
 872:Drivers/STM32F7xx_HAL_Driver/Src/stm32f7xx_hal_tim_ex.c ****   }
 873:Drivers/STM32F7xx_HAL_Driver/Src/stm32f7xx_hal_tim_ex.c ****   else
 874:Drivers/STM32F7xx_HAL_Driver/Src/stm32f7xx_hal_tim_ex.c ****   {
 875:Drivers/STM32F7xx_HAL_Driver/Src/stm32f7xx_hal_tim_ex.c ****     return HAL_ERROR;
 2534              		.loc 1 875 12 is_stmt 1
 2535 0124 0123     		movs	r3, #1
 2536 0126 D1E0     		b	.L145
 2537              	.L155:
 876:Drivers/STM32F7xx_HAL_Driver/Src/stm32f7xx_hal_tim_ex.c ****   }
 877:Drivers/STM32F7xx_HAL_Driver/Src/stm32f7xx_hal_tim_ex.c **** 
 878:Drivers/STM32F7xx_HAL_Driver/Src/stm32f7xx_hal_tim_ex.c ****   switch (Channel)
 2538              		.loc 1 878 3
 2539 0128 BB68     		ldr	r3, [r7, #8]
 2540 012a 082B     		cmp	r3, #8
 2541 012c 51D0     		beq	.L160
 2542 012e BB68     		ldr	r3, [r7, #8]
 2543 0130 082B     		cmp	r3, #8
 2544 0132 72D8     		bhi	.L172
 2545 0134 BB68     		ldr	r3, [r7, #8]
 2546 0136 002B     		cmp	r3, #0
 2547 0138 03D0     		beq	.L162
ARM GAS  /tmp/ccOFTjtU.s 			page 61


 2548 013a BB68     		ldr	r3, [r7, #8]
 2549 013c 042B     		cmp	r3, #4
 2550 013e 24D0     		beq	.L163
 879:Drivers/STM32F7xx_HAL_Driver/Src/stm32f7xx_hal_tim_ex.c ****   {
 880:Drivers/STM32F7xx_HAL_Driver/Src/stm32f7xx_hal_tim_ex.c ****     case TIM_CHANNEL_1:
 881:Drivers/STM32F7xx_HAL_Driver/Src/stm32f7xx_hal_tim_ex.c ****     {
 882:Drivers/STM32F7xx_HAL_Driver/Src/stm32f7xx_hal_tim_ex.c ****       /* Set the DMA compare callbacks */
 883:Drivers/STM32F7xx_HAL_Driver/Src/stm32f7xx_hal_tim_ex.c ****       htim->hdma[TIM_DMA_ID_CC1]->XferCpltCallback = TIM_DMADelayPulseNCplt;
 884:Drivers/STM32F7xx_HAL_Driver/Src/stm32f7xx_hal_tim_ex.c ****       htim->hdma[TIM_DMA_ID_CC1]->XferHalfCpltCallback = TIM_DMADelayPulseHalfCplt;
 885:Drivers/STM32F7xx_HAL_Driver/Src/stm32f7xx_hal_tim_ex.c **** 
 886:Drivers/STM32F7xx_HAL_Driver/Src/stm32f7xx_hal_tim_ex.c ****       /* Set the DMA error callback */
 887:Drivers/STM32F7xx_HAL_Driver/Src/stm32f7xx_hal_tim_ex.c ****       htim->hdma[TIM_DMA_ID_CC1]->XferErrorCallback = TIM_DMAErrorCCxN ;
 888:Drivers/STM32F7xx_HAL_Driver/Src/stm32f7xx_hal_tim_ex.c **** 
 889:Drivers/STM32F7xx_HAL_Driver/Src/stm32f7xx_hal_tim_ex.c ****       /* Enable the DMA stream */
 890:Drivers/STM32F7xx_HAL_Driver/Src/stm32f7xx_hal_tim_ex.c ****       if (HAL_DMA_Start_IT(htim->hdma[TIM_DMA_ID_CC1], (uint32_t)pData, (uint32_t)&htim->Instance->
 891:Drivers/STM32F7xx_HAL_Driver/Src/stm32f7xx_hal_tim_ex.c ****       {
 892:Drivers/STM32F7xx_HAL_Driver/Src/stm32f7xx_hal_tim_ex.c ****         /* Return error status */
 893:Drivers/STM32F7xx_HAL_Driver/Src/stm32f7xx_hal_tim_ex.c ****         return HAL_ERROR;
 894:Drivers/STM32F7xx_HAL_Driver/Src/stm32f7xx_hal_tim_ex.c ****       }
 895:Drivers/STM32F7xx_HAL_Driver/Src/stm32f7xx_hal_tim_ex.c ****       /* Enable the TIM Output Compare DMA request */
 896:Drivers/STM32F7xx_HAL_Driver/Src/stm32f7xx_hal_tim_ex.c ****       __HAL_TIM_ENABLE_DMA(htim, TIM_DMA_CC1);
 897:Drivers/STM32F7xx_HAL_Driver/Src/stm32f7xx_hal_tim_ex.c ****       break;
 898:Drivers/STM32F7xx_HAL_Driver/Src/stm32f7xx_hal_tim_ex.c ****     }
 899:Drivers/STM32F7xx_HAL_Driver/Src/stm32f7xx_hal_tim_ex.c **** 
 900:Drivers/STM32F7xx_HAL_Driver/Src/stm32f7xx_hal_tim_ex.c ****     case TIM_CHANNEL_2:
 901:Drivers/STM32F7xx_HAL_Driver/Src/stm32f7xx_hal_tim_ex.c ****     {
 902:Drivers/STM32F7xx_HAL_Driver/Src/stm32f7xx_hal_tim_ex.c ****       /* Set the DMA compare callbacks */
 903:Drivers/STM32F7xx_HAL_Driver/Src/stm32f7xx_hal_tim_ex.c ****       htim->hdma[TIM_DMA_ID_CC2]->XferCpltCallback = TIM_DMADelayPulseNCplt;
 904:Drivers/STM32F7xx_HAL_Driver/Src/stm32f7xx_hal_tim_ex.c ****       htim->hdma[TIM_DMA_ID_CC2]->XferHalfCpltCallback = TIM_DMADelayPulseHalfCplt;
 905:Drivers/STM32F7xx_HAL_Driver/Src/stm32f7xx_hal_tim_ex.c **** 
 906:Drivers/STM32F7xx_HAL_Driver/Src/stm32f7xx_hal_tim_ex.c ****       /* Set the DMA error callback */
 907:Drivers/STM32F7xx_HAL_Driver/Src/stm32f7xx_hal_tim_ex.c ****       htim->hdma[TIM_DMA_ID_CC2]->XferErrorCallback = TIM_DMAErrorCCxN ;
 908:Drivers/STM32F7xx_HAL_Driver/Src/stm32f7xx_hal_tim_ex.c **** 
 909:Drivers/STM32F7xx_HAL_Driver/Src/stm32f7xx_hal_tim_ex.c ****       /* Enable the DMA stream */
 910:Drivers/STM32F7xx_HAL_Driver/Src/stm32f7xx_hal_tim_ex.c ****       if (HAL_DMA_Start_IT(htim->hdma[TIM_DMA_ID_CC2], (uint32_t)pData, (uint32_t)&htim->Instance->
 911:Drivers/STM32F7xx_HAL_Driver/Src/stm32f7xx_hal_tim_ex.c ****       {
 912:Drivers/STM32F7xx_HAL_Driver/Src/stm32f7xx_hal_tim_ex.c ****         /* Return error status */
 913:Drivers/STM32F7xx_HAL_Driver/Src/stm32f7xx_hal_tim_ex.c ****         return HAL_ERROR;
 914:Drivers/STM32F7xx_HAL_Driver/Src/stm32f7xx_hal_tim_ex.c ****       }
 915:Drivers/STM32F7xx_HAL_Driver/Src/stm32f7xx_hal_tim_ex.c ****       /* Enable the TIM Output Compare DMA request */
 916:Drivers/STM32F7xx_HAL_Driver/Src/stm32f7xx_hal_tim_ex.c ****       __HAL_TIM_ENABLE_DMA(htim, TIM_DMA_CC2);
 917:Drivers/STM32F7xx_HAL_Driver/Src/stm32f7xx_hal_tim_ex.c ****       break;
 918:Drivers/STM32F7xx_HAL_Driver/Src/stm32f7xx_hal_tim_ex.c ****     }
 919:Drivers/STM32F7xx_HAL_Driver/Src/stm32f7xx_hal_tim_ex.c **** 
 920:Drivers/STM32F7xx_HAL_Driver/Src/stm32f7xx_hal_tim_ex.c ****     case TIM_CHANNEL_3:
 921:Drivers/STM32F7xx_HAL_Driver/Src/stm32f7xx_hal_tim_ex.c ****     {
 922:Drivers/STM32F7xx_HAL_Driver/Src/stm32f7xx_hal_tim_ex.c ****       /* Set the DMA compare callbacks */
 923:Drivers/STM32F7xx_HAL_Driver/Src/stm32f7xx_hal_tim_ex.c ****       htim->hdma[TIM_DMA_ID_CC3]->XferCpltCallback = TIM_DMADelayPulseNCplt;
 924:Drivers/STM32F7xx_HAL_Driver/Src/stm32f7xx_hal_tim_ex.c ****       htim->hdma[TIM_DMA_ID_CC3]->XferHalfCpltCallback = TIM_DMADelayPulseHalfCplt;
 925:Drivers/STM32F7xx_HAL_Driver/Src/stm32f7xx_hal_tim_ex.c **** 
 926:Drivers/STM32F7xx_HAL_Driver/Src/stm32f7xx_hal_tim_ex.c ****       /* Set the DMA error callback */
 927:Drivers/STM32F7xx_HAL_Driver/Src/stm32f7xx_hal_tim_ex.c ****       htim->hdma[TIM_DMA_ID_CC3]->XferErrorCallback = TIM_DMAErrorCCxN ;
 928:Drivers/STM32F7xx_HAL_Driver/Src/stm32f7xx_hal_tim_ex.c **** 
 929:Drivers/STM32F7xx_HAL_Driver/Src/stm32f7xx_hal_tim_ex.c ****       /* Enable the DMA stream */
 930:Drivers/STM32F7xx_HAL_Driver/Src/stm32f7xx_hal_tim_ex.c ****       if (HAL_DMA_Start_IT(htim->hdma[TIM_DMA_ID_CC3], (uint32_t)pData, (uint32_t)&htim->Instance->
 931:Drivers/STM32F7xx_HAL_Driver/Src/stm32f7xx_hal_tim_ex.c ****       {
 932:Drivers/STM32F7xx_HAL_Driver/Src/stm32f7xx_hal_tim_ex.c ****         /* Return error status */
ARM GAS  /tmp/ccOFTjtU.s 			page 62


 933:Drivers/STM32F7xx_HAL_Driver/Src/stm32f7xx_hal_tim_ex.c ****         return HAL_ERROR;
 934:Drivers/STM32F7xx_HAL_Driver/Src/stm32f7xx_hal_tim_ex.c ****       }
 935:Drivers/STM32F7xx_HAL_Driver/Src/stm32f7xx_hal_tim_ex.c ****       /* Enable the TIM Output Compare DMA request */
 936:Drivers/STM32F7xx_HAL_Driver/Src/stm32f7xx_hal_tim_ex.c ****       __HAL_TIM_ENABLE_DMA(htim, TIM_DMA_CC3);
 937:Drivers/STM32F7xx_HAL_Driver/Src/stm32f7xx_hal_tim_ex.c ****       break;
 938:Drivers/STM32F7xx_HAL_Driver/Src/stm32f7xx_hal_tim_ex.c ****     }
 939:Drivers/STM32F7xx_HAL_Driver/Src/stm32f7xx_hal_tim_ex.c **** 
 940:Drivers/STM32F7xx_HAL_Driver/Src/stm32f7xx_hal_tim_ex.c ****     default:
 941:Drivers/STM32F7xx_HAL_Driver/Src/stm32f7xx_hal_tim_ex.c ****       break;
 2551              		.loc 1 941 7
 2552 0140 6BE0     		b	.L172
 2553              	.L162:
 883:Drivers/STM32F7xx_HAL_Driver/Src/stm32f7xx_hal_tim_ex.c ****       htim->hdma[TIM_DMA_ID_CC1]->XferHalfCpltCallback = TIM_DMADelayPulseHalfCplt;
 2554              		.loc 1 883 17
 2555 0142 FB68     		ldr	r3, [r7, #12]
 2556 0144 5B6A     		ldr	r3, [r3, #36]
 883:Drivers/STM32F7xx_HAL_Driver/Src/stm32f7xx_hal_tim_ex.c ****       htim->hdma[TIM_DMA_ID_CC1]->XferHalfCpltCallback = TIM_DMADelayPulseHalfCplt;
 2557              		.loc 1 883 52
 2558 0146 634A     		ldr	r2, .L174
 2559 0148 DA63     		str	r2, [r3, #60]
 884:Drivers/STM32F7xx_HAL_Driver/Src/stm32f7xx_hal_tim_ex.c **** 
 2560              		.loc 1 884 17
 2561 014a FB68     		ldr	r3, [r7, #12]
 2562 014c 5B6A     		ldr	r3, [r3, #36]
 884:Drivers/STM32F7xx_HAL_Driver/Src/stm32f7xx_hal_tim_ex.c **** 
 2563              		.loc 1 884 56
 2564 014e 624A     		ldr	r2, .L174+4
 2565 0150 1A64     		str	r2, [r3, #64]
 887:Drivers/STM32F7xx_HAL_Driver/Src/stm32f7xx_hal_tim_ex.c **** 
 2566              		.loc 1 887 17
 2567 0152 FB68     		ldr	r3, [r7, #12]
 2568 0154 5B6A     		ldr	r3, [r3, #36]
 887:Drivers/STM32F7xx_HAL_Driver/Src/stm32f7xx_hal_tim_ex.c **** 
 2569              		.loc 1 887 53
 2570 0156 614A     		ldr	r2, .L174+8
 2571 0158 DA64     		str	r2, [r3, #76]
 890:Drivers/STM32F7xx_HAL_Driver/Src/stm32f7xx_hal_tim_ex.c ****       {
 2572              		.loc 1 890 11
 2573 015a FB68     		ldr	r3, [r7, #12]
 2574 015c 586A     		ldr	r0, [r3, #36]
 2575 015e 7968     		ldr	r1, [r7, #4]
 890:Drivers/STM32F7xx_HAL_Driver/Src/stm32f7xx_hal_tim_ex.c ****       {
 2576              		.loc 1 890 88
 2577 0160 FB68     		ldr	r3, [r7, #12]
 2578 0162 1B68     		ldr	r3, [r3]
 890:Drivers/STM32F7xx_HAL_Driver/Src/stm32f7xx_hal_tim_ex.c ****       {
 2579              		.loc 1 890 83
 2580 0164 3433     		adds	r3, r3, #52
 890:Drivers/STM32F7xx_HAL_Driver/Src/stm32f7xx_hal_tim_ex.c ****       {
 2581              		.loc 1 890 11
 2582 0166 1A46     		mov	r2, r3
 2583 0168 7B88     		ldrh	r3, [r7, #2]
 2584 016a FFF7FEFF 		bl	HAL_DMA_Start_IT
 2585 016e 0346     		mov	r3, r0
 890:Drivers/STM32F7xx_HAL_Driver/Src/stm32f7xx_hal_tim_ex.c ****       {
 2586              		.loc 1 890 10
 2587 0170 002B     		cmp	r3, #0
ARM GAS  /tmp/ccOFTjtU.s 			page 63


 2588 0172 01D0     		beq	.L164
 893:Drivers/STM32F7xx_HAL_Driver/Src/stm32f7xx_hal_tim_ex.c ****       }
 2589              		.loc 1 893 16
 2590 0174 0123     		movs	r3, #1
 2591 0176 A9E0     		b	.L145
 2592              	.L164:
 896:Drivers/STM32F7xx_HAL_Driver/Src/stm32f7xx_hal_tim_ex.c ****       break;
 2593              		.loc 1 896 7
 2594 0178 FB68     		ldr	r3, [r7, #12]
 2595 017a 1B68     		ldr	r3, [r3]
 2596 017c DA68     		ldr	r2, [r3, #12]
 2597 017e FB68     		ldr	r3, [r7, #12]
 2598 0180 1B68     		ldr	r3, [r3]
 2599 0182 42F40072 		orr	r2, r2, #512
 2600 0186 DA60     		str	r2, [r3, #12]
 897:Drivers/STM32F7xx_HAL_Driver/Src/stm32f7xx_hal_tim_ex.c ****     }
 2601              		.loc 1 897 7
 2602 0188 48E0     		b	.L165
 2603              	.L163:
 903:Drivers/STM32F7xx_HAL_Driver/Src/stm32f7xx_hal_tim_ex.c ****       htim->hdma[TIM_DMA_ID_CC2]->XferHalfCpltCallback = TIM_DMADelayPulseHalfCplt;
 2604              		.loc 1 903 17
 2605 018a FB68     		ldr	r3, [r7, #12]
 2606 018c 9B6A     		ldr	r3, [r3, #40]
 903:Drivers/STM32F7xx_HAL_Driver/Src/stm32f7xx_hal_tim_ex.c ****       htim->hdma[TIM_DMA_ID_CC2]->XferHalfCpltCallback = TIM_DMADelayPulseHalfCplt;
 2607              		.loc 1 903 52
 2608 018e 514A     		ldr	r2, .L174
 2609 0190 DA63     		str	r2, [r3, #60]
 904:Drivers/STM32F7xx_HAL_Driver/Src/stm32f7xx_hal_tim_ex.c **** 
 2610              		.loc 1 904 17
 2611 0192 FB68     		ldr	r3, [r7, #12]
 2612 0194 9B6A     		ldr	r3, [r3, #40]
 904:Drivers/STM32F7xx_HAL_Driver/Src/stm32f7xx_hal_tim_ex.c **** 
 2613              		.loc 1 904 56
 2614 0196 504A     		ldr	r2, .L174+4
 2615 0198 1A64     		str	r2, [r3, #64]
 907:Drivers/STM32F7xx_HAL_Driver/Src/stm32f7xx_hal_tim_ex.c **** 
 2616              		.loc 1 907 17
 2617 019a FB68     		ldr	r3, [r7, #12]
 2618 019c 9B6A     		ldr	r3, [r3, #40]
 907:Drivers/STM32F7xx_HAL_Driver/Src/stm32f7xx_hal_tim_ex.c **** 
 2619              		.loc 1 907 53
 2620 019e 4F4A     		ldr	r2, .L174+8
 2621 01a0 DA64     		str	r2, [r3, #76]
 910:Drivers/STM32F7xx_HAL_Driver/Src/stm32f7xx_hal_tim_ex.c ****       {
 2622              		.loc 1 910 11
 2623 01a2 FB68     		ldr	r3, [r7, #12]
 2624 01a4 986A     		ldr	r0, [r3, #40]
 2625 01a6 7968     		ldr	r1, [r7, #4]
 910:Drivers/STM32F7xx_HAL_Driver/Src/stm32f7xx_hal_tim_ex.c ****       {
 2626              		.loc 1 910 88
 2627 01a8 FB68     		ldr	r3, [r7, #12]
 2628 01aa 1B68     		ldr	r3, [r3]
 910:Drivers/STM32F7xx_HAL_Driver/Src/stm32f7xx_hal_tim_ex.c ****       {
 2629              		.loc 1 910 83
 2630 01ac 3833     		adds	r3, r3, #56
 910:Drivers/STM32F7xx_HAL_Driver/Src/stm32f7xx_hal_tim_ex.c ****       {
 2631              		.loc 1 910 11
ARM GAS  /tmp/ccOFTjtU.s 			page 64


 2632 01ae 1A46     		mov	r2, r3
 2633 01b0 7B88     		ldrh	r3, [r7, #2]
 2634 01b2 FFF7FEFF 		bl	HAL_DMA_Start_IT
 2635 01b6 0346     		mov	r3, r0
 910:Drivers/STM32F7xx_HAL_Driver/Src/stm32f7xx_hal_tim_ex.c ****       {
 2636              		.loc 1 910 10
 2637 01b8 002B     		cmp	r3, #0
 2638 01ba 01D0     		beq	.L166
 913:Drivers/STM32F7xx_HAL_Driver/Src/stm32f7xx_hal_tim_ex.c ****       }
 2639              		.loc 1 913 16
 2640 01bc 0123     		movs	r3, #1
 2641 01be 85E0     		b	.L145
 2642              	.L166:
 916:Drivers/STM32F7xx_HAL_Driver/Src/stm32f7xx_hal_tim_ex.c ****       break;
 2643              		.loc 1 916 7
 2644 01c0 FB68     		ldr	r3, [r7, #12]
 2645 01c2 1B68     		ldr	r3, [r3]
 2646 01c4 DA68     		ldr	r2, [r3, #12]
 2647 01c6 FB68     		ldr	r3, [r7, #12]
 2648 01c8 1B68     		ldr	r3, [r3]
 2649 01ca 42F48062 		orr	r2, r2, #1024
 2650 01ce DA60     		str	r2, [r3, #12]
 917:Drivers/STM32F7xx_HAL_Driver/Src/stm32f7xx_hal_tim_ex.c ****     }
 2651              		.loc 1 917 7
 2652 01d0 24E0     		b	.L165
 2653              	.L160:
 923:Drivers/STM32F7xx_HAL_Driver/Src/stm32f7xx_hal_tim_ex.c ****       htim->hdma[TIM_DMA_ID_CC3]->XferHalfCpltCallback = TIM_DMADelayPulseHalfCplt;
 2654              		.loc 1 923 17
 2655 01d2 FB68     		ldr	r3, [r7, #12]
 2656 01d4 DB6A     		ldr	r3, [r3, #44]
 923:Drivers/STM32F7xx_HAL_Driver/Src/stm32f7xx_hal_tim_ex.c ****       htim->hdma[TIM_DMA_ID_CC3]->XferHalfCpltCallback = TIM_DMADelayPulseHalfCplt;
 2657              		.loc 1 923 52
 2658 01d6 3F4A     		ldr	r2, .L174
 2659 01d8 DA63     		str	r2, [r3, #60]
 924:Drivers/STM32F7xx_HAL_Driver/Src/stm32f7xx_hal_tim_ex.c **** 
 2660              		.loc 1 924 17
 2661 01da FB68     		ldr	r3, [r7, #12]
 2662 01dc DB6A     		ldr	r3, [r3, #44]
 924:Drivers/STM32F7xx_HAL_Driver/Src/stm32f7xx_hal_tim_ex.c **** 
 2663              		.loc 1 924 56
 2664 01de 3E4A     		ldr	r2, .L174+4
 2665 01e0 1A64     		str	r2, [r3, #64]
 927:Drivers/STM32F7xx_HAL_Driver/Src/stm32f7xx_hal_tim_ex.c **** 
 2666              		.loc 1 927 17
 2667 01e2 FB68     		ldr	r3, [r7, #12]
 2668 01e4 DB6A     		ldr	r3, [r3, #44]
 927:Drivers/STM32F7xx_HAL_Driver/Src/stm32f7xx_hal_tim_ex.c **** 
 2669              		.loc 1 927 53
 2670 01e6 3D4A     		ldr	r2, .L174+8
 2671 01e8 DA64     		str	r2, [r3, #76]
 930:Drivers/STM32F7xx_HAL_Driver/Src/stm32f7xx_hal_tim_ex.c ****       {
 2672              		.loc 1 930 11
 2673 01ea FB68     		ldr	r3, [r7, #12]
 2674 01ec D86A     		ldr	r0, [r3, #44]
 2675 01ee 7968     		ldr	r1, [r7, #4]
 930:Drivers/STM32F7xx_HAL_Driver/Src/stm32f7xx_hal_tim_ex.c ****       {
 2676              		.loc 1 930 88
ARM GAS  /tmp/ccOFTjtU.s 			page 65


 2677 01f0 FB68     		ldr	r3, [r7, #12]
 2678 01f2 1B68     		ldr	r3, [r3]
 930:Drivers/STM32F7xx_HAL_Driver/Src/stm32f7xx_hal_tim_ex.c ****       {
 2679              		.loc 1 930 83
 2680 01f4 3C33     		adds	r3, r3, #60
 930:Drivers/STM32F7xx_HAL_Driver/Src/stm32f7xx_hal_tim_ex.c ****       {
 2681              		.loc 1 930 11
 2682 01f6 1A46     		mov	r2, r3
 2683 01f8 7B88     		ldrh	r3, [r7, #2]
 2684 01fa FFF7FEFF 		bl	HAL_DMA_Start_IT
 2685 01fe 0346     		mov	r3, r0
 930:Drivers/STM32F7xx_HAL_Driver/Src/stm32f7xx_hal_tim_ex.c ****       {
 2686              		.loc 1 930 10
 2687 0200 002B     		cmp	r3, #0
 2688 0202 01D0     		beq	.L167
 933:Drivers/STM32F7xx_HAL_Driver/Src/stm32f7xx_hal_tim_ex.c ****       }
 2689              		.loc 1 933 16
 2690 0204 0123     		movs	r3, #1
 2691 0206 61E0     		b	.L145
 2692              	.L167:
 936:Drivers/STM32F7xx_HAL_Driver/Src/stm32f7xx_hal_tim_ex.c ****       break;
 2693              		.loc 1 936 7
 2694 0208 FB68     		ldr	r3, [r7, #12]
 2695 020a 1B68     		ldr	r3, [r3]
 2696 020c DA68     		ldr	r2, [r3, #12]
 2697 020e FB68     		ldr	r3, [r7, #12]
 2698 0210 1B68     		ldr	r3, [r3]
 2699 0212 42F40062 		orr	r2, r2, #2048
 2700 0216 DA60     		str	r2, [r3, #12]
 937:Drivers/STM32F7xx_HAL_Driver/Src/stm32f7xx_hal_tim_ex.c ****     }
 2701              		.loc 1 937 7
 2702 0218 00E0     		b	.L165
 2703              	.L172:
 2704              		.loc 1 941 7
 2705 021a 00BF     		nop
 2706              	.L165:
 942:Drivers/STM32F7xx_HAL_Driver/Src/stm32f7xx_hal_tim_ex.c ****   }
 943:Drivers/STM32F7xx_HAL_Driver/Src/stm32f7xx_hal_tim_ex.c **** 
 944:Drivers/STM32F7xx_HAL_Driver/Src/stm32f7xx_hal_tim_ex.c ****   /* Enable the Capture compare channel N */
 945:Drivers/STM32F7xx_HAL_Driver/Src/stm32f7xx_hal_tim_ex.c ****   TIM_CCxNChannelCmd(htim->Instance, Channel, TIM_CCxN_ENABLE);
 2707              		.loc 1 945 3
 2708 021c FB68     		ldr	r3, [r7, #12]
 2709 021e 1B68     		ldr	r3, [r3]
 2710 0220 0422     		movs	r2, #4
 2711 0222 B968     		ldr	r1, [r7, #8]
 2712 0224 1846     		mov	r0, r3
 2713 0226 FFF7FEFF 		bl	TIM_CCxNChannelCmd
 946:Drivers/STM32F7xx_HAL_Driver/Src/stm32f7xx_hal_tim_ex.c **** 
 947:Drivers/STM32F7xx_HAL_Driver/Src/stm32f7xx_hal_tim_ex.c ****   /* Enable the Main Output */
 948:Drivers/STM32F7xx_HAL_Driver/Src/stm32f7xx_hal_tim_ex.c ****   __HAL_TIM_MOE_ENABLE(htim);
 2714              		.loc 1 948 3
 2715 022a FB68     		ldr	r3, [r7, #12]
 2716 022c 1B68     		ldr	r3, [r3]
 2717 022e 5A6C     		ldr	r2, [r3, #68]
 2718 0230 FB68     		ldr	r3, [r7, #12]
 2719 0232 1B68     		ldr	r3, [r3]
 2720 0234 42F40042 		orr	r2, r2, #32768
ARM GAS  /tmp/ccOFTjtU.s 			page 66


 2721 0238 5A64     		str	r2, [r3, #68]
 949:Drivers/STM32F7xx_HAL_Driver/Src/stm32f7xx_hal_tim_ex.c **** 
 950:Drivers/STM32F7xx_HAL_Driver/Src/stm32f7xx_hal_tim_ex.c ****   /* Enable the Peripheral, except in trigger mode where enable is automatically done with trigger 
 951:Drivers/STM32F7xx_HAL_Driver/Src/stm32f7xx_hal_tim_ex.c ****   if (IS_TIM_SLAVE_INSTANCE(htim->Instance))
 2722              		.loc 1 951 7
 2723 023a FB68     		ldr	r3, [r7, #12]
 2724 023c 1B68     		ldr	r3, [r3]
 2725              		.loc 1 951 6
 2726 023e 284A     		ldr	r2, .L174+12
 2727 0240 9342     		cmp	r3, r2
 2728 0242 22D0     		beq	.L168
 2729              		.loc 1 951 7 discriminator 1
 2730 0244 FB68     		ldr	r3, [r7, #12]
 2731 0246 1B68     		ldr	r3, [r3]
 2732 0248 B3F1804F 		cmp	r3, #1073741824
 2733 024c 1DD0     		beq	.L168
 2734              		.loc 1 951 7 is_stmt 0 discriminator 2
 2735 024e FB68     		ldr	r3, [r7, #12]
 2736 0250 1B68     		ldr	r3, [r3]
 2737 0252 244A     		ldr	r2, .L174+16
 2738 0254 9342     		cmp	r3, r2
 2739 0256 18D0     		beq	.L168
 2740              		.loc 1 951 7 discriminator 3
 2741 0258 FB68     		ldr	r3, [r7, #12]
 2742 025a 1B68     		ldr	r3, [r3]
 2743 025c 224A     		ldr	r2, .L174+20
 2744 025e 9342     		cmp	r3, r2
 2745 0260 13D0     		beq	.L168
 2746              		.loc 1 951 7 discriminator 4
 2747 0262 FB68     		ldr	r3, [r7, #12]
 2748 0264 1B68     		ldr	r3, [r3]
 2749 0266 214A     		ldr	r2, .L174+24
 2750 0268 9342     		cmp	r3, r2
 2751 026a 0ED0     		beq	.L168
 2752              		.loc 1 951 7 discriminator 5
 2753 026c FB68     		ldr	r3, [r7, #12]
 2754 026e 1B68     		ldr	r3, [r3]
 2755 0270 1F4A     		ldr	r2, .L174+28
 2756 0272 9342     		cmp	r3, r2
 2757 0274 09D0     		beq	.L168
 2758              		.loc 1 951 7 discriminator 6
 2759 0276 FB68     		ldr	r3, [r7, #12]
 2760 0278 1B68     		ldr	r3, [r3]
 2761 027a 1E4A     		ldr	r2, .L174+32
 2762 027c 9342     		cmp	r3, r2
 2763 027e 04D0     		beq	.L168
 2764              		.loc 1 951 7 discriminator 7
 2765 0280 FB68     		ldr	r3, [r7, #12]
 2766 0282 1B68     		ldr	r3, [r3]
 2767 0284 1C4A     		ldr	r2, .L174+36
 2768 0286 9342     		cmp	r3, r2
 2769 0288 15D1     		bne	.L169
 2770              	.L168:
 952:Drivers/STM32F7xx_HAL_Driver/Src/stm32f7xx_hal_tim_ex.c ****   {
 953:Drivers/STM32F7xx_HAL_Driver/Src/stm32f7xx_hal_tim_ex.c ****     tmpsmcr = htim->Instance->SMCR & TIM_SMCR_SMS;
 2771              		.loc 1 953 19 is_stmt 1
 2772 028a FB68     		ldr	r3, [r7, #12]
ARM GAS  /tmp/ccOFTjtU.s 			page 67


 2773 028c 1B68     		ldr	r3, [r3]
 2774              		.loc 1 953 29
 2775 028e 9A68     		ldr	r2, [r3, #8]
 2776              		.loc 1 953 13
 2777 0290 1A4B     		ldr	r3, .L174+40
 2778 0292 1340     		ands	r3, r3, r2
 2779 0294 7B61     		str	r3, [r7, #20]
 954:Drivers/STM32F7xx_HAL_Driver/Src/stm32f7xx_hal_tim_ex.c ****     if (!IS_TIM_SLAVEMODE_TRIGGER_ENABLED(tmpsmcr))
 2780              		.loc 1 954 8
 2781 0296 7B69     		ldr	r3, [r7, #20]
 2782 0298 062B     		cmp	r3, #6
 2783 029a 15D0     		beq	.L173
 2784              		.loc 1 954 9 discriminator 1
 2785 029c 7B69     		ldr	r3, [r7, #20]
 2786 029e B3F5803F 		cmp	r3, #65536
 2787 02a2 11D0     		beq	.L173
 955:Drivers/STM32F7xx_HAL_Driver/Src/stm32f7xx_hal_tim_ex.c ****     {
 956:Drivers/STM32F7xx_HAL_Driver/Src/stm32f7xx_hal_tim_ex.c ****       __HAL_TIM_ENABLE(htim);
 2788              		.loc 1 956 7
 2789 02a4 FB68     		ldr	r3, [r7, #12]
 2790 02a6 1B68     		ldr	r3, [r3]
 2791 02a8 1A68     		ldr	r2, [r3]
 2792 02aa FB68     		ldr	r3, [r7, #12]
 2793 02ac 1B68     		ldr	r3, [r3]
 2794 02ae 42F00102 		orr	r2, r2, #1
 2795 02b2 1A60     		str	r2, [r3]
 954:Drivers/STM32F7xx_HAL_Driver/Src/stm32f7xx_hal_tim_ex.c ****     if (!IS_TIM_SLAVEMODE_TRIGGER_ENABLED(tmpsmcr))
 2796              		.loc 1 954 8
 2797 02b4 08E0     		b	.L173
 2798              	.L169:
 957:Drivers/STM32F7xx_HAL_Driver/Src/stm32f7xx_hal_tim_ex.c ****     }
 958:Drivers/STM32F7xx_HAL_Driver/Src/stm32f7xx_hal_tim_ex.c ****   }
 959:Drivers/STM32F7xx_HAL_Driver/Src/stm32f7xx_hal_tim_ex.c ****   else
 960:Drivers/STM32F7xx_HAL_Driver/Src/stm32f7xx_hal_tim_ex.c ****   {
 961:Drivers/STM32F7xx_HAL_Driver/Src/stm32f7xx_hal_tim_ex.c ****     __HAL_TIM_ENABLE(htim);
 2799              		.loc 1 961 5
 2800 02b6 FB68     		ldr	r3, [r7, #12]
 2801 02b8 1B68     		ldr	r3, [r3]
 2802 02ba 1A68     		ldr	r2, [r3]
 2803 02bc FB68     		ldr	r3, [r7, #12]
 2804 02be 1B68     		ldr	r3, [r3]
 2805 02c0 42F00102 		orr	r2, r2, #1
 2806 02c4 1A60     		str	r2, [r3]
 2807 02c6 00E0     		b	.L171
 2808              	.L173:
 954:Drivers/STM32F7xx_HAL_Driver/Src/stm32f7xx_hal_tim_ex.c ****     {
 2809              		.loc 1 954 8
 2810 02c8 00BF     		nop
 2811              	.L171:
 962:Drivers/STM32F7xx_HAL_Driver/Src/stm32f7xx_hal_tim_ex.c ****   }
 963:Drivers/STM32F7xx_HAL_Driver/Src/stm32f7xx_hal_tim_ex.c **** 
 964:Drivers/STM32F7xx_HAL_Driver/Src/stm32f7xx_hal_tim_ex.c ****   /* Return function status */
 965:Drivers/STM32F7xx_HAL_Driver/Src/stm32f7xx_hal_tim_ex.c ****   return HAL_OK;
 2812              		.loc 1 965 10
 2813 02ca 0023     		movs	r3, #0
 2814              	.L145:
 966:Drivers/STM32F7xx_HAL_Driver/Src/stm32f7xx_hal_tim_ex.c **** }
ARM GAS  /tmp/ccOFTjtU.s 			page 68


 2815              		.loc 1 966 1
 2816 02cc 1846     		mov	r0, r3
 2817 02ce 1837     		adds	r7, r7, #24
 2818              	.LCFI75:
 2819              		.cfi_def_cfa_offset 8
 2820 02d0 BD46     		mov	sp, r7
 2821              	.LCFI76:
 2822              		.cfi_def_cfa_register 13
 2823              		@ sp needed
 2824 02d2 80BD     		pop	{r7, pc}
 2825              	.L175:
 2826              		.align	2
 2827              	.L174:
 2828 02d4 00000000 		.word	TIM_DMADelayPulseNCplt
 2829 02d8 00000000 		.word	TIM_DMADelayPulseHalfCplt
 2830 02dc 00000000 		.word	TIM_DMAErrorCCxN
 2831 02e0 00000140 		.word	1073807360
 2832 02e4 00040040 		.word	1073742848
 2833 02e8 00080040 		.word	1073743872
 2834 02ec 000C0040 		.word	1073744896
 2835 02f0 00040140 		.word	1073808384
 2836 02f4 00400140 		.word	1073823744
 2837 02f8 00180040 		.word	1073747968
 2838 02fc 07000100 		.word	65543
 2839              		.cfi_endproc
 2840              	.LFE155:
 2842              		.section	.text.HAL_TIMEx_OCN_Stop_DMA,"ax",%progbits
 2843              		.align	1
 2844              		.global	HAL_TIMEx_OCN_Stop_DMA
 2845              		.syntax unified
 2846              		.thumb
 2847              		.thumb_func
 2848              		.fpu fpv5-d16
 2850              	HAL_TIMEx_OCN_Stop_DMA:
 2851              	.LFB156:
 967:Drivers/STM32F7xx_HAL_Driver/Src/stm32f7xx_hal_tim_ex.c **** 
 968:Drivers/STM32F7xx_HAL_Driver/Src/stm32f7xx_hal_tim_ex.c **** /**
 969:Drivers/STM32F7xx_HAL_Driver/Src/stm32f7xx_hal_tim_ex.c ****   * @brief  Stops the TIM Output Compare signal generation in DMA mode
 970:Drivers/STM32F7xx_HAL_Driver/Src/stm32f7xx_hal_tim_ex.c ****   *         on the complementary output.
 971:Drivers/STM32F7xx_HAL_Driver/Src/stm32f7xx_hal_tim_ex.c ****   * @param  htim TIM Output Compare handle
 972:Drivers/STM32F7xx_HAL_Driver/Src/stm32f7xx_hal_tim_ex.c ****   * @param  Channel TIM Channel to be disabled
 973:Drivers/STM32F7xx_HAL_Driver/Src/stm32f7xx_hal_tim_ex.c ****   *          This parameter can be one of the following values:
 974:Drivers/STM32F7xx_HAL_Driver/Src/stm32f7xx_hal_tim_ex.c ****   *            @arg TIM_CHANNEL_1: TIM Channel 1 selected
 975:Drivers/STM32F7xx_HAL_Driver/Src/stm32f7xx_hal_tim_ex.c ****   *            @arg TIM_CHANNEL_2: TIM Channel 2 selected
 976:Drivers/STM32F7xx_HAL_Driver/Src/stm32f7xx_hal_tim_ex.c ****   *            @arg TIM_CHANNEL_3: TIM Channel 3 selected
 977:Drivers/STM32F7xx_HAL_Driver/Src/stm32f7xx_hal_tim_ex.c ****   * @retval HAL status
 978:Drivers/STM32F7xx_HAL_Driver/Src/stm32f7xx_hal_tim_ex.c ****   */
 979:Drivers/STM32F7xx_HAL_Driver/Src/stm32f7xx_hal_tim_ex.c **** HAL_StatusTypeDef HAL_TIMEx_OCN_Stop_DMA(TIM_HandleTypeDef *htim, uint32_t Channel)
 980:Drivers/STM32F7xx_HAL_Driver/Src/stm32f7xx_hal_tim_ex.c **** {
 2852              		.loc 1 980 1
 2853              		.cfi_startproc
 2854              		@ args = 0, pretend = 0, frame = 8
 2855              		@ frame_needed = 1, uses_anonymous_args = 0
 2856 0000 80B5     		push	{r7, lr}
 2857              	.LCFI77:
 2858              		.cfi_def_cfa_offset 8
 2859              		.cfi_offset 7, -8
ARM GAS  /tmp/ccOFTjtU.s 			page 69


 2860              		.cfi_offset 14, -4
 2861 0002 82B0     		sub	sp, sp, #8
 2862              	.LCFI78:
 2863              		.cfi_def_cfa_offset 16
 2864 0004 00AF     		add	r7, sp, #0
 2865              	.LCFI79:
 2866              		.cfi_def_cfa_register 7
 2867 0006 7860     		str	r0, [r7, #4]
 2868 0008 3960     		str	r1, [r7]
 981:Drivers/STM32F7xx_HAL_Driver/Src/stm32f7xx_hal_tim_ex.c ****   /* Check the parameters */
 982:Drivers/STM32F7xx_HAL_Driver/Src/stm32f7xx_hal_tim_ex.c ****   assert_param(IS_TIM_CCXN_INSTANCE(htim->Instance, Channel));
 983:Drivers/STM32F7xx_HAL_Driver/Src/stm32f7xx_hal_tim_ex.c **** 
 984:Drivers/STM32F7xx_HAL_Driver/Src/stm32f7xx_hal_tim_ex.c ****   switch (Channel)
 2869              		.loc 1 984 3
 2870 000a 3B68     		ldr	r3, [r7]
 2871 000c 082B     		cmp	r3, #8
 2872 000e 25D0     		beq	.L177
 2873 0010 3B68     		ldr	r3, [r7]
 2874 0012 082B     		cmp	r3, #8
 2875 0014 30D8     		bhi	.L191
 2876 0016 3B68     		ldr	r3, [r7]
 2877 0018 002B     		cmp	r3, #0
 2878 001a 03D0     		beq	.L179
 2879 001c 3B68     		ldr	r3, [r7]
 2880 001e 042B     		cmp	r3, #4
 2881 0020 0ED0     		beq	.L180
 985:Drivers/STM32F7xx_HAL_Driver/Src/stm32f7xx_hal_tim_ex.c ****   {
 986:Drivers/STM32F7xx_HAL_Driver/Src/stm32f7xx_hal_tim_ex.c ****     case TIM_CHANNEL_1:
 987:Drivers/STM32F7xx_HAL_Driver/Src/stm32f7xx_hal_tim_ex.c ****     {
 988:Drivers/STM32F7xx_HAL_Driver/Src/stm32f7xx_hal_tim_ex.c ****       /* Disable the TIM Output Compare DMA request */
 989:Drivers/STM32F7xx_HAL_Driver/Src/stm32f7xx_hal_tim_ex.c ****       __HAL_TIM_DISABLE_DMA(htim, TIM_DMA_CC1);
 990:Drivers/STM32F7xx_HAL_Driver/Src/stm32f7xx_hal_tim_ex.c ****       (void)HAL_DMA_Abort_IT(htim->hdma[TIM_DMA_ID_CC1]);
 991:Drivers/STM32F7xx_HAL_Driver/Src/stm32f7xx_hal_tim_ex.c ****       break;
 992:Drivers/STM32F7xx_HAL_Driver/Src/stm32f7xx_hal_tim_ex.c ****     }
 993:Drivers/STM32F7xx_HAL_Driver/Src/stm32f7xx_hal_tim_ex.c **** 
 994:Drivers/STM32F7xx_HAL_Driver/Src/stm32f7xx_hal_tim_ex.c ****     case TIM_CHANNEL_2:
 995:Drivers/STM32F7xx_HAL_Driver/Src/stm32f7xx_hal_tim_ex.c ****     {
 996:Drivers/STM32F7xx_HAL_Driver/Src/stm32f7xx_hal_tim_ex.c ****       /* Disable the TIM Output Compare DMA request */
 997:Drivers/STM32F7xx_HAL_Driver/Src/stm32f7xx_hal_tim_ex.c ****       __HAL_TIM_DISABLE_DMA(htim, TIM_DMA_CC2);
 998:Drivers/STM32F7xx_HAL_Driver/Src/stm32f7xx_hal_tim_ex.c ****       (void)HAL_DMA_Abort_IT(htim->hdma[TIM_DMA_ID_CC2]);
 999:Drivers/STM32F7xx_HAL_Driver/Src/stm32f7xx_hal_tim_ex.c ****       break;
1000:Drivers/STM32F7xx_HAL_Driver/Src/stm32f7xx_hal_tim_ex.c ****     }
1001:Drivers/STM32F7xx_HAL_Driver/Src/stm32f7xx_hal_tim_ex.c **** 
1002:Drivers/STM32F7xx_HAL_Driver/Src/stm32f7xx_hal_tim_ex.c ****     case TIM_CHANNEL_3:
1003:Drivers/STM32F7xx_HAL_Driver/Src/stm32f7xx_hal_tim_ex.c ****     {
1004:Drivers/STM32F7xx_HAL_Driver/Src/stm32f7xx_hal_tim_ex.c ****       /* Disable the TIM Output Compare DMA request */
1005:Drivers/STM32F7xx_HAL_Driver/Src/stm32f7xx_hal_tim_ex.c ****       __HAL_TIM_DISABLE_DMA(htim, TIM_DMA_CC3);
1006:Drivers/STM32F7xx_HAL_Driver/Src/stm32f7xx_hal_tim_ex.c ****       (void)HAL_DMA_Abort_IT(htim->hdma[TIM_DMA_ID_CC3]);
1007:Drivers/STM32F7xx_HAL_Driver/Src/stm32f7xx_hal_tim_ex.c ****       break;
1008:Drivers/STM32F7xx_HAL_Driver/Src/stm32f7xx_hal_tim_ex.c ****     }
1009:Drivers/STM32F7xx_HAL_Driver/Src/stm32f7xx_hal_tim_ex.c **** 
1010:Drivers/STM32F7xx_HAL_Driver/Src/stm32f7xx_hal_tim_ex.c ****     default:
1011:Drivers/STM32F7xx_HAL_Driver/Src/stm32f7xx_hal_tim_ex.c ****       break;
 2882              		.loc 1 1011 7
 2883 0022 29E0     		b	.L191
 2884              	.L179:
 989:Drivers/STM32F7xx_HAL_Driver/Src/stm32f7xx_hal_tim_ex.c ****       (void)HAL_DMA_Abort_IT(htim->hdma[TIM_DMA_ID_CC1]);
ARM GAS  /tmp/ccOFTjtU.s 			page 70


 2885              		.loc 1 989 7
 2886 0024 7B68     		ldr	r3, [r7, #4]
 2887 0026 1B68     		ldr	r3, [r3]
 2888 0028 DA68     		ldr	r2, [r3, #12]
 2889 002a 7B68     		ldr	r3, [r7, #4]
 2890 002c 1B68     		ldr	r3, [r3]
 2891 002e 22F40072 		bic	r2, r2, #512
 2892 0032 DA60     		str	r2, [r3, #12]
 990:Drivers/STM32F7xx_HAL_Driver/Src/stm32f7xx_hal_tim_ex.c ****       break;
 2893              		.loc 1 990 13
 2894 0034 7B68     		ldr	r3, [r7, #4]
 2895 0036 5B6A     		ldr	r3, [r3, #36]
 2896 0038 1846     		mov	r0, r3
 2897 003a FFF7FEFF 		bl	HAL_DMA_Abort_IT
 991:Drivers/STM32F7xx_HAL_Driver/Src/stm32f7xx_hal_tim_ex.c ****     }
 2898              		.loc 1 991 7
 2899 003e 1CE0     		b	.L181
 2900              	.L180:
 997:Drivers/STM32F7xx_HAL_Driver/Src/stm32f7xx_hal_tim_ex.c ****       (void)HAL_DMA_Abort_IT(htim->hdma[TIM_DMA_ID_CC2]);
 2901              		.loc 1 997 7
 2902 0040 7B68     		ldr	r3, [r7, #4]
 2903 0042 1B68     		ldr	r3, [r3]
 2904 0044 DA68     		ldr	r2, [r3, #12]
 2905 0046 7B68     		ldr	r3, [r7, #4]
 2906 0048 1B68     		ldr	r3, [r3]
 2907 004a 22F48062 		bic	r2, r2, #1024
 2908 004e DA60     		str	r2, [r3, #12]
 998:Drivers/STM32F7xx_HAL_Driver/Src/stm32f7xx_hal_tim_ex.c ****       break;
 2909              		.loc 1 998 13
 2910 0050 7B68     		ldr	r3, [r7, #4]
 2911 0052 9B6A     		ldr	r3, [r3, #40]
 2912 0054 1846     		mov	r0, r3
 2913 0056 FFF7FEFF 		bl	HAL_DMA_Abort_IT
 999:Drivers/STM32F7xx_HAL_Driver/Src/stm32f7xx_hal_tim_ex.c ****     }
 2914              		.loc 1 999 7
 2915 005a 0EE0     		b	.L181
 2916              	.L177:
1005:Drivers/STM32F7xx_HAL_Driver/Src/stm32f7xx_hal_tim_ex.c ****       (void)HAL_DMA_Abort_IT(htim->hdma[TIM_DMA_ID_CC3]);
 2917              		.loc 1 1005 7
 2918 005c 7B68     		ldr	r3, [r7, #4]
 2919 005e 1B68     		ldr	r3, [r3]
 2920 0060 DA68     		ldr	r2, [r3, #12]
 2921 0062 7B68     		ldr	r3, [r7, #4]
 2922 0064 1B68     		ldr	r3, [r3]
 2923 0066 22F40062 		bic	r2, r2, #2048
 2924 006a DA60     		str	r2, [r3, #12]
1006:Drivers/STM32F7xx_HAL_Driver/Src/stm32f7xx_hal_tim_ex.c ****       break;
 2925              		.loc 1 1006 13
 2926 006c 7B68     		ldr	r3, [r7, #4]
 2927 006e DB6A     		ldr	r3, [r3, #44]
 2928 0070 1846     		mov	r0, r3
 2929 0072 FFF7FEFF 		bl	HAL_DMA_Abort_IT
1007:Drivers/STM32F7xx_HAL_Driver/Src/stm32f7xx_hal_tim_ex.c ****     }
 2930              		.loc 1 1007 7
 2931 0076 00E0     		b	.L181
 2932              	.L191:
 2933              		.loc 1 1011 7
ARM GAS  /tmp/ccOFTjtU.s 			page 71


 2934 0078 00BF     		nop
 2935              	.L181:
1012:Drivers/STM32F7xx_HAL_Driver/Src/stm32f7xx_hal_tim_ex.c ****   }
1013:Drivers/STM32F7xx_HAL_Driver/Src/stm32f7xx_hal_tim_ex.c **** 
1014:Drivers/STM32F7xx_HAL_Driver/Src/stm32f7xx_hal_tim_ex.c ****   /* Disable the Capture compare channel N */
1015:Drivers/STM32F7xx_HAL_Driver/Src/stm32f7xx_hal_tim_ex.c ****   TIM_CCxNChannelCmd(htim->Instance, Channel, TIM_CCxN_DISABLE);
 2936              		.loc 1 1015 3
 2937 007a 7B68     		ldr	r3, [r7, #4]
 2938 007c 1B68     		ldr	r3, [r3]
 2939 007e 0022     		movs	r2, #0
 2940 0080 3968     		ldr	r1, [r7]
 2941 0082 1846     		mov	r0, r3
 2942 0084 FFF7FEFF 		bl	TIM_CCxNChannelCmd
1016:Drivers/STM32F7xx_HAL_Driver/Src/stm32f7xx_hal_tim_ex.c **** 
1017:Drivers/STM32F7xx_HAL_Driver/Src/stm32f7xx_hal_tim_ex.c ****   /* Disable the Main Output */
1018:Drivers/STM32F7xx_HAL_Driver/Src/stm32f7xx_hal_tim_ex.c ****   __HAL_TIM_MOE_DISABLE(htim);
 2943              		.loc 1 1018 3
 2944 0088 7B68     		ldr	r3, [r7, #4]
 2945 008a 1B68     		ldr	r3, [r3]
 2946 008c 1A6A     		ldr	r2, [r3, #32]
 2947 008e 41F21113 		movw	r3, #4369
 2948 0092 1340     		ands	r3, r3, r2
 2949 0094 002B     		cmp	r3, #0
 2950 0096 0FD1     		bne	.L182
 2951              		.loc 1 1018 3 is_stmt 0 discriminator 1
 2952 0098 7B68     		ldr	r3, [r7, #4]
 2953 009a 1B68     		ldr	r3, [r3]
 2954 009c 1A6A     		ldr	r2, [r3, #32]
 2955 009e 40F24443 		movw	r3, #1092
 2956 00a2 1340     		ands	r3, r3, r2
 2957 00a4 002B     		cmp	r3, #0
 2958 00a6 07D1     		bne	.L182
 2959              		.loc 1 1018 3 discriminator 2
 2960 00a8 7B68     		ldr	r3, [r7, #4]
 2961 00aa 1B68     		ldr	r3, [r3]
 2962 00ac 5A6C     		ldr	r2, [r3, #68]
 2963 00ae 7B68     		ldr	r3, [r7, #4]
 2964 00b0 1B68     		ldr	r3, [r3]
 2965 00b2 22F40042 		bic	r2, r2, #32768
 2966 00b6 5A64     		str	r2, [r3, #68]
 2967              	.L182:
1019:Drivers/STM32F7xx_HAL_Driver/Src/stm32f7xx_hal_tim_ex.c **** 
1020:Drivers/STM32F7xx_HAL_Driver/Src/stm32f7xx_hal_tim_ex.c ****   /* Disable the Peripheral */
1021:Drivers/STM32F7xx_HAL_Driver/Src/stm32f7xx_hal_tim_ex.c ****   __HAL_TIM_DISABLE(htim);
 2968              		.loc 1 1021 3 is_stmt 1
 2969 00b8 7B68     		ldr	r3, [r7, #4]
 2970 00ba 1B68     		ldr	r3, [r3]
 2971 00bc 1A6A     		ldr	r2, [r3, #32]
 2972 00be 41F21113 		movw	r3, #4369
 2973 00c2 1340     		ands	r3, r3, r2
 2974 00c4 002B     		cmp	r3, #0
 2975 00c6 0FD1     		bne	.L183
 2976              		.loc 1 1021 3 is_stmt 0 discriminator 1
 2977 00c8 7B68     		ldr	r3, [r7, #4]
 2978 00ca 1B68     		ldr	r3, [r3]
 2979 00cc 1A6A     		ldr	r2, [r3, #32]
 2980 00ce 40F24443 		movw	r3, #1092
ARM GAS  /tmp/ccOFTjtU.s 			page 72


 2981 00d2 1340     		ands	r3, r3, r2
 2982 00d4 002B     		cmp	r3, #0
 2983 00d6 07D1     		bne	.L183
 2984              		.loc 1 1021 3 discriminator 2
 2985 00d8 7B68     		ldr	r3, [r7, #4]
 2986 00da 1B68     		ldr	r3, [r3]
 2987 00dc 1A68     		ldr	r2, [r3]
 2988 00de 7B68     		ldr	r3, [r7, #4]
 2989 00e0 1B68     		ldr	r3, [r3]
 2990 00e2 22F00102 		bic	r2, r2, #1
 2991 00e6 1A60     		str	r2, [r3]
 2992              	.L183:
1022:Drivers/STM32F7xx_HAL_Driver/Src/stm32f7xx_hal_tim_ex.c **** 
1023:Drivers/STM32F7xx_HAL_Driver/Src/stm32f7xx_hal_tim_ex.c ****   /* Set the TIM complementary channel state */
1024:Drivers/STM32F7xx_HAL_Driver/Src/stm32f7xx_hal_tim_ex.c ****   TIM_CHANNEL_N_STATE_SET(htim, Channel, HAL_TIM_CHANNEL_STATE_READY);
 2993              		.loc 1 1024 3 is_stmt 1
 2994 00e8 3B68     		ldr	r3, [r7]
 2995 00ea 002B     		cmp	r3, #0
 2996 00ec 04D1     		bne	.L184
 2997              		.loc 1 1024 3 is_stmt 0 discriminator 1
 2998 00ee 7B68     		ldr	r3, [r7, #4]
 2999 00f0 0122     		movs	r2, #1
 3000 00f2 83F84420 		strb	r2, [r3, #68]
 3001 00f6 13E0     		b	.L185
 3002              	.L184:
 3003              		.loc 1 1024 3 discriminator 2
 3004 00f8 3B68     		ldr	r3, [r7]
 3005 00fa 042B     		cmp	r3, #4
 3006 00fc 04D1     		bne	.L186
 3007              		.loc 1 1024 3 discriminator 3
 3008 00fe 7B68     		ldr	r3, [r7, #4]
 3009 0100 0122     		movs	r2, #1
 3010 0102 83F84520 		strb	r2, [r3, #69]
 3011 0106 0BE0     		b	.L185
 3012              	.L186:
 3013              		.loc 1 1024 3 discriminator 4
 3014 0108 3B68     		ldr	r3, [r7]
 3015 010a 082B     		cmp	r3, #8
 3016 010c 04D1     		bne	.L188
 3017              		.loc 1 1024 3 discriminator 6
 3018 010e 7B68     		ldr	r3, [r7, #4]
 3019 0110 0122     		movs	r2, #1
 3020 0112 83F84620 		strb	r2, [r3, #70]
 3021 0116 03E0     		b	.L185
 3022              	.L188:
 3023              		.loc 1 1024 3 discriminator 7
 3024 0118 7B68     		ldr	r3, [r7, #4]
 3025 011a 0122     		movs	r2, #1
 3026 011c 83F84720 		strb	r2, [r3, #71]
 3027              	.L185:
1025:Drivers/STM32F7xx_HAL_Driver/Src/stm32f7xx_hal_tim_ex.c **** 
1026:Drivers/STM32F7xx_HAL_Driver/Src/stm32f7xx_hal_tim_ex.c ****   /* Return function status */
1027:Drivers/STM32F7xx_HAL_Driver/Src/stm32f7xx_hal_tim_ex.c ****   return HAL_OK;
 3028              		.loc 1 1027 10 is_stmt 1
 3029 0120 0023     		movs	r3, #0
1028:Drivers/STM32F7xx_HAL_Driver/Src/stm32f7xx_hal_tim_ex.c **** }
 3030              		.loc 1 1028 1
ARM GAS  /tmp/ccOFTjtU.s 			page 73


 3031 0122 1846     		mov	r0, r3
 3032 0124 0837     		adds	r7, r7, #8
 3033              	.LCFI80:
 3034              		.cfi_def_cfa_offset 8
 3035 0126 BD46     		mov	sp, r7
 3036              	.LCFI81:
 3037              		.cfi_def_cfa_register 13
 3038              		@ sp needed
 3039 0128 80BD     		pop	{r7, pc}
 3040              		.cfi_endproc
 3041              	.LFE156:
 3043              		.section	.text.HAL_TIMEx_PWMN_Start,"ax",%progbits
 3044              		.align	1
 3045              		.global	HAL_TIMEx_PWMN_Start
 3046              		.syntax unified
 3047              		.thumb
 3048              		.thumb_func
 3049              		.fpu fpv5-d16
 3051              	HAL_TIMEx_PWMN_Start:
 3052              	.LFB157:
1029:Drivers/STM32F7xx_HAL_Driver/Src/stm32f7xx_hal_tim_ex.c **** 
1030:Drivers/STM32F7xx_HAL_Driver/Src/stm32f7xx_hal_tim_ex.c **** /**
1031:Drivers/STM32F7xx_HAL_Driver/Src/stm32f7xx_hal_tim_ex.c ****   * @}
1032:Drivers/STM32F7xx_HAL_Driver/Src/stm32f7xx_hal_tim_ex.c ****   */
1033:Drivers/STM32F7xx_HAL_Driver/Src/stm32f7xx_hal_tim_ex.c **** 
1034:Drivers/STM32F7xx_HAL_Driver/Src/stm32f7xx_hal_tim_ex.c **** /** @defgroup TIMEx_Exported_Functions_Group3 Extended Timer Complementary PWM functions
1035:Drivers/STM32F7xx_HAL_Driver/Src/stm32f7xx_hal_tim_ex.c ****   * @brief    Timer Complementary PWM functions
1036:Drivers/STM32F7xx_HAL_Driver/Src/stm32f7xx_hal_tim_ex.c ****   *
1037:Drivers/STM32F7xx_HAL_Driver/Src/stm32f7xx_hal_tim_ex.c **** @verbatim
1038:Drivers/STM32F7xx_HAL_Driver/Src/stm32f7xx_hal_tim_ex.c ****   ==============================================================================
1039:Drivers/STM32F7xx_HAL_Driver/Src/stm32f7xx_hal_tim_ex.c ****                  ##### Timer Complementary PWM functions #####
1040:Drivers/STM32F7xx_HAL_Driver/Src/stm32f7xx_hal_tim_ex.c ****   ==============================================================================
1041:Drivers/STM32F7xx_HAL_Driver/Src/stm32f7xx_hal_tim_ex.c ****   [..]
1042:Drivers/STM32F7xx_HAL_Driver/Src/stm32f7xx_hal_tim_ex.c ****     This section provides functions allowing to:
1043:Drivers/STM32F7xx_HAL_Driver/Src/stm32f7xx_hal_tim_ex.c ****     (+) Start the Complementary PWM.
1044:Drivers/STM32F7xx_HAL_Driver/Src/stm32f7xx_hal_tim_ex.c ****     (+) Stop the Complementary PWM.
1045:Drivers/STM32F7xx_HAL_Driver/Src/stm32f7xx_hal_tim_ex.c ****     (+) Start the Complementary PWM and enable interrupts.
1046:Drivers/STM32F7xx_HAL_Driver/Src/stm32f7xx_hal_tim_ex.c ****     (+) Stop the Complementary PWM and disable interrupts.
1047:Drivers/STM32F7xx_HAL_Driver/Src/stm32f7xx_hal_tim_ex.c ****     (+) Start the Complementary PWM and enable DMA transfers.
1048:Drivers/STM32F7xx_HAL_Driver/Src/stm32f7xx_hal_tim_ex.c ****     (+) Stop the Complementary PWM and disable DMA transfers.
1049:Drivers/STM32F7xx_HAL_Driver/Src/stm32f7xx_hal_tim_ex.c ****     (+) Start the Complementary Input Capture measurement.
1050:Drivers/STM32F7xx_HAL_Driver/Src/stm32f7xx_hal_tim_ex.c ****     (+) Stop the Complementary Input Capture.
1051:Drivers/STM32F7xx_HAL_Driver/Src/stm32f7xx_hal_tim_ex.c ****     (+) Start the Complementary Input Capture and enable interrupts.
1052:Drivers/STM32F7xx_HAL_Driver/Src/stm32f7xx_hal_tim_ex.c ****     (+) Stop the Complementary Input Capture and disable interrupts.
1053:Drivers/STM32F7xx_HAL_Driver/Src/stm32f7xx_hal_tim_ex.c ****     (+) Start the Complementary Input Capture and enable DMA transfers.
1054:Drivers/STM32F7xx_HAL_Driver/Src/stm32f7xx_hal_tim_ex.c ****     (+) Stop the Complementary Input Capture and disable DMA transfers.
1055:Drivers/STM32F7xx_HAL_Driver/Src/stm32f7xx_hal_tim_ex.c ****     (+) Start the Complementary One Pulse generation.
1056:Drivers/STM32F7xx_HAL_Driver/Src/stm32f7xx_hal_tim_ex.c ****     (+) Stop the Complementary One Pulse.
1057:Drivers/STM32F7xx_HAL_Driver/Src/stm32f7xx_hal_tim_ex.c ****     (+) Start the Complementary One Pulse and enable interrupts.
1058:Drivers/STM32F7xx_HAL_Driver/Src/stm32f7xx_hal_tim_ex.c ****     (+) Stop the Complementary One Pulse and disable interrupts.
1059:Drivers/STM32F7xx_HAL_Driver/Src/stm32f7xx_hal_tim_ex.c **** 
1060:Drivers/STM32F7xx_HAL_Driver/Src/stm32f7xx_hal_tim_ex.c **** @endverbatim
1061:Drivers/STM32F7xx_HAL_Driver/Src/stm32f7xx_hal_tim_ex.c ****   * @{
1062:Drivers/STM32F7xx_HAL_Driver/Src/stm32f7xx_hal_tim_ex.c ****   */
1063:Drivers/STM32F7xx_HAL_Driver/Src/stm32f7xx_hal_tim_ex.c **** 
1064:Drivers/STM32F7xx_HAL_Driver/Src/stm32f7xx_hal_tim_ex.c **** /**
1065:Drivers/STM32F7xx_HAL_Driver/Src/stm32f7xx_hal_tim_ex.c ****   * @brief  Starts the PWM signal generation on the complementary output.
ARM GAS  /tmp/ccOFTjtU.s 			page 74


1066:Drivers/STM32F7xx_HAL_Driver/Src/stm32f7xx_hal_tim_ex.c ****   * @param  htim TIM handle
1067:Drivers/STM32F7xx_HAL_Driver/Src/stm32f7xx_hal_tim_ex.c ****   * @param  Channel TIM Channel to be enabled
1068:Drivers/STM32F7xx_HAL_Driver/Src/stm32f7xx_hal_tim_ex.c ****   *          This parameter can be one of the following values:
1069:Drivers/STM32F7xx_HAL_Driver/Src/stm32f7xx_hal_tim_ex.c ****   *            @arg TIM_CHANNEL_1: TIM Channel 1 selected
1070:Drivers/STM32F7xx_HAL_Driver/Src/stm32f7xx_hal_tim_ex.c ****   *            @arg TIM_CHANNEL_2: TIM Channel 2 selected
1071:Drivers/STM32F7xx_HAL_Driver/Src/stm32f7xx_hal_tim_ex.c ****   *            @arg TIM_CHANNEL_3: TIM Channel 3 selected
1072:Drivers/STM32F7xx_HAL_Driver/Src/stm32f7xx_hal_tim_ex.c ****   * @retval HAL status
1073:Drivers/STM32F7xx_HAL_Driver/Src/stm32f7xx_hal_tim_ex.c ****   */
1074:Drivers/STM32F7xx_HAL_Driver/Src/stm32f7xx_hal_tim_ex.c **** HAL_StatusTypeDef HAL_TIMEx_PWMN_Start(TIM_HandleTypeDef *htim, uint32_t Channel)
1075:Drivers/STM32F7xx_HAL_Driver/Src/stm32f7xx_hal_tim_ex.c **** {
 3053              		.loc 1 1075 1
 3054              		.cfi_startproc
 3055              		@ args = 0, pretend = 0, frame = 16
 3056              		@ frame_needed = 1, uses_anonymous_args = 0
 3057 0000 80B5     		push	{r7, lr}
 3058              	.LCFI82:
 3059              		.cfi_def_cfa_offset 8
 3060              		.cfi_offset 7, -8
 3061              		.cfi_offset 14, -4
 3062 0002 84B0     		sub	sp, sp, #16
 3063              	.LCFI83:
 3064              		.cfi_def_cfa_offset 24
 3065 0004 00AF     		add	r7, sp, #0
 3066              	.LCFI84:
 3067              		.cfi_def_cfa_register 7
 3068 0006 7860     		str	r0, [r7, #4]
 3069 0008 3960     		str	r1, [r7]
1076:Drivers/STM32F7xx_HAL_Driver/Src/stm32f7xx_hal_tim_ex.c ****   uint32_t tmpsmcr;
1077:Drivers/STM32F7xx_HAL_Driver/Src/stm32f7xx_hal_tim_ex.c **** 
1078:Drivers/STM32F7xx_HAL_Driver/Src/stm32f7xx_hal_tim_ex.c ****   /* Check the parameters */
1079:Drivers/STM32F7xx_HAL_Driver/Src/stm32f7xx_hal_tim_ex.c ****   assert_param(IS_TIM_CCXN_INSTANCE(htim->Instance, Channel));
1080:Drivers/STM32F7xx_HAL_Driver/Src/stm32f7xx_hal_tim_ex.c **** 
1081:Drivers/STM32F7xx_HAL_Driver/Src/stm32f7xx_hal_tim_ex.c ****   /* Check the TIM complementary channel state */
1082:Drivers/STM32F7xx_HAL_Driver/Src/stm32f7xx_hal_tim_ex.c ****   if (TIM_CHANNEL_N_STATE_GET(htim, Channel) != HAL_TIM_CHANNEL_STATE_READY)
 3070              		.loc 1 1082 46
 3071 000a 3B68     		ldr	r3, [r7]
 3072 000c 002B     		cmp	r3, #0
 3073 000e 09D1     		bne	.L193
 3074              		.loc 1 1082 7 discriminator 1
 3075 0010 7B68     		ldr	r3, [r7, #4]
 3076 0012 93F84430 		ldrb	r3, [r3, #68]
 3077 0016 DBB2     		uxtb	r3, r3
 3078              		.loc 1 1082 46 discriminator 1
 3079 0018 012B     		cmp	r3, #1
 3080 001a 14BF     		ite	ne
 3081 001c 0123     		movne	r3, #1
 3082 001e 0023     		moveq	r3, #0
 3083 0020 DBB2     		uxtb	r3, r3
 3084 0022 22E0     		b	.L194
 3085              	.L193:
 3086              		.loc 1 1082 46 is_stmt 0 discriminator 2
 3087 0024 3B68     		ldr	r3, [r7]
 3088 0026 042B     		cmp	r3, #4
 3089 0028 09D1     		bne	.L195
 3090              		.loc 1 1082 7 is_stmt 1 discriminator 4
 3091 002a 7B68     		ldr	r3, [r7, #4]
 3092 002c 93F84530 		ldrb	r3, [r3, #69]
ARM GAS  /tmp/ccOFTjtU.s 			page 75


 3093 0030 DBB2     		uxtb	r3, r3
 3094              		.loc 1 1082 46 discriminator 4
 3095 0032 012B     		cmp	r3, #1
 3096 0034 14BF     		ite	ne
 3097 0036 0123     		movne	r3, #1
 3098 0038 0023     		moveq	r3, #0
 3099 003a DBB2     		uxtb	r3, r3
 3100 003c 15E0     		b	.L194
 3101              	.L195:
 3102              		.loc 1 1082 46 is_stmt 0 discriminator 5
 3103 003e 3B68     		ldr	r3, [r7]
 3104 0040 082B     		cmp	r3, #8
 3105 0042 09D1     		bne	.L197
 3106              		.loc 1 1082 7 is_stmt 1 discriminator 7
 3107 0044 7B68     		ldr	r3, [r7, #4]
 3108 0046 93F84630 		ldrb	r3, [r3, #70]
 3109 004a DBB2     		uxtb	r3, r3
 3110              		.loc 1 1082 46 discriminator 7
 3111 004c 012B     		cmp	r3, #1
 3112 004e 14BF     		ite	ne
 3113 0050 0123     		movne	r3, #1
 3114 0052 0023     		moveq	r3, #0
 3115 0054 DBB2     		uxtb	r3, r3
 3116 0056 08E0     		b	.L194
 3117              	.L197:
 3118              		.loc 1 1082 7 discriminator 8
 3119 0058 7B68     		ldr	r3, [r7, #4]
 3120 005a 93F84730 		ldrb	r3, [r3, #71]
 3121 005e DBB2     		uxtb	r3, r3
 3122              		.loc 1 1082 46 discriminator 8
 3123 0060 012B     		cmp	r3, #1
 3124 0062 14BF     		ite	ne
 3125 0064 0123     		movne	r3, #1
 3126 0066 0023     		moveq	r3, #0
 3127 0068 DBB2     		uxtb	r3, r3
 3128              	.L194:
 3129              		.loc 1 1082 6 discriminator 12
 3130 006a 002B     		cmp	r3, #0
 3131 006c 01D0     		beq	.L199
1083:Drivers/STM32F7xx_HAL_Driver/Src/stm32f7xx_hal_tim_ex.c ****   {
1084:Drivers/STM32F7xx_HAL_Driver/Src/stm32f7xx_hal_tim_ex.c ****     return HAL_ERROR;
 3132              		.loc 1 1084 12
 3133 006e 0123     		movs	r3, #1
 3134 0070 73E0     		b	.L200
 3135              	.L199:
1085:Drivers/STM32F7xx_HAL_Driver/Src/stm32f7xx_hal_tim_ex.c ****   }
1086:Drivers/STM32F7xx_HAL_Driver/Src/stm32f7xx_hal_tim_ex.c **** 
1087:Drivers/STM32F7xx_HAL_Driver/Src/stm32f7xx_hal_tim_ex.c ****   /* Set the TIM complementary channel state */
1088:Drivers/STM32F7xx_HAL_Driver/Src/stm32f7xx_hal_tim_ex.c ****   TIM_CHANNEL_N_STATE_SET(htim, Channel, HAL_TIM_CHANNEL_STATE_BUSY);
 3136              		.loc 1 1088 3
 3137 0072 3B68     		ldr	r3, [r7]
 3138 0074 002B     		cmp	r3, #0
 3139 0076 04D1     		bne	.L201
 3140              		.loc 1 1088 3 is_stmt 0 discriminator 1
 3141 0078 7B68     		ldr	r3, [r7, #4]
 3142 007a 0222     		movs	r2, #2
 3143 007c 83F84420 		strb	r2, [r3, #68]
ARM GAS  /tmp/ccOFTjtU.s 			page 76


 3144 0080 13E0     		b	.L202
 3145              	.L201:
 3146              		.loc 1 1088 3 discriminator 2
 3147 0082 3B68     		ldr	r3, [r7]
 3148 0084 042B     		cmp	r3, #4
 3149 0086 04D1     		bne	.L203
 3150              		.loc 1 1088 3 discriminator 3
 3151 0088 7B68     		ldr	r3, [r7, #4]
 3152 008a 0222     		movs	r2, #2
 3153 008c 83F84520 		strb	r2, [r3, #69]
 3154 0090 0BE0     		b	.L202
 3155              	.L203:
 3156              		.loc 1 1088 3 discriminator 4
 3157 0092 3B68     		ldr	r3, [r7]
 3158 0094 082B     		cmp	r3, #8
 3159 0096 04D1     		bne	.L205
 3160              		.loc 1 1088 3 discriminator 6
 3161 0098 7B68     		ldr	r3, [r7, #4]
 3162 009a 0222     		movs	r2, #2
 3163 009c 83F84620 		strb	r2, [r3, #70]
 3164 00a0 03E0     		b	.L202
 3165              	.L205:
 3166              		.loc 1 1088 3 discriminator 7
 3167 00a2 7B68     		ldr	r3, [r7, #4]
 3168 00a4 0222     		movs	r2, #2
 3169 00a6 83F84720 		strb	r2, [r3, #71]
 3170              	.L202:
1089:Drivers/STM32F7xx_HAL_Driver/Src/stm32f7xx_hal_tim_ex.c **** 
1090:Drivers/STM32F7xx_HAL_Driver/Src/stm32f7xx_hal_tim_ex.c ****   /* Enable the complementary PWM output  */
1091:Drivers/STM32F7xx_HAL_Driver/Src/stm32f7xx_hal_tim_ex.c ****   TIM_CCxNChannelCmd(htim->Instance, Channel, TIM_CCxN_ENABLE);
 3171              		.loc 1 1091 3 is_stmt 1
 3172 00aa 7B68     		ldr	r3, [r7, #4]
 3173 00ac 1B68     		ldr	r3, [r3]
 3174 00ae 0422     		movs	r2, #4
 3175 00b0 3968     		ldr	r1, [r7]
 3176 00b2 1846     		mov	r0, r3
 3177 00b4 FFF7FEFF 		bl	TIM_CCxNChannelCmd
1092:Drivers/STM32F7xx_HAL_Driver/Src/stm32f7xx_hal_tim_ex.c **** 
1093:Drivers/STM32F7xx_HAL_Driver/Src/stm32f7xx_hal_tim_ex.c ****   /* Enable the Main Output */
1094:Drivers/STM32F7xx_HAL_Driver/Src/stm32f7xx_hal_tim_ex.c ****   __HAL_TIM_MOE_ENABLE(htim);
 3178              		.loc 1 1094 3
 3179 00b8 7B68     		ldr	r3, [r7, #4]
 3180 00ba 1B68     		ldr	r3, [r3]
 3181 00bc 5A6C     		ldr	r2, [r3, #68]
 3182 00be 7B68     		ldr	r3, [r7, #4]
 3183 00c0 1B68     		ldr	r3, [r3]
 3184 00c2 42F40042 		orr	r2, r2, #32768
 3185 00c6 5A64     		str	r2, [r3, #68]
1095:Drivers/STM32F7xx_HAL_Driver/Src/stm32f7xx_hal_tim_ex.c **** 
1096:Drivers/STM32F7xx_HAL_Driver/Src/stm32f7xx_hal_tim_ex.c ****   /* Enable the Peripheral, except in trigger mode where enable is automatically done with trigger 
1097:Drivers/STM32F7xx_HAL_Driver/Src/stm32f7xx_hal_tim_ex.c ****   if (IS_TIM_SLAVE_INSTANCE(htim->Instance))
 3186              		.loc 1 1097 7
 3187 00c8 7B68     		ldr	r3, [r7, #4]
 3188 00ca 1B68     		ldr	r3, [r3]
 3189              		.loc 1 1097 6
 3190 00cc 254A     		ldr	r2, .L212
 3191 00ce 9342     		cmp	r3, r2
ARM GAS  /tmp/ccOFTjtU.s 			page 77


 3192 00d0 22D0     		beq	.L207
 3193              		.loc 1 1097 7 discriminator 1
 3194 00d2 7B68     		ldr	r3, [r7, #4]
 3195 00d4 1B68     		ldr	r3, [r3]
 3196 00d6 B3F1804F 		cmp	r3, #1073741824
 3197 00da 1DD0     		beq	.L207
 3198              		.loc 1 1097 7 is_stmt 0 discriminator 2
 3199 00dc 7B68     		ldr	r3, [r7, #4]
 3200 00de 1B68     		ldr	r3, [r3]
 3201 00e0 214A     		ldr	r2, .L212+4
 3202 00e2 9342     		cmp	r3, r2
 3203 00e4 18D0     		beq	.L207
 3204              		.loc 1 1097 7 discriminator 3
 3205 00e6 7B68     		ldr	r3, [r7, #4]
 3206 00e8 1B68     		ldr	r3, [r3]
 3207 00ea 204A     		ldr	r2, .L212+8
 3208 00ec 9342     		cmp	r3, r2
 3209 00ee 13D0     		beq	.L207
 3210              		.loc 1 1097 7 discriminator 4
 3211 00f0 7B68     		ldr	r3, [r7, #4]
 3212 00f2 1B68     		ldr	r3, [r3]
 3213 00f4 1E4A     		ldr	r2, .L212+12
 3214 00f6 9342     		cmp	r3, r2
 3215 00f8 0ED0     		beq	.L207
 3216              		.loc 1 1097 7 discriminator 5
 3217 00fa 7B68     		ldr	r3, [r7, #4]
 3218 00fc 1B68     		ldr	r3, [r3]
 3219 00fe 1D4A     		ldr	r2, .L212+16
 3220 0100 9342     		cmp	r3, r2
 3221 0102 09D0     		beq	.L207
 3222              		.loc 1 1097 7 discriminator 6
 3223 0104 7B68     		ldr	r3, [r7, #4]
 3224 0106 1B68     		ldr	r3, [r3]
 3225 0108 1B4A     		ldr	r2, .L212+20
 3226 010a 9342     		cmp	r3, r2
 3227 010c 04D0     		beq	.L207
 3228              		.loc 1 1097 7 discriminator 7
 3229 010e 7B68     		ldr	r3, [r7, #4]
 3230 0110 1B68     		ldr	r3, [r3]
 3231 0112 1A4A     		ldr	r2, .L212+24
 3232 0114 9342     		cmp	r3, r2
 3233 0116 15D1     		bne	.L208
 3234              	.L207:
1098:Drivers/STM32F7xx_HAL_Driver/Src/stm32f7xx_hal_tim_ex.c ****   {
1099:Drivers/STM32F7xx_HAL_Driver/Src/stm32f7xx_hal_tim_ex.c ****     tmpsmcr = htim->Instance->SMCR & TIM_SMCR_SMS;
 3235              		.loc 1 1099 19 is_stmt 1
 3236 0118 7B68     		ldr	r3, [r7, #4]
 3237 011a 1B68     		ldr	r3, [r3]
 3238              		.loc 1 1099 29
 3239 011c 9A68     		ldr	r2, [r3, #8]
 3240              		.loc 1 1099 13
 3241 011e 184B     		ldr	r3, .L212+28
 3242 0120 1340     		ands	r3, r3, r2
 3243 0122 FB60     		str	r3, [r7, #12]
1100:Drivers/STM32F7xx_HAL_Driver/Src/stm32f7xx_hal_tim_ex.c ****     if (!IS_TIM_SLAVEMODE_TRIGGER_ENABLED(tmpsmcr))
 3244              		.loc 1 1100 8
 3245 0124 FB68     		ldr	r3, [r7, #12]
ARM GAS  /tmp/ccOFTjtU.s 			page 78


 3246 0126 062B     		cmp	r3, #6
 3247 0128 15D0     		beq	.L211
 3248              		.loc 1 1100 9 discriminator 1
 3249 012a FB68     		ldr	r3, [r7, #12]
 3250 012c B3F5803F 		cmp	r3, #65536
 3251 0130 11D0     		beq	.L211
1101:Drivers/STM32F7xx_HAL_Driver/Src/stm32f7xx_hal_tim_ex.c ****     {
1102:Drivers/STM32F7xx_HAL_Driver/Src/stm32f7xx_hal_tim_ex.c ****       __HAL_TIM_ENABLE(htim);
 3252              		.loc 1 1102 7
 3253 0132 7B68     		ldr	r3, [r7, #4]
 3254 0134 1B68     		ldr	r3, [r3]
 3255 0136 1A68     		ldr	r2, [r3]
 3256 0138 7B68     		ldr	r3, [r7, #4]
 3257 013a 1B68     		ldr	r3, [r3]
 3258 013c 42F00102 		orr	r2, r2, #1
 3259 0140 1A60     		str	r2, [r3]
1100:Drivers/STM32F7xx_HAL_Driver/Src/stm32f7xx_hal_tim_ex.c ****     if (!IS_TIM_SLAVEMODE_TRIGGER_ENABLED(tmpsmcr))
 3260              		.loc 1 1100 8
 3261 0142 08E0     		b	.L211
 3262              	.L208:
1103:Drivers/STM32F7xx_HAL_Driver/Src/stm32f7xx_hal_tim_ex.c ****     }
1104:Drivers/STM32F7xx_HAL_Driver/Src/stm32f7xx_hal_tim_ex.c ****   }
1105:Drivers/STM32F7xx_HAL_Driver/Src/stm32f7xx_hal_tim_ex.c ****   else
1106:Drivers/STM32F7xx_HAL_Driver/Src/stm32f7xx_hal_tim_ex.c ****   {
1107:Drivers/STM32F7xx_HAL_Driver/Src/stm32f7xx_hal_tim_ex.c ****     __HAL_TIM_ENABLE(htim);
 3263              		.loc 1 1107 5
 3264 0144 7B68     		ldr	r3, [r7, #4]
 3265 0146 1B68     		ldr	r3, [r3]
 3266 0148 1A68     		ldr	r2, [r3]
 3267 014a 7B68     		ldr	r3, [r7, #4]
 3268 014c 1B68     		ldr	r3, [r3]
 3269 014e 42F00102 		orr	r2, r2, #1
 3270 0152 1A60     		str	r2, [r3]
 3271 0154 00E0     		b	.L210
 3272              	.L211:
1100:Drivers/STM32F7xx_HAL_Driver/Src/stm32f7xx_hal_tim_ex.c ****     {
 3273              		.loc 1 1100 8
 3274 0156 00BF     		nop
 3275              	.L210:
1108:Drivers/STM32F7xx_HAL_Driver/Src/stm32f7xx_hal_tim_ex.c ****   }
1109:Drivers/STM32F7xx_HAL_Driver/Src/stm32f7xx_hal_tim_ex.c **** 
1110:Drivers/STM32F7xx_HAL_Driver/Src/stm32f7xx_hal_tim_ex.c ****   /* Return function status */
1111:Drivers/STM32F7xx_HAL_Driver/Src/stm32f7xx_hal_tim_ex.c ****   return HAL_OK;
 3276              		.loc 1 1111 10
 3277 0158 0023     		movs	r3, #0
 3278              	.L200:
1112:Drivers/STM32F7xx_HAL_Driver/Src/stm32f7xx_hal_tim_ex.c **** }
 3279              		.loc 1 1112 1
 3280 015a 1846     		mov	r0, r3
 3281 015c 1037     		adds	r7, r7, #16
 3282              	.LCFI85:
 3283              		.cfi_def_cfa_offset 8
 3284 015e BD46     		mov	sp, r7
 3285              	.LCFI86:
 3286              		.cfi_def_cfa_register 13
 3287              		@ sp needed
 3288 0160 80BD     		pop	{r7, pc}
ARM GAS  /tmp/ccOFTjtU.s 			page 79


 3289              	.L213:
 3290 0162 00BF     		.align	2
 3291              	.L212:
 3292 0164 00000140 		.word	1073807360
 3293 0168 00040040 		.word	1073742848
 3294 016c 00080040 		.word	1073743872
 3295 0170 000C0040 		.word	1073744896
 3296 0174 00040140 		.word	1073808384
 3297 0178 00400140 		.word	1073823744
 3298 017c 00180040 		.word	1073747968
 3299 0180 07000100 		.word	65543
 3300              		.cfi_endproc
 3301              	.LFE157:
 3303              		.section	.text.HAL_TIMEx_PWMN_Stop,"ax",%progbits
 3304              		.align	1
 3305              		.global	HAL_TIMEx_PWMN_Stop
 3306              		.syntax unified
 3307              		.thumb
 3308              		.thumb_func
 3309              		.fpu fpv5-d16
 3311              	HAL_TIMEx_PWMN_Stop:
 3312              	.LFB158:
1113:Drivers/STM32F7xx_HAL_Driver/Src/stm32f7xx_hal_tim_ex.c **** 
1114:Drivers/STM32F7xx_HAL_Driver/Src/stm32f7xx_hal_tim_ex.c **** /**
1115:Drivers/STM32F7xx_HAL_Driver/Src/stm32f7xx_hal_tim_ex.c ****   * @brief  Stops the PWM signal generation on the complementary output.
1116:Drivers/STM32F7xx_HAL_Driver/Src/stm32f7xx_hal_tim_ex.c ****   * @param  htim TIM handle
1117:Drivers/STM32F7xx_HAL_Driver/Src/stm32f7xx_hal_tim_ex.c ****   * @param  Channel TIM Channel to be disabled
1118:Drivers/STM32F7xx_HAL_Driver/Src/stm32f7xx_hal_tim_ex.c ****   *          This parameter can be one of the following values:
1119:Drivers/STM32F7xx_HAL_Driver/Src/stm32f7xx_hal_tim_ex.c ****   *            @arg TIM_CHANNEL_1: TIM Channel 1 selected
1120:Drivers/STM32F7xx_HAL_Driver/Src/stm32f7xx_hal_tim_ex.c ****   *            @arg TIM_CHANNEL_2: TIM Channel 2 selected
1121:Drivers/STM32F7xx_HAL_Driver/Src/stm32f7xx_hal_tim_ex.c ****   *            @arg TIM_CHANNEL_3: TIM Channel 3 selected
1122:Drivers/STM32F7xx_HAL_Driver/Src/stm32f7xx_hal_tim_ex.c ****   * @retval HAL status
1123:Drivers/STM32F7xx_HAL_Driver/Src/stm32f7xx_hal_tim_ex.c ****   */
1124:Drivers/STM32F7xx_HAL_Driver/Src/stm32f7xx_hal_tim_ex.c **** HAL_StatusTypeDef HAL_TIMEx_PWMN_Stop(TIM_HandleTypeDef *htim, uint32_t Channel)
1125:Drivers/STM32F7xx_HAL_Driver/Src/stm32f7xx_hal_tim_ex.c **** {
 3313              		.loc 1 1125 1
 3314              		.cfi_startproc
 3315              		@ args = 0, pretend = 0, frame = 8
 3316              		@ frame_needed = 1, uses_anonymous_args = 0
 3317 0000 80B5     		push	{r7, lr}
 3318              	.LCFI87:
 3319              		.cfi_def_cfa_offset 8
 3320              		.cfi_offset 7, -8
 3321              		.cfi_offset 14, -4
 3322 0002 82B0     		sub	sp, sp, #8
 3323              	.LCFI88:
 3324              		.cfi_def_cfa_offset 16
 3325 0004 00AF     		add	r7, sp, #0
 3326              	.LCFI89:
 3327              		.cfi_def_cfa_register 7
 3328 0006 7860     		str	r0, [r7, #4]
 3329 0008 3960     		str	r1, [r7]
1126:Drivers/STM32F7xx_HAL_Driver/Src/stm32f7xx_hal_tim_ex.c ****   /* Check the parameters */
1127:Drivers/STM32F7xx_HAL_Driver/Src/stm32f7xx_hal_tim_ex.c ****   assert_param(IS_TIM_CCXN_INSTANCE(htim->Instance, Channel));
1128:Drivers/STM32F7xx_HAL_Driver/Src/stm32f7xx_hal_tim_ex.c **** 
1129:Drivers/STM32F7xx_HAL_Driver/Src/stm32f7xx_hal_tim_ex.c ****   /* Disable the complementary PWM output  */
1130:Drivers/STM32F7xx_HAL_Driver/Src/stm32f7xx_hal_tim_ex.c ****   TIM_CCxNChannelCmd(htim->Instance, Channel, TIM_CCxN_DISABLE);
ARM GAS  /tmp/ccOFTjtU.s 			page 80


 3330              		.loc 1 1130 3
 3331 000a 7B68     		ldr	r3, [r7, #4]
 3332 000c 1B68     		ldr	r3, [r3]
 3333 000e 0022     		movs	r2, #0
 3334 0010 3968     		ldr	r1, [r7]
 3335 0012 1846     		mov	r0, r3
 3336 0014 FFF7FEFF 		bl	TIM_CCxNChannelCmd
1131:Drivers/STM32F7xx_HAL_Driver/Src/stm32f7xx_hal_tim_ex.c **** 
1132:Drivers/STM32F7xx_HAL_Driver/Src/stm32f7xx_hal_tim_ex.c ****   /* Disable the Main Output */
1133:Drivers/STM32F7xx_HAL_Driver/Src/stm32f7xx_hal_tim_ex.c ****   __HAL_TIM_MOE_DISABLE(htim);
 3337              		.loc 1 1133 3
 3338 0018 7B68     		ldr	r3, [r7, #4]
 3339 001a 1B68     		ldr	r3, [r3]
 3340 001c 1A6A     		ldr	r2, [r3, #32]
 3341 001e 41F21113 		movw	r3, #4369
 3342 0022 1340     		ands	r3, r3, r2
 3343 0024 002B     		cmp	r3, #0
 3344 0026 0FD1     		bne	.L215
 3345              		.loc 1 1133 3 is_stmt 0 discriminator 1
 3346 0028 7B68     		ldr	r3, [r7, #4]
 3347 002a 1B68     		ldr	r3, [r3]
 3348 002c 1A6A     		ldr	r2, [r3, #32]
 3349 002e 40F24443 		movw	r3, #1092
 3350 0032 1340     		ands	r3, r3, r2
 3351 0034 002B     		cmp	r3, #0
 3352 0036 07D1     		bne	.L215
 3353              		.loc 1 1133 3 discriminator 2
 3354 0038 7B68     		ldr	r3, [r7, #4]
 3355 003a 1B68     		ldr	r3, [r3]
 3356 003c 5A6C     		ldr	r2, [r3, #68]
 3357 003e 7B68     		ldr	r3, [r7, #4]
 3358 0040 1B68     		ldr	r3, [r3]
 3359 0042 22F40042 		bic	r2, r2, #32768
 3360 0046 5A64     		str	r2, [r3, #68]
 3361              	.L215:
1134:Drivers/STM32F7xx_HAL_Driver/Src/stm32f7xx_hal_tim_ex.c **** 
1135:Drivers/STM32F7xx_HAL_Driver/Src/stm32f7xx_hal_tim_ex.c ****   /* Disable the Peripheral */
1136:Drivers/STM32F7xx_HAL_Driver/Src/stm32f7xx_hal_tim_ex.c ****   __HAL_TIM_DISABLE(htim);
 3362              		.loc 1 1136 3 is_stmt 1
 3363 0048 7B68     		ldr	r3, [r7, #4]
 3364 004a 1B68     		ldr	r3, [r3]
 3365 004c 1A6A     		ldr	r2, [r3, #32]
 3366 004e 41F21113 		movw	r3, #4369
 3367 0052 1340     		ands	r3, r3, r2
 3368 0054 002B     		cmp	r3, #0
 3369 0056 0FD1     		bne	.L216
 3370              		.loc 1 1136 3 is_stmt 0 discriminator 1
 3371 0058 7B68     		ldr	r3, [r7, #4]
 3372 005a 1B68     		ldr	r3, [r3]
 3373 005c 1A6A     		ldr	r2, [r3, #32]
 3374 005e 40F24443 		movw	r3, #1092
 3375 0062 1340     		ands	r3, r3, r2
 3376 0064 002B     		cmp	r3, #0
 3377 0066 07D1     		bne	.L216
 3378              		.loc 1 1136 3 discriminator 2
 3379 0068 7B68     		ldr	r3, [r7, #4]
 3380 006a 1B68     		ldr	r3, [r3]
ARM GAS  /tmp/ccOFTjtU.s 			page 81


 3381 006c 1A68     		ldr	r2, [r3]
 3382 006e 7B68     		ldr	r3, [r7, #4]
 3383 0070 1B68     		ldr	r3, [r3]
 3384 0072 22F00102 		bic	r2, r2, #1
 3385 0076 1A60     		str	r2, [r3]
 3386              	.L216:
1137:Drivers/STM32F7xx_HAL_Driver/Src/stm32f7xx_hal_tim_ex.c **** 
1138:Drivers/STM32F7xx_HAL_Driver/Src/stm32f7xx_hal_tim_ex.c ****   /* Set the TIM complementary channel state */
1139:Drivers/STM32F7xx_HAL_Driver/Src/stm32f7xx_hal_tim_ex.c ****   TIM_CHANNEL_N_STATE_SET(htim, Channel, HAL_TIM_CHANNEL_STATE_READY);
 3387              		.loc 1 1139 3 is_stmt 1
 3388 0078 3B68     		ldr	r3, [r7]
 3389 007a 002B     		cmp	r3, #0
 3390 007c 04D1     		bne	.L217
 3391              		.loc 1 1139 3 is_stmt 0 discriminator 1
 3392 007e 7B68     		ldr	r3, [r7, #4]
 3393 0080 0122     		movs	r2, #1
 3394 0082 83F84420 		strb	r2, [r3, #68]
 3395 0086 13E0     		b	.L218
 3396              	.L217:
 3397              		.loc 1 1139 3 discriminator 2
 3398 0088 3B68     		ldr	r3, [r7]
 3399 008a 042B     		cmp	r3, #4
 3400 008c 04D1     		bne	.L219
 3401              		.loc 1 1139 3 discriminator 3
 3402 008e 7B68     		ldr	r3, [r7, #4]
 3403 0090 0122     		movs	r2, #1
 3404 0092 83F84520 		strb	r2, [r3, #69]
 3405 0096 0BE0     		b	.L218
 3406              	.L219:
 3407              		.loc 1 1139 3 discriminator 4
 3408 0098 3B68     		ldr	r3, [r7]
 3409 009a 082B     		cmp	r3, #8
 3410 009c 04D1     		bne	.L221
 3411              		.loc 1 1139 3 discriminator 6
 3412 009e 7B68     		ldr	r3, [r7, #4]
 3413 00a0 0122     		movs	r2, #1
 3414 00a2 83F84620 		strb	r2, [r3, #70]
 3415 00a6 03E0     		b	.L218
 3416              	.L221:
 3417              		.loc 1 1139 3 discriminator 7
 3418 00a8 7B68     		ldr	r3, [r7, #4]
 3419 00aa 0122     		movs	r2, #1
 3420 00ac 83F84720 		strb	r2, [r3, #71]
 3421              	.L218:
1140:Drivers/STM32F7xx_HAL_Driver/Src/stm32f7xx_hal_tim_ex.c **** 
1141:Drivers/STM32F7xx_HAL_Driver/Src/stm32f7xx_hal_tim_ex.c ****   /* Return function status */
1142:Drivers/STM32F7xx_HAL_Driver/Src/stm32f7xx_hal_tim_ex.c ****   return HAL_OK;
 3422              		.loc 1 1142 10 is_stmt 1
 3423 00b0 0023     		movs	r3, #0
1143:Drivers/STM32F7xx_HAL_Driver/Src/stm32f7xx_hal_tim_ex.c **** }
 3424              		.loc 1 1143 1
 3425 00b2 1846     		mov	r0, r3
 3426 00b4 0837     		adds	r7, r7, #8
 3427              	.LCFI90:
 3428              		.cfi_def_cfa_offset 8
 3429 00b6 BD46     		mov	sp, r7
 3430              	.LCFI91:
ARM GAS  /tmp/ccOFTjtU.s 			page 82


 3431              		.cfi_def_cfa_register 13
 3432              		@ sp needed
 3433 00b8 80BD     		pop	{r7, pc}
 3434              		.cfi_endproc
 3435              	.LFE158:
 3437              		.section	.text.HAL_TIMEx_PWMN_Start_IT,"ax",%progbits
 3438              		.align	1
 3439              		.global	HAL_TIMEx_PWMN_Start_IT
 3440              		.syntax unified
 3441              		.thumb
 3442              		.thumb_func
 3443              		.fpu fpv5-d16
 3445              	HAL_TIMEx_PWMN_Start_IT:
 3446              	.LFB159:
1144:Drivers/STM32F7xx_HAL_Driver/Src/stm32f7xx_hal_tim_ex.c **** 
1145:Drivers/STM32F7xx_HAL_Driver/Src/stm32f7xx_hal_tim_ex.c **** /**
1146:Drivers/STM32F7xx_HAL_Driver/Src/stm32f7xx_hal_tim_ex.c ****   * @brief  Starts the PWM signal generation in interrupt mode on the
1147:Drivers/STM32F7xx_HAL_Driver/Src/stm32f7xx_hal_tim_ex.c ****   *         complementary output.
1148:Drivers/STM32F7xx_HAL_Driver/Src/stm32f7xx_hal_tim_ex.c ****   * @param  htim TIM handle
1149:Drivers/STM32F7xx_HAL_Driver/Src/stm32f7xx_hal_tim_ex.c ****   * @param  Channel TIM Channel to be disabled
1150:Drivers/STM32F7xx_HAL_Driver/Src/stm32f7xx_hal_tim_ex.c ****   *          This parameter can be one of the following values:
1151:Drivers/STM32F7xx_HAL_Driver/Src/stm32f7xx_hal_tim_ex.c ****   *            @arg TIM_CHANNEL_1: TIM Channel 1 selected
1152:Drivers/STM32F7xx_HAL_Driver/Src/stm32f7xx_hal_tim_ex.c ****   *            @arg TIM_CHANNEL_2: TIM Channel 2 selected
1153:Drivers/STM32F7xx_HAL_Driver/Src/stm32f7xx_hal_tim_ex.c ****   *            @arg TIM_CHANNEL_3: TIM Channel 3 selected
1154:Drivers/STM32F7xx_HAL_Driver/Src/stm32f7xx_hal_tim_ex.c ****   * @retval HAL status
1155:Drivers/STM32F7xx_HAL_Driver/Src/stm32f7xx_hal_tim_ex.c ****   */
1156:Drivers/STM32F7xx_HAL_Driver/Src/stm32f7xx_hal_tim_ex.c **** HAL_StatusTypeDef HAL_TIMEx_PWMN_Start_IT(TIM_HandleTypeDef *htim, uint32_t Channel)
1157:Drivers/STM32F7xx_HAL_Driver/Src/stm32f7xx_hal_tim_ex.c **** {
 3447              		.loc 1 1157 1
 3448              		.cfi_startproc
 3449              		@ args = 0, pretend = 0, frame = 16
 3450              		@ frame_needed = 1, uses_anonymous_args = 0
 3451 0000 80B5     		push	{r7, lr}
 3452              	.LCFI92:
 3453              		.cfi_def_cfa_offset 8
 3454              		.cfi_offset 7, -8
 3455              		.cfi_offset 14, -4
 3456 0002 84B0     		sub	sp, sp, #16
 3457              	.LCFI93:
 3458              		.cfi_def_cfa_offset 24
 3459 0004 00AF     		add	r7, sp, #0
 3460              	.LCFI94:
 3461              		.cfi_def_cfa_register 7
 3462 0006 7860     		str	r0, [r7, #4]
 3463 0008 3960     		str	r1, [r7]
1158:Drivers/STM32F7xx_HAL_Driver/Src/stm32f7xx_hal_tim_ex.c ****   uint32_t tmpsmcr;
1159:Drivers/STM32F7xx_HAL_Driver/Src/stm32f7xx_hal_tim_ex.c **** 
1160:Drivers/STM32F7xx_HAL_Driver/Src/stm32f7xx_hal_tim_ex.c ****   /* Check the parameters */
1161:Drivers/STM32F7xx_HAL_Driver/Src/stm32f7xx_hal_tim_ex.c ****   assert_param(IS_TIM_CCXN_INSTANCE(htim->Instance, Channel));
1162:Drivers/STM32F7xx_HAL_Driver/Src/stm32f7xx_hal_tim_ex.c **** 
1163:Drivers/STM32F7xx_HAL_Driver/Src/stm32f7xx_hal_tim_ex.c ****   /* Check the TIM complementary channel state */
1164:Drivers/STM32F7xx_HAL_Driver/Src/stm32f7xx_hal_tim_ex.c ****   if (TIM_CHANNEL_N_STATE_GET(htim, Channel) != HAL_TIM_CHANNEL_STATE_READY)
 3464              		.loc 1 1164 46
 3465 000a 3B68     		ldr	r3, [r7]
 3466 000c 002B     		cmp	r3, #0
 3467 000e 09D1     		bne	.L225
 3468              		.loc 1 1164 7 discriminator 1
ARM GAS  /tmp/ccOFTjtU.s 			page 83


 3469 0010 7B68     		ldr	r3, [r7, #4]
 3470 0012 93F84430 		ldrb	r3, [r3, #68]
 3471 0016 DBB2     		uxtb	r3, r3
 3472              		.loc 1 1164 46 discriminator 1
 3473 0018 012B     		cmp	r3, #1
 3474 001a 14BF     		ite	ne
 3475 001c 0123     		movne	r3, #1
 3476 001e 0023     		moveq	r3, #0
 3477 0020 DBB2     		uxtb	r3, r3
 3478 0022 22E0     		b	.L226
 3479              	.L225:
 3480              		.loc 1 1164 46 is_stmt 0 discriminator 2
 3481 0024 3B68     		ldr	r3, [r7]
 3482 0026 042B     		cmp	r3, #4
 3483 0028 09D1     		bne	.L227
 3484              		.loc 1 1164 7 is_stmt 1 discriminator 4
 3485 002a 7B68     		ldr	r3, [r7, #4]
 3486 002c 93F84530 		ldrb	r3, [r3, #69]
 3487 0030 DBB2     		uxtb	r3, r3
 3488              		.loc 1 1164 46 discriminator 4
 3489 0032 012B     		cmp	r3, #1
 3490 0034 14BF     		ite	ne
 3491 0036 0123     		movne	r3, #1
 3492 0038 0023     		moveq	r3, #0
 3493 003a DBB2     		uxtb	r3, r3
 3494 003c 15E0     		b	.L226
 3495              	.L227:
 3496              		.loc 1 1164 46 is_stmt 0 discriminator 5
 3497 003e 3B68     		ldr	r3, [r7]
 3498 0040 082B     		cmp	r3, #8
 3499 0042 09D1     		bne	.L229
 3500              		.loc 1 1164 7 is_stmt 1 discriminator 7
 3501 0044 7B68     		ldr	r3, [r7, #4]
 3502 0046 93F84630 		ldrb	r3, [r3, #70]
 3503 004a DBB2     		uxtb	r3, r3
 3504              		.loc 1 1164 46 discriminator 7
 3505 004c 012B     		cmp	r3, #1
 3506 004e 14BF     		ite	ne
 3507 0050 0123     		movne	r3, #1
 3508 0052 0023     		moveq	r3, #0
 3509 0054 DBB2     		uxtb	r3, r3
 3510 0056 08E0     		b	.L226
 3511              	.L229:
 3512              		.loc 1 1164 7 discriminator 8
 3513 0058 7B68     		ldr	r3, [r7, #4]
 3514 005a 93F84730 		ldrb	r3, [r3, #71]
 3515 005e DBB2     		uxtb	r3, r3
 3516              		.loc 1 1164 46 discriminator 8
 3517 0060 012B     		cmp	r3, #1
 3518 0062 14BF     		ite	ne
 3519 0064 0123     		movne	r3, #1
 3520 0066 0023     		moveq	r3, #0
 3521 0068 DBB2     		uxtb	r3, r3
 3522              	.L226:
 3523              		.loc 1 1164 6 discriminator 12
 3524 006a 002B     		cmp	r3, #0
 3525 006c 01D0     		beq	.L231
ARM GAS  /tmp/ccOFTjtU.s 			page 84


1165:Drivers/STM32F7xx_HAL_Driver/Src/stm32f7xx_hal_tim_ex.c ****   {
1166:Drivers/STM32F7xx_HAL_Driver/Src/stm32f7xx_hal_tim_ex.c ****     return HAL_ERROR;
 3526              		.loc 1 1166 12
 3527 006e 0123     		movs	r3, #1
 3528 0070 A4E0     		b	.L232
 3529              	.L231:
1167:Drivers/STM32F7xx_HAL_Driver/Src/stm32f7xx_hal_tim_ex.c ****   }
1168:Drivers/STM32F7xx_HAL_Driver/Src/stm32f7xx_hal_tim_ex.c **** 
1169:Drivers/STM32F7xx_HAL_Driver/Src/stm32f7xx_hal_tim_ex.c ****   /* Set the TIM complementary channel state */
1170:Drivers/STM32F7xx_HAL_Driver/Src/stm32f7xx_hal_tim_ex.c ****   TIM_CHANNEL_N_STATE_SET(htim, Channel, HAL_TIM_CHANNEL_STATE_BUSY);
 3530              		.loc 1 1170 3
 3531 0072 3B68     		ldr	r3, [r7]
 3532 0074 002B     		cmp	r3, #0
 3533 0076 04D1     		bne	.L233
 3534              		.loc 1 1170 3 is_stmt 0 discriminator 1
 3535 0078 7B68     		ldr	r3, [r7, #4]
 3536 007a 0222     		movs	r2, #2
 3537 007c 83F84420 		strb	r2, [r3, #68]
 3538 0080 13E0     		b	.L234
 3539              	.L233:
 3540              		.loc 1 1170 3 discriminator 2
 3541 0082 3B68     		ldr	r3, [r7]
 3542 0084 042B     		cmp	r3, #4
 3543 0086 04D1     		bne	.L235
 3544              		.loc 1 1170 3 discriminator 3
 3545 0088 7B68     		ldr	r3, [r7, #4]
 3546 008a 0222     		movs	r2, #2
 3547 008c 83F84520 		strb	r2, [r3, #69]
 3548 0090 0BE0     		b	.L234
 3549              	.L235:
 3550              		.loc 1 1170 3 discriminator 4
 3551 0092 3B68     		ldr	r3, [r7]
 3552 0094 082B     		cmp	r3, #8
 3553 0096 04D1     		bne	.L237
 3554              		.loc 1 1170 3 discriminator 6
 3555 0098 7B68     		ldr	r3, [r7, #4]
 3556 009a 0222     		movs	r2, #2
 3557 009c 83F84620 		strb	r2, [r3, #70]
 3558 00a0 03E0     		b	.L234
 3559              	.L237:
 3560              		.loc 1 1170 3 discriminator 7
 3561 00a2 7B68     		ldr	r3, [r7, #4]
 3562 00a4 0222     		movs	r2, #2
 3563 00a6 83F84720 		strb	r2, [r3, #71]
 3564              	.L234:
1171:Drivers/STM32F7xx_HAL_Driver/Src/stm32f7xx_hal_tim_ex.c **** 
1172:Drivers/STM32F7xx_HAL_Driver/Src/stm32f7xx_hal_tim_ex.c ****   switch (Channel)
 3565              		.loc 1 1172 3 is_stmt 1
 3566 00aa 3B68     		ldr	r3, [r7]
 3567 00ac 082B     		cmp	r3, #8
 3568 00ae 1BD0     		beq	.L239
 3569 00b0 3B68     		ldr	r3, [r7]
 3570 00b2 082B     		cmp	r3, #8
 3571 00b4 21D8     		bhi	.L248
 3572 00b6 3B68     		ldr	r3, [r7]
 3573 00b8 002B     		cmp	r3, #0
 3574 00ba 03D0     		beq	.L241
ARM GAS  /tmp/ccOFTjtU.s 			page 85


 3575 00bc 3B68     		ldr	r3, [r7]
 3576 00be 042B     		cmp	r3, #4
 3577 00c0 09D0     		beq	.L242
1173:Drivers/STM32F7xx_HAL_Driver/Src/stm32f7xx_hal_tim_ex.c ****   {
1174:Drivers/STM32F7xx_HAL_Driver/Src/stm32f7xx_hal_tim_ex.c ****     case TIM_CHANNEL_1:
1175:Drivers/STM32F7xx_HAL_Driver/Src/stm32f7xx_hal_tim_ex.c ****     {
1176:Drivers/STM32F7xx_HAL_Driver/Src/stm32f7xx_hal_tim_ex.c ****       /* Enable the TIM Capture/Compare 1 interrupt */
1177:Drivers/STM32F7xx_HAL_Driver/Src/stm32f7xx_hal_tim_ex.c ****       __HAL_TIM_ENABLE_IT(htim, TIM_IT_CC1);
1178:Drivers/STM32F7xx_HAL_Driver/Src/stm32f7xx_hal_tim_ex.c ****       break;
1179:Drivers/STM32F7xx_HAL_Driver/Src/stm32f7xx_hal_tim_ex.c ****     }
1180:Drivers/STM32F7xx_HAL_Driver/Src/stm32f7xx_hal_tim_ex.c **** 
1181:Drivers/STM32F7xx_HAL_Driver/Src/stm32f7xx_hal_tim_ex.c ****     case TIM_CHANNEL_2:
1182:Drivers/STM32F7xx_HAL_Driver/Src/stm32f7xx_hal_tim_ex.c ****     {
1183:Drivers/STM32F7xx_HAL_Driver/Src/stm32f7xx_hal_tim_ex.c ****       /* Enable the TIM Capture/Compare 2 interrupt */
1184:Drivers/STM32F7xx_HAL_Driver/Src/stm32f7xx_hal_tim_ex.c ****       __HAL_TIM_ENABLE_IT(htim, TIM_IT_CC2);
1185:Drivers/STM32F7xx_HAL_Driver/Src/stm32f7xx_hal_tim_ex.c ****       break;
1186:Drivers/STM32F7xx_HAL_Driver/Src/stm32f7xx_hal_tim_ex.c ****     }
1187:Drivers/STM32F7xx_HAL_Driver/Src/stm32f7xx_hal_tim_ex.c **** 
1188:Drivers/STM32F7xx_HAL_Driver/Src/stm32f7xx_hal_tim_ex.c ****     case TIM_CHANNEL_3:
1189:Drivers/STM32F7xx_HAL_Driver/Src/stm32f7xx_hal_tim_ex.c ****     {
1190:Drivers/STM32F7xx_HAL_Driver/Src/stm32f7xx_hal_tim_ex.c ****       /* Enable the TIM Capture/Compare 3 interrupt */
1191:Drivers/STM32F7xx_HAL_Driver/Src/stm32f7xx_hal_tim_ex.c ****       __HAL_TIM_ENABLE_IT(htim, TIM_IT_CC3);
1192:Drivers/STM32F7xx_HAL_Driver/Src/stm32f7xx_hal_tim_ex.c ****       break;
1193:Drivers/STM32F7xx_HAL_Driver/Src/stm32f7xx_hal_tim_ex.c ****     }
1194:Drivers/STM32F7xx_HAL_Driver/Src/stm32f7xx_hal_tim_ex.c **** 
1195:Drivers/STM32F7xx_HAL_Driver/Src/stm32f7xx_hal_tim_ex.c ****     default:
1196:Drivers/STM32F7xx_HAL_Driver/Src/stm32f7xx_hal_tim_ex.c ****       break;
 3578              		.loc 1 1196 7
 3579 00c2 1AE0     		b	.L248
 3580              	.L241:
1177:Drivers/STM32F7xx_HAL_Driver/Src/stm32f7xx_hal_tim_ex.c ****       break;
 3581              		.loc 1 1177 7
 3582 00c4 7B68     		ldr	r3, [r7, #4]
 3583 00c6 1B68     		ldr	r3, [r3]
 3584 00c8 DA68     		ldr	r2, [r3, #12]
 3585 00ca 7B68     		ldr	r3, [r7, #4]
 3586 00cc 1B68     		ldr	r3, [r3]
 3587 00ce 42F00202 		orr	r2, r2, #2
 3588 00d2 DA60     		str	r2, [r3, #12]
1178:Drivers/STM32F7xx_HAL_Driver/Src/stm32f7xx_hal_tim_ex.c ****     }
 3589              		.loc 1 1178 7
 3590 00d4 12E0     		b	.L243
 3591              	.L242:
1184:Drivers/STM32F7xx_HAL_Driver/Src/stm32f7xx_hal_tim_ex.c ****       break;
 3592              		.loc 1 1184 7
 3593 00d6 7B68     		ldr	r3, [r7, #4]
 3594 00d8 1B68     		ldr	r3, [r3]
 3595 00da DA68     		ldr	r2, [r3, #12]
 3596 00dc 7B68     		ldr	r3, [r7, #4]
 3597 00de 1B68     		ldr	r3, [r3]
 3598 00e0 42F00402 		orr	r2, r2, #4
 3599 00e4 DA60     		str	r2, [r3, #12]
1185:Drivers/STM32F7xx_HAL_Driver/Src/stm32f7xx_hal_tim_ex.c ****     }
 3600              		.loc 1 1185 7
 3601 00e6 09E0     		b	.L243
 3602              	.L239:
1191:Drivers/STM32F7xx_HAL_Driver/Src/stm32f7xx_hal_tim_ex.c ****       break;
ARM GAS  /tmp/ccOFTjtU.s 			page 86


 3603              		.loc 1 1191 7
 3604 00e8 7B68     		ldr	r3, [r7, #4]
 3605 00ea 1B68     		ldr	r3, [r3]
 3606 00ec DA68     		ldr	r2, [r3, #12]
 3607 00ee 7B68     		ldr	r3, [r7, #4]
 3608 00f0 1B68     		ldr	r3, [r3]
 3609 00f2 42F00802 		orr	r2, r2, #8
 3610 00f6 DA60     		str	r2, [r3, #12]
1192:Drivers/STM32F7xx_HAL_Driver/Src/stm32f7xx_hal_tim_ex.c ****     }
 3611              		.loc 1 1192 7
 3612 00f8 00E0     		b	.L243
 3613              	.L248:
 3614              		.loc 1 1196 7
 3615 00fa 00BF     		nop
 3616              	.L243:
1197:Drivers/STM32F7xx_HAL_Driver/Src/stm32f7xx_hal_tim_ex.c ****   }
1198:Drivers/STM32F7xx_HAL_Driver/Src/stm32f7xx_hal_tim_ex.c **** 
1199:Drivers/STM32F7xx_HAL_Driver/Src/stm32f7xx_hal_tim_ex.c ****   /* Enable the TIM Break interrupt */
1200:Drivers/STM32F7xx_HAL_Driver/Src/stm32f7xx_hal_tim_ex.c ****   __HAL_TIM_ENABLE_IT(htim, TIM_IT_BREAK);
 3617              		.loc 1 1200 3
 3618 00fc 7B68     		ldr	r3, [r7, #4]
 3619 00fe 1B68     		ldr	r3, [r3]
 3620 0100 DA68     		ldr	r2, [r3, #12]
 3621 0102 7B68     		ldr	r3, [r7, #4]
 3622 0104 1B68     		ldr	r3, [r3]
 3623 0106 42F08002 		orr	r2, r2, #128
 3624 010a DA60     		str	r2, [r3, #12]
1201:Drivers/STM32F7xx_HAL_Driver/Src/stm32f7xx_hal_tim_ex.c **** 
1202:Drivers/STM32F7xx_HAL_Driver/Src/stm32f7xx_hal_tim_ex.c ****   /* Enable the complementary PWM output  */
1203:Drivers/STM32F7xx_HAL_Driver/Src/stm32f7xx_hal_tim_ex.c ****   TIM_CCxNChannelCmd(htim->Instance, Channel, TIM_CCxN_ENABLE);
 3625              		.loc 1 1203 3
 3626 010c 7B68     		ldr	r3, [r7, #4]
 3627 010e 1B68     		ldr	r3, [r3]
 3628 0110 0422     		movs	r2, #4
 3629 0112 3968     		ldr	r1, [r7]
 3630 0114 1846     		mov	r0, r3
 3631 0116 FFF7FEFF 		bl	TIM_CCxNChannelCmd
1204:Drivers/STM32F7xx_HAL_Driver/Src/stm32f7xx_hal_tim_ex.c **** 
1205:Drivers/STM32F7xx_HAL_Driver/Src/stm32f7xx_hal_tim_ex.c ****   /* Enable the Main Output */
1206:Drivers/STM32F7xx_HAL_Driver/Src/stm32f7xx_hal_tim_ex.c ****   __HAL_TIM_MOE_ENABLE(htim);
 3632              		.loc 1 1206 3
 3633 011a 7B68     		ldr	r3, [r7, #4]
 3634 011c 1B68     		ldr	r3, [r3]
 3635 011e 5A6C     		ldr	r2, [r3, #68]
 3636 0120 7B68     		ldr	r3, [r7, #4]
 3637 0122 1B68     		ldr	r3, [r3]
 3638 0124 42F40042 		orr	r2, r2, #32768
 3639 0128 5A64     		str	r2, [r3, #68]
1207:Drivers/STM32F7xx_HAL_Driver/Src/stm32f7xx_hal_tim_ex.c **** 
1208:Drivers/STM32F7xx_HAL_Driver/Src/stm32f7xx_hal_tim_ex.c ****   /* Enable the Peripheral, except in trigger mode where enable is automatically done with trigger 
1209:Drivers/STM32F7xx_HAL_Driver/Src/stm32f7xx_hal_tim_ex.c ****   if (IS_TIM_SLAVE_INSTANCE(htim->Instance))
 3640              		.loc 1 1209 7
 3641 012a 7B68     		ldr	r3, [r7, #4]
 3642 012c 1B68     		ldr	r3, [r3]
 3643              		.loc 1 1209 6
 3644 012e 254A     		ldr	r2, .L250
 3645 0130 9342     		cmp	r3, r2
ARM GAS  /tmp/ccOFTjtU.s 			page 87


 3646 0132 22D0     		beq	.L244
 3647              		.loc 1 1209 7 discriminator 1
 3648 0134 7B68     		ldr	r3, [r7, #4]
 3649 0136 1B68     		ldr	r3, [r3]
 3650 0138 B3F1804F 		cmp	r3, #1073741824
 3651 013c 1DD0     		beq	.L244
 3652              		.loc 1 1209 7 is_stmt 0 discriminator 2
 3653 013e 7B68     		ldr	r3, [r7, #4]
 3654 0140 1B68     		ldr	r3, [r3]
 3655 0142 214A     		ldr	r2, .L250+4
 3656 0144 9342     		cmp	r3, r2
 3657 0146 18D0     		beq	.L244
 3658              		.loc 1 1209 7 discriminator 3
 3659 0148 7B68     		ldr	r3, [r7, #4]
 3660 014a 1B68     		ldr	r3, [r3]
 3661 014c 1F4A     		ldr	r2, .L250+8
 3662 014e 9342     		cmp	r3, r2
 3663 0150 13D0     		beq	.L244
 3664              		.loc 1 1209 7 discriminator 4
 3665 0152 7B68     		ldr	r3, [r7, #4]
 3666 0154 1B68     		ldr	r3, [r3]
 3667 0156 1E4A     		ldr	r2, .L250+12
 3668 0158 9342     		cmp	r3, r2
 3669 015a 0ED0     		beq	.L244
 3670              		.loc 1 1209 7 discriminator 5
 3671 015c 7B68     		ldr	r3, [r7, #4]
 3672 015e 1B68     		ldr	r3, [r3]
 3673 0160 1C4A     		ldr	r2, .L250+16
 3674 0162 9342     		cmp	r3, r2
 3675 0164 09D0     		beq	.L244
 3676              		.loc 1 1209 7 discriminator 6
 3677 0166 7B68     		ldr	r3, [r7, #4]
 3678 0168 1B68     		ldr	r3, [r3]
 3679 016a 1B4A     		ldr	r2, .L250+20
 3680 016c 9342     		cmp	r3, r2
 3681 016e 04D0     		beq	.L244
 3682              		.loc 1 1209 7 discriminator 7
 3683 0170 7B68     		ldr	r3, [r7, #4]
 3684 0172 1B68     		ldr	r3, [r3]
 3685 0174 194A     		ldr	r2, .L250+24
 3686 0176 9342     		cmp	r3, r2
 3687 0178 15D1     		bne	.L245
 3688              	.L244:
1210:Drivers/STM32F7xx_HAL_Driver/Src/stm32f7xx_hal_tim_ex.c ****   {
1211:Drivers/STM32F7xx_HAL_Driver/Src/stm32f7xx_hal_tim_ex.c ****     tmpsmcr = htim->Instance->SMCR & TIM_SMCR_SMS;
 3689              		.loc 1 1211 19 is_stmt 1
 3690 017a 7B68     		ldr	r3, [r7, #4]
 3691 017c 1B68     		ldr	r3, [r3]
 3692              		.loc 1 1211 29
 3693 017e 9A68     		ldr	r2, [r3, #8]
 3694              		.loc 1 1211 13
 3695 0180 174B     		ldr	r3, .L250+28
 3696 0182 1340     		ands	r3, r3, r2
 3697 0184 FB60     		str	r3, [r7, #12]
1212:Drivers/STM32F7xx_HAL_Driver/Src/stm32f7xx_hal_tim_ex.c ****     if (!IS_TIM_SLAVEMODE_TRIGGER_ENABLED(tmpsmcr))
 3698              		.loc 1 1212 8
 3699 0186 FB68     		ldr	r3, [r7, #12]
ARM GAS  /tmp/ccOFTjtU.s 			page 88


 3700 0188 062B     		cmp	r3, #6
 3701 018a 15D0     		beq	.L249
 3702              		.loc 1 1212 9 discriminator 1
 3703 018c FB68     		ldr	r3, [r7, #12]
 3704 018e B3F5803F 		cmp	r3, #65536
 3705 0192 11D0     		beq	.L249
1213:Drivers/STM32F7xx_HAL_Driver/Src/stm32f7xx_hal_tim_ex.c ****     {
1214:Drivers/STM32F7xx_HAL_Driver/Src/stm32f7xx_hal_tim_ex.c ****       __HAL_TIM_ENABLE(htim);
 3706              		.loc 1 1214 7
 3707 0194 7B68     		ldr	r3, [r7, #4]
 3708 0196 1B68     		ldr	r3, [r3]
 3709 0198 1A68     		ldr	r2, [r3]
 3710 019a 7B68     		ldr	r3, [r7, #4]
 3711 019c 1B68     		ldr	r3, [r3]
 3712 019e 42F00102 		orr	r2, r2, #1
 3713 01a2 1A60     		str	r2, [r3]
1212:Drivers/STM32F7xx_HAL_Driver/Src/stm32f7xx_hal_tim_ex.c ****     if (!IS_TIM_SLAVEMODE_TRIGGER_ENABLED(tmpsmcr))
 3714              		.loc 1 1212 8
 3715 01a4 08E0     		b	.L249
 3716              	.L245:
1215:Drivers/STM32F7xx_HAL_Driver/Src/stm32f7xx_hal_tim_ex.c ****     }
1216:Drivers/STM32F7xx_HAL_Driver/Src/stm32f7xx_hal_tim_ex.c ****   }
1217:Drivers/STM32F7xx_HAL_Driver/Src/stm32f7xx_hal_tim_ex.c ****   else
1218:Drivers/STM32F7xx_HAL_Driver/Src/stm32f7xx_hal_tim_ex.c ****   {
1219:Drivers/STM32F7xx_HAL_Driver/Src/stm32f7xx_hal_tim_ex.c ****     __HAL_TIM_ENABLE(htim);
 3717              		.loc 1 1219 5
 3718 01a6 7B68     		ldr	r3, [r7, #4]
 3719 01a8 1B68     		ldr	r3, [r3]
 3720 01aa 1A68     		ldr	r2, [r3]
 3721 01ac 7B68     		ldr	r3, [r7, #4]
 3722 01ae 1B68     		ldr	r3, [r3]
 3723 01b0 42F00102 		orr	r2, r2, #1
 3724 01b4 1A60     		str	r2, [r3]
 3725 01b6 00E0     		b	.L247
 3726              	.L249:
1212:Drivers/STM32F7xx_HAL_Driver/Src/stm32f7xx_hal_tim_ex.c ****     {
 3727              		.loc 1 1212 8
 3728 01b8 00BF     		nop
 3729              	.L247:
1220:Drivers/STM32F7xx_HAL_Driver/Src/stm32f7xx_hal_tim_ex.c ****   }
1221:Drivers/STM32F7xx_HAL_Driver/Src/stm32f7xx_hal_tim_ex.c **** 
1222:Drivers/STM32F7xx_HAL_Driver/Src/stm32f7xx_hal_tim_ex.c ****   /* Return function status */
1223:Drivers/STM32F7xx_HAL_Driver/Src/stm32f7xx_hal_tim_ex.c ****   return HAL_OK;
 3730              		.loc 1 1223 10
 3731 01ba 0023     		movs	r3, #0
 3732              	.L232:
1224:Drivers/STM32F7xx_HAL_Driver/Src/stm32f7xx_hal_tim_ex.c **** }
 3733              		.loc 1 1224 1
 3734 01bc 1846     		mov	r0, r3
 3735 01be 1037     		adds	r7, r7, #16
 3736              	.LCFI95:
 3737              		.cfi_def_cfa_offset 8
 3738 01c0 BD46     		mov	sp, r7
 3739              	.LCFI96:
 3740              		.cfi_def_cfa_register 13
 3741              		@ sp needed
 3742 01c2 80BD     		pop	{r7, pc}
ARM GAS  /tmp/ccOFTjtU.s 			page 89


 3743              	.L251:
 3744              		.align	2
 3745              	.L250:
 3746 01c4 00000140 		.word	1073807360
 3747 01c8 00040040 		.word	1073742848
 3748 01cc 00080040 		.word	1073743872
 3749 01d0 000C0040 		.word	1073744896
 3750 01d4 00040140 		.word	1073808384
 3751 01d8 00400140 		.word	1073823744
 3752 01dc 00180040 		.word	1073747968
 3753 01e0 07000100 		.word	65543
 3754              		.cfi_endproc
 3755              	.LFE159:
 3757              		.section	.text.HAL_TIMEx_PWMN_Stop_IT,"ax",%progbits
 3758              		.align	1
 3759              		.global	HAL_TIMEx_PWMN_Stop_IT
 3760              		.syntax unified
 3761              		.thumb
 3762              		.thumb_func
 3763              		.fpu fpv5-d16
 3765              	HAL_TIMEx_PWMN_Stop_IT:
 3766              	.LFB160:
1225:Drivers/STM32F7xx_HAL_Driver/Src/stm32f7xx_hal_tim_ex.c **** 
1226:Drivers/STM32F7xx_HAL_Driver/Src/stm32f7xx_hal_tim_ex.c **** /**
1227:Drivers/STM32F7xx_HAL_Driver/Src/stm32f7xx_hal_tim_ex.c ****   * @brief  Stops the PWM signal generation in interrupt mode on the
1228:Drivers/STM32F7xx_HAL_Driver/Src/stm32f7xx_hal_tim_ex.c ****   *         complementary output.
1229:Drivers/STM32F7xx_HAL_Driver/Src/stm32f7xx_hal_tim_ex.c ****   * @param  htim TIM handle
1230:Drivers/STM32F7xx_HAL_Driver/Src/stm32f7xx_hal_tim_ex.c ****   * @param  Channel TIM Channel to be disabled
1231:Drivers/STM32F7xx_HAL_Driver/Src/stm32f7xx_hal_tim_ex.c ****   *          This parameter can be one of the following values:
1232:Drivers/STM32F7xx_HAL_Driver/Src/stm32f7xx_hal_tim_ex.c ****   *            @arg TIM_CHANNEL_1: TIM Channel 1 selected
1233:Drivers/STM32F7xx_HAL_Driver/Src/stm32f7xx_hal_tim_ex.c ****   *            @arg TIM_CHANNEL_2: TIM Channel 2 selected
1234:Drivers/STM32F7xx_HAL_Driver/Src/stm32f7xx_hal_tim_ex.c ****   *            @arg TIM_CHANNEL_3: TIM Channel 3 selected
1235:Drivers/STM32F7xx_HAL_Driver/Src/stm32f7xx_hal_tim_ex.c ****   * @retval HAL status
1236:Drivers/STM32F7xx_HAL_Driver/Src/stm32f7xx_hal_tim_ex.c ****   */
1237:Drivers/STM32F7xx_HAL_Driver/Src/stm32f7xx_hal_tim_ex.c **** HAL_StatusTypeDef HAL_TIMEx_PWMN_Stop_IT(TIM_HandleTypeDef *htim, uint32_t Channel)
1238:Drivers/STM32F7xx_HAL_Driver/Src/stm32f7xx_hal_tim_ex.c **** {
 3767              		.loc 1 1238 1
 3768              		.cfi_startproc
 3769              		@ args = 0, pretend = 0, frame = 16
 3770              		@ frame_needed = 1, uses_anonymous_args = 0
 3771 0000 80B5     		push	{r7, lr}
 3772              	.LCFI97:
 3773              		.cfi_def_cfa_offset 8
 3774              		.cfi_offset 7, -8
 3775              		.cfi_offset 14, -4
 3776 0002 84B0     		sub	sp, sp, #16
 3777              	.LCFI98:
 3778              		.cfi_def_cfa_offset 24
 3779 0004 00AF     		add	r7, sp, #0
 3780              	.LCFI99:
 3781              		.cfi_def_cfa_register 7
 3782 0006 7860     		str	r0, [r7, #4]
 3783 0008 3960     		str	r1, [r7]
1239:Drivers/STM32F7xx_HAL_Driver/Src/stm32f7xx_hal_tim_ex.c ****   uint32_t tmpccer;
1240:Drivers/STM32F7xx_HAL_Driver/Src/stm32f7xx_hal_tim_ex.c **** 
1241:Drivers/STM32F7xx_HAL_Driver/Src/stm32f7xx_hal_tim_ex.c ****   /* Check the parameters */
1242:Drivers/STM32F7xx_HAL_Driver/Src/stm32f7xx_hal_tim_ex.c ****   assert_param(IS_TIM_CCXN_INSTANCE(htim->Instance, Channel));
ARM GAS  /tmp/ccOFTjtU.s 			page 90


1243:Drivers/STM32F7xx_HAL_Driver/Src/stm32f7xx_hal_tim_ex.c **** 
1244:Drivers/STM32F7xx_HAL_Driver/Src/stm32f7xx_hal_tim_ex.c ****   switch (Channel)
 3784              		.loc 1 1244 3
 3785 000a 3B68     		ldr	r3, [r7]
 3786 000c 082B     		cmp	r3, #8
 3787 000e 1BD0     		beq	.L253
 3788 0010 3B68     		ldr	r3, [r7]
 3789 0012 082B     		cmp	r3, #8
 3790 0014 21D8     		bhi	.L268
 3791 0016 3B68     		ldr	r3, [r7]
 3792 0018 002B     		cmp	r3, #0
 3793 001a 03D0     		beq	.L255
 3794 001c 3B68     		ldr	r3, [r7]
 3795 001e 042B     		cmp	r3, #4
 3796 0020 09D0     		beq	.L256
1245:Drivers/STM32F7xx_HAL_Driver/Src/stm32f7xx_hal_tim_ex.c ****   {
1246:Drivers/STM32F7xx_HAL_Driver/Src/stm32f7xx_hal_tim_ex.c ****     case TIM_CHANNEL_1:
1247:Drivers/STM32F7xx_HAL_Driver/Src/stm32f7xx_hal_tim_ex.c ****     {
1248:Drivers/STM32F7xx_HAL_Driver/Src/stm32f7xx_hal_tim_ex.c ****       /* Disable the TIM Capture/Compare 1 interrupt */
1249:Drivers/STM32F7xx_HAL_Driver/Src/stm32f7xx_hal_tim_ex.c ****       __HAL_TIM_DISABLE_IT(htim, TIM_IT_CC1);
1250:Drivers/STM32F7xx_HAL_Driver/Src/stm32f7xx_hal_tim_ex.c ****       break;
1251:Drivers/STM32F7xx_HAL_Driver/Src/stm32f7xx_hal_tim_ex.c ****     }
1252:Drivers/STM32F7xx_HAL_Driver/Src/stm32f7xx_hal_tim_ex.c **** 
1253:Drivers/STM32F7xx_HAL_Driver/Src/stm32f7xx_hal_tim_ex.c ****     case TIM_CHANNEL_2:
1254:Drivers/STM32F7xx_HAL_Driver/Src/stm32f7xx_hal_tim_ex.c ****     {
1255:Drivers/STM32F7xx_HAL_Driver/Src/stm32f7xx_hal_tim_ex.c ****       /* Disable the TIM Capture/Compare 2 interrupt */
1256:Drivers/STM32F7xx_HAL_Driver/Src/stm32f7xx_hal_tim_ex.c ****       __HAL_TIM_DISABLE_IT(htim, TIM_IT_CC2);
1257:Drivers/STM32F7xx_HAL_Driver/Src/stm32f7xx_hal_tim_ex.c ****       break;
1258:Drivers/STM32F7xx_HAL_Driver/Src/stm32f7xx_hal_tim_ex.c ****     }
1259:Drivers/STM32F7xx_HAL_Driver/Src/stm32f7xx_hal_tim_ex.c **** 
1260:Drivers/STM32F7xx_HAL_Driver/Src/stm32f7xx_hal_tim_ex.c ****     case TIM_CHANNEL_3:
1261:Drivers/STM32F7xx_HAL_Driver/Src/stm32f7xx_hal_tim_ex.c ****     {
1262:Drivers/STM32F7xx_HAL_Driver/Src/stm32f7xx_hal_tim_ex.c ****       /* Disable the TIM Capture/Compare 3 interrupt */
1263:Drivers/STM32F7xx_HAL_Driver/Src/stm32f7xx_hal_tim_ex.c ****       __HAL_TIM_DISABLE_IT(htim, TIM_IT_CC3);
1264:Drivers/STM32F7xx_HAL_Driver/Src/stm32f7xx_hal_tim_ex.c ****       break;
1265:Drivers/STM32F7xx_HAL_Driver/Src/stm32f7xx_hal_tim_ex.c ****     }
1266:Drivers/STM32F7xx_HAL_Driver/Src/stm32f7xx_hal_tim_ex.c **** 
1267:Drivers/STM32F7xx_HAL_Driver/Src/stm32f7xx_hal_tim_ex.c ****     default:
1268:Drivers/STM32F7xx_HAL_Driver/Src/stm32f7xx_hal_tim_ex.c ****       break;
 3797              		.loc 1 1268 7
 3798 0022 1AE0     		b	.L268
 3799              	.L255:
1249:Drivers/STM32F7xx_HAL_Driver/Src/stm32f7xx_hal_tim_ex.c ****       break;
 3800              		.loc 1 1249 7
 3801 0024 7B68     		ldr	r3, [r7, #4]
 3802 0026 1B68     		ldr	r3, [r3]
 3803 0028 DA68     		ldr	r2, [r3, #12]
 3804 002a 7B68     		ldr	r3, [r7, #4]
 3805 002c 1B68     		ldr	r3, [r3]
 3806 002e 22F00202 		bic	r2, r2, #2
 3807 0032 DA60     		str	r2, [r3, #12]
1250:Drivers/STM32F7xx_HAL_Driver/Src/stm32f7xx_hal_tim_ex.c ****     }
 3808              		.loc 1 1250 7
 3809 0034 12E0     		b	.L257
 3810              	.L256:
1256:Drivers/STM32F7xx_HAL_Driver/Src/stm32f7xx_hal_tim_ex.c ****       break;
 3811              		.loc 1 1256 7
ARM GAS  /tmp/ccOFTjtU.s 			page 91


 3812 0036 7B68     		ldr	r3, [r7, #4]
 3813 0038 1B68     		ldr	r3, [r3]
 3814 003a DA68     		ldr	r2, [r3, #12]
 3815 003c 7B68     		ldr	r3, [r7, #4]
 3816 003e 1B68     		ldr	r3, [r3]
 3817 0040 22F00402 		bic	r2, r2, #4
 3818 0044 DA60     		str	r2, [r3, #12]
1257:Drivers/STM32F7xx_HAL_Driver/Src/stm32f7xx_hal_tim_ex.c ****     }
 3819              		.loc 1 1257 7
 3820 0046 09E0     		b	.L257
 3821              	.L253:
1263:Drivers/STM32F7xx_HAL_Driver/Src/stm32f7xx_hal_tim_ex.c ****       break;
 3822              		.loc 1 1263 7
 3823 0048 7B68     		ldr	r3, [r7, #4]
 3824 004a 1B68     		ldr	r3, [r3]
 3825 004c DA68     		ldr	r2, [r3, #12]
 3826 004e 7B68     		ldr	r3, [r7, #4]
 3827 0050 1B68     		ldr	r3, [r3]
 3828 0052 22F00802 		bic	r2, r2, #8
 3829 0056 DA60     		str	r2, [r3, #12]
1264:Drivers/STM32F7xx_HAL_Driver/Src/stm32f7xx_hal_tim_ex.c ****     }
 3830              		.loc 1 1264 7
 3831 0058 00E0     		b	.L257
 3832              	.L268:
 3833              		.loc 1 1268 7
 3834 005a 00BF     		nop
 3835              	.L257:
1269:Drivers/STM32F7xx_HAL_Driver/Src/stm32f7xx_hal_tim_ex.c ****   }
1270:Drivers/STM32F7xx_HAL_Driver/Src/stm32f7xx_hal_tim_ex.c **** 
1271:Drivers/STM32F7xx_HAL_Driver/Src/stm32f7xx_hal_tim_ex.c ****   /* Disable the complementary PWM output  */
1272:Drivers/STM32F7xx_HAL_Driver/Src/stm32f7xx_hal_tim_ex.c ****   TIM_CCxNChannelCmd(htim->Instance, Channel, TIM_CCxN_DISABLE);
 3836              		.loc 1 1272 3
 3837 005c 7B68     		ldr	r3, [r7, #4]
 3838 005e 1B68     		ldr	r3, [r3]
 3839 0060 0022     		movs	r2, #0
 3840 0062 3968     		ldr	r1, [r7]
 3841 0064 1846     		mov	r0, r3
 3842 0066 FFF7FEFF 		bl	TIM_CCxNChannelCmd
1273:Drivers/STM32F7xx_HAL_Driver/Src/stm32f7xx_hal_tim_ex.c **** 
1274:Drivers/STM32F7xx_HAL_Driver/Src/stm32f7xx_hal_tim_ex.c ****   /* Disable the TIM Break interrupt (only if no more channel is active) */
1275:Drivers/STM32F7xx_HAL_Driver/Src/stm32f7xx_hal_tim_ex.c ****   tmpccer = htim->Instance->CCER;
 3843              		.loc 1 1275 17
 3844 006a 7B68     		ldr	r3, [r7, #4]
 3845 006c 1B68     		ldr	r3, [r3]
 3846              		.loc 1 1275 11
 3847 006e 1B6A     		ldr	r3, [r3, #32]
 3848 0070 FB60     		str	r3, [r7, #12]
1276:Drivers/STM32F7xx_HAL_Driver/Src/stm32f7xx_hal_tim_ex.c ****   if ((tmpccer & (TIM_CCER_CC1NE | TIM_CCER_CC2NE | TIM_CCER_CC3NE)) == (uint32_t)RESET)
 3849              		.loc 1 1276 16
 3850 0072 FA68     		ldr	r2, [r7, #12]
 3851 0074 40F24443 		movw	r3, #1092
 3852 0078 1340     		ands	r3, r3, r2
 3853              		.loc 1 1276 6
 3854 007a 002B     		cmp	r3, #0
 3855 007c 07D1     		bne	.L258
1277:Drivers/STM32F7xx_HAL_Driver/Src/stm32f7xx_hal_tim_ex.c ****   {
1278:Drivers/STM32F7xx_HAL_Driver/Src/stm32f7xx_hal_tim_ex.c ****     __HAL_TIM_DISABLE_IT(htim, TIM_IT_BREAK);
ARM GAS  /tmp/ccOFTjtU.s 			page 92


 3856              		.loc 1 1278 5
 3857 007e 7B68     		ldr	r3, [r7, #4]
 3858 0080 1B68     		ldr	r3, [r3]
 3859 0082 DA68     		ldr	r2, [r3, #12]
 3860 0084 7B68     		ldr	r3, [r7, #4]
 3861 0086 1B68     		ldr	r3, [r3]
 3862 0088 22F08002 		bic	r2, r2, #128
 3863 008c DA60     		str	r2, [r3, #12]
 3864              	.L258:
1279:Drivers/STM32F7xx_HAL_Driver/Src/stm32f7xx_hal_tim_ex.c ****   }
1280:Drivers/STM32F7xx_HAL_Driver/Src/stm32f7xx_hal_tim_ex.c **** 
1281:Drivers/STM32F7xx_HAL_Driver/Src/stm32f7xx_hal_tim_ex.c ****   /* Disable the Main Output */
1282:Drivers/STM32F7xx_HAL_Driver/Src/stm32f7xx_hal_tim_ex.c ****   __HAL_TIM_MOE_DISABLE(htim);
 3865              		.loc 1 1282 3
 3866 008e 7B68     		ldr	r3, [r7, #4]
 3867 0090 1B68     		ldr	r3, [r3]
 3868 0092 1A6A     		ldr	r2, [r3, #32]
 3869 0094 41F21113 		movw	r3, #4369
 3870 0098 1340     		ands	r3, r3, r2
 3871 009a 002B     		cmp	r3, #0
 3872 009c 0FD1     		bne	.L259
 3873              		.loc 1 1282 3 is_stmt 0 discriminator 1
 3874 009e 7B68     		ldr	r3, [r7, #4]
 3875 00a0 1B68     		ldr	r3, [r3]
 3876 00a2 1A6A     		ldr	r2, [r3, #32]
 3877 00a4 40F24443 		movw	r3, #1092
 3878 00a8 1340     		ands	r3, r3, r2
 3879 00aa 002B     		cmp	r3, #0
 3880 00ac 07D1     		bne	.L259
 3881              		.loc 1 1282 3 discriminator 2
 3882 00ae 7B68     		ldr	r3, [r7, #4]
 3883 00b0 1B68     		ldr	r3, [r3]
 3884 00b2 5A6C     		ldr	r2, [r3, #68]
 3885 00b4 7B68     		ldr	r3, [r7, #4]
 3886 00b6 1B68     		ldr	r3, [r3]
 3887 00b8 22F40042 		bic	r2, r2, #32768
 3888 00bc 5A64     		str	r2, [r3, #68]
 3889              	.L259:
1283:Drivers/STM32F7xx_HAL_Driver/Src/stm32f7xx_hal_tim_ex.c **** 
1284:Drivers/STM32F7xx_HAL_Driver/Src/stm32f7xx_hal_tim_ex.c ****   /* Disable the Peripheral */
1285:Drivers/STM32F7xx_HAL_Driver/Src/stm32f7xx_hal_tim_ex.c ****   __HAL_TIM_DISABLE(htim);
 3890              		.loc 1 1285 3 is_stmt 1
 3891 00be 7B68     		ldr	r3, [r7, #4]
 3892 00c0 1B68     		ldr	r3, [r3]
 3893 00c2 1A6A     		ldr	r2, [r3, #32]
 3894 00c4 41F21113 		movw	r3, #4369
 3895 00c8 1340     		ands	r3, r3, r2
 3896 00ca 002B     		cmp	r3, #0
 3897 00cc 0FD1     		bne	.L260
 3898              		.loc 1 1285 3 is_stmt 0 discriminator 1
 3899 00ce 7B68     		ldr	r3, [r7, #4]
 3900 00d0 1B68     		ldr	r3, [r3]
 3901 00d2 1A6A     		ldr	r2, [r3, #32]
 3902 00d4 40F24443 		movw	r3, #1092
 3903 00d8 1340     		ands	r3, r3, r2
 3904 00da 002B     		cmp	r3, #0
 3905 00dc 07D1     		bne	.L260
ARM GAS  /tmp/ccOFTjtU.s 			page 93


 3906              		.loc 1 1285 3 discriminator 2
 3907 00de 7B68     		ldr	r3, [r7, #4]
 3908 00e0 1B68     		ldr	r3, [r3]
 3909 00e2 1A68     		ldr	r2, [r3]
 3910 00e4 7B68     		ldr	r3, [r7, #4]
 3911 00e6 1B68     		ldr	r3, [r3]
 3912 00e8 22F00102 		bic	r2, r2, #1
 3913 00ec 1A60     		str	r2, [r3]
 3914              	.L260:
1286:Drivers/STM32F7xx_HAL_Driver/Src/stm32f7xx_hal_tim_ex.c **** 
1287:Drivers/STM32F7xx_HAL_Driver/Src/stm32f7xx_hal_tim_ex.c ****   /* Set the TIM complementary channel state */
1288:Drivers/STM32F7xx_HAL_Driver/Src/stm32f7xx_hal_tim_ex.c ****   TIM_CHANNEL_N_STATE_SET(htim, Channel, HAL_TIM_CHANNEL_STATE_READY);
 3915              		.loc 1 1288 3 is_stmt 1
 3916 00ee 3B68     		ldr	r3, [r7]
 3917 00f0 002B     		cmp	r3, #0
 3918 00f2 04D1     		bne	.L261
 3919              		.loc 1 1288 3 is_stmt 0 discriminator 1
 3920 00f4 7B68     		ldr	r3, [r7, #4]
 3921 00f6 0122     		movs	r2, #1
 3922 00f8 83F84420 		strb	r2, [r3, #68]
 3923 00fc 13E0     		b	.L262
 3924              	.L261:
 3925              		.loc 1 1288 3 discriminator 2
 3926 00fe 3B68     		ldr	r3, [r7]
 3927 0100 042B     		cmp	r3, #4
 3928 0102 04D1     		bne	.L263
 3929              		.loc 1 1288 3 discriminator 3
 3930 0104 7B68     		ldr	r3, [r7, #4]
 3931 0106 0122     		movs	r2, #1
 3932 0108 83F84520 		strb	r2, [r3, #69]
 3933 010c 0BE0     		b	.L262
 3934              	.L263:
 3935              		.loc 1 1288 3 discriminator 4
 3936 010e 3B68     		ldr	r3, [r7]
 3937 0110 082B     		cmp	r3, #8
 3938 0112 04D1     		bne	.L265
 3939              		.loc 1 1288 3 discriminator 6
 3940 0114 7B68     		ldr	r3, [r7, #4]
 3941 0116 0122     		movs	r2, #1
 3942 0118 83F84620 		strb	r2, [r3, #70]
 3943 011c 03E0     		b	.L262
 3944              	.L265:
 3945              		.loc 1 1288 3 discriminator 7
 3946 011e 7B68     		ldr	r3, [r7, #4]
 3947 0120 0122     		movs	r2, #1
 3948 0122 83F84720 		strb	r2, [r3, #71]
 3949              	.L262:
1289:Drivers/STM32F7xx_HAL_Driver/Src/stm32f7xx_hal_tim_ex.c **** 
1290:Drivers/STM32F7xx_HAL_Driver/Src/stm32f7xx_hal_tim_ex.c ****   /* Return function status */
1291:Drivers/STM32F7xx_HAL_Driver/Src/stm32f7xx_hal_tim_ex.c ****   return HAL_OK;
 3950              		.loc 1 1291 10 is_stmt 1
 3951 0126 0023     		movs	r3, #0
1292:Drivers/STM32F7xx_HAL_Driver/Src/stm32f7xx_hal_tim_ex.c **** }
 3952              		.loc 1 1292 1
 3953 0128 1846     		mov	r0, r3
 3954 012a 1037     		adds	r7, r7, #16
 3955              	.LCFI100:
ARM GAS  /tmp/ccOFTjtU.s 			page 94


 3956              		.cfi_def_cfa_offset 8
 3957 012c BD46     		mov	sp, r7
 3958              	.LCFI101:
 3959              		.cfi_def_cfa_register 13
 3960              		@ sp needed
 3961 012e 80BD     		pop	{r7, pc}
 3962              		.cfi_endproc
 3963              	.LFE160:
 3965              		.section	.text.HAL_TIMEx_PWMN_Start_DMA,"ax",%progbits
 3966              		.align	1
 3967              		.global	HAL_TIMEx_PWMN_Start_DMA
 3968              		.syntax unified
 3969              		.thumb
 3970              		.thumb_func
 3971              		.fpu fpv5-d16
 3973              	HAL_TIMEx_PWMN_Start_DMA:
 3974              	.LFB161:
1293:Drivers/STM32F7xx_HAL_Driver/Src/stm32f7xx_hal_tim_ex.c **** 
1294:Drivers/STM32F7xx_HAL_Driver/Src/stm32f7xx_hal_tim_ex.c **** /**
1295:Drivers/STM32F7xx_HAL_Driver/Src/stm32f7xx_hal_tim_ex.c ****   * @brief  Starts the TIM PWM signal generation in DMA mode on the
1296:Drivers/STM32F7xx_HAL_Driver/Src/stm32f7xx_hal_tim_ex.c ****   *         complementary output
1297:Drivers/STM32F7xx_HAL_Driver/Src/stm32f7xx_hal_tim_ex.c ****   * @param  htim TIM handle
1298:Drivers/STM32F7xx_HAL_Driver/Src/stm32f7xx_hal_tim_ex.c ****   * @param  Channel TIM Channel to be enabled
1299:Drivers/STM32F7xx_HAL_Driver/Src/stm32f7xx_hal_tim_ex.c ****   *          This parameter can be one of the following values:
1300:Drivers/STM32F7xx_HAL_Driver/Src/stm32f7xx_hal_tim_ex.c ****   *            @arg TIM_CHANNEL_1: TIM Channel 1 selected
1301:Drivers/STM32F7xx_HAL_Driver/Src/stm32f7xx_hal_tim_ex.c ****   *            @arg TIM_CHANNEL_2: TIM Channel 2 selected
1302:Drivers/STM32F7xx_HAL_Driver/Src/stm32f7xx_hal_tim_ex.c ****   *            @arg TIM_CHANNEL_3: TIM Channel 3 selected
1303:Drivers/STM32F7xx_HAL_Driver/Src/stm32f7xx_hal_tim_ex.c ****   * @param  pData The source Buffer address.
1304:Drivers/STM32F7xx_HAL_Driver/Src/stm32f7xx_hal_tim_ex.c ****   * @param  Length The length of data to be transferred from memory to TIM peripheral
1305:Drivers/STM32F7xx_HAL_Driver/Src/stm32f7xx_hal_tim_ex.c ****   * @retval HAL status
1306:Drivers/STM32F7xx_HAL_Driver/Src/stm32f7xx_hal_tim_ex.c ****   */
1307:Drivers/STM32F7xx_HAL_Driver/Src/stm32f7xx_hal_tim_ex.c **** HAL_StatusTypeDef HAL_TIMEx_PWMN_Start_DMA(TIM_HandleTypeDef *htim, uint32_t Channel, uint32_t *pDa
1308:Drivers/STM32F7xx_HAL_Driver/Src/stm32f7xx_hal_tim_ex.c **** {
 3975              		.loc 1 1308 1
 3976              		.cfi_startproc
 3977              		@ args = 0, pretend = 0, frame = 24
 3978              		@ frame_needed = 1, uses_anonymous_args = 0
 3979 0000 80B5     		push	{r7, lr}
 3980              	.LCFI102:
 3981              		.cfi_def_cfa_offset 8
 3982              		.cfi_offset 7, -8
 3983              		.cfi_offset 14, -4
 3984 0002 86B0     		sub	sp, sp, #24
 3985              	.LCFI103:
 3986              		.cfi_def_cfa_offset 32
 3987 0004 00AF     		add	r7, sp, #0
 3988              	.LCFI104:
 3989              		.cfi_def_cfa_register 7
 3990 0006 F860     		str	r0, [r7, #12]
 3991 0008 B960     		str	r1, [r7, #8]
 3992 000a 7A60     		str	r2, [r7, #4]
 3993 000c 7B80     		strh	r3, [r7, #2]	@ movhi
1309:Drivers/STM32F7xx_HAL_Driver/Src/stm32f7xx_hal_tim_ex.c ****   uint32_t tmpsmcr;
1310:Drivers/STM32F7xx_HAL_Driver/Src/stm32f7xx_hal_tim_ex.c **** 
1311:Drivers/STM32F7xx_HAL_Driver/Src/stm32f7xx_hal_tim_ex.c ****   /* Check the parameters */
1312:Drivers/STM32F7xx_HAL_Driver/Src/stm32f7xx_hal_tim_ex.c ****   assert_param(IS_TIM_CCXN_INSTANCE(htim->Instance, Channel));
1313:Drivers/STM32F7xx_HAL_Driver/Src/stm32f7xx_hal_tim_ex.c **** 
ARM GAS  /tmp/ccOFTjtU.s 			page 95


1314:Drivers/STM32F7xx_HAL_Driver/Src/stm32f7xx_hal_tim_ex.c ****   /* Set the TIM complementary channel state */
1315:Drivers/STM32F7xx_HAL_Driver/Src/stm32f7xx_hal_tim_ex.c ****   if (TIM_CHANNEL_N_STATE_GET(htim, Channel) == HAL_TIM_CHANNEL_STATE_BUSY)
 3994              		.loc 1 1315 46
 3995 000e BB68     		ldr	r3, [r7, #8]
 3996 0010 002B     		cmp	r3, #0
 3997 0012 09D1     		bne	.L270
 3998              		.loc 1 1315 7 discriminator 1
 3999 0014 FB68     		ldr	r3, [r7, #12]
 4000 0016 93F84430 		ldrb	r3, [r3, #68]
 4001 001a DBB2     		uxtb	r3, r3
 4002              		.loc 1 1315 46 discriminator 1
 4003 001c 022B     		cmp	r3, #2
 4004 001e 0CBF     		ite	eq
 4005 0020 0123     		moveq	r3, #1
 4006 0022 0023     		movne	r3, #0
 4007 0024 DBB2     		uxtb	r3, r3
 4008 0026 22E0     		b	.L271
 4009              	.L270:
 4010              		.loc 1 1315 46 is_stmt 0 discriminator 2
 4011 0028 BB68     		ldr	r3, [r7, #8]
 4012 002a 042B     		cmp	r3, #4
 4013 002c 09D1     		bne	.L272
 4014              		.loc 1 1315 7 is_stmt 1 discriminator 4
 4015 002e FB68     		ldr	r3, [r7, #12]
 4016 0030 93F84530 		ldrb	r3, [r3, #69]
 4017 0034 DBB2     		uxtb	r3, r3
 4018              		.loc 1 1315 46 discriminator 4
 4019 0036 022B     		cmp	r3, #2
 4020 0038 0CBF     		ite	eq
 4021 003a 0123     		moveq	r3, #1
 4022 003c 0023     		movne	r3, #0
 4023 003e DBB2     		uxtb	r3, r3
 4024 0040 15E0     		b	.L271
 4025              	.L272:
 4026              		.loc 1 1315 46 is_stmt 0 discriminator 5
 4027 0042 BB68     		ldr	r3, [r7, #8]
 4028 0044 082B     		cmp	r3, #8
 4029 0046 09D1     		bne	.L274
 4030              		.loc 1 1315 7 is_stmt 1 discriminator 7
 4031 0048 FB68     		ldr	r3, [r7, #12]
 4032 004a 93F84630 		ldrb	r3, [r3, #70]
 4033 004e DBB2     		uxtb	r3, r3
 4034              		.loc 1 1315 46 discriminator 7
 4035 0050 022B     		cmp	r3, #2
 4036 0052 0CBF     		ite	eq
 4037 0054 0123     		moveq	r3, #1
 4038 0056 0023     		movne	r3, #0
 4039 0058 DBB2     		uxtb	r3, r3
 4040 005a 08E0     		b	.L271
 4041              	.L274:
 4042              		.loc 1 1315 7 discriminator 8
 4043 005c FB68     		ldr	r3, [r7, #12]
 4044 005e 93F84730 		ldrb	r3, [r3, #71]
 4045 0062 DBB2     		uxtb	r3, r3
 4046              		.loc 1 1315 46 discriminator 8
 4047 0064 022B     		cmp	r3, #2
 4048 0066 0CBF     		ite	eq
ARM GAS  /tmp/ccOFTjtU.s 			page 96


 4049 0068 0123     		moveq	r3, #1
 4050 006a 0023     		movne	r3, #0
 4051 006c DBB2     		uxtb	r3, r3
 4052              	.L271:
 4053              		.loc 1 1315 6 discriminator 12
 4054 006e 002B     		cmp	r3, #0
 4055 0070 01D0     		beq	.L276
1316:Drivers/STM32F7xx_HAL_Driver/Src/stm32f7xx_hal_tim_ex.c ****   {
1317:Drivers/STM32F7xx_HAL_Driver/Src/stm32f7xx_hal_tim_ex.c ****     return HAL_BUSY;
 4056              		.loc 1 1317 12
 4057 0072 0223     		movs	r3, #2
 4058 0074 2AE1     		b	.L277
 4059              	.L276:
1318:Drivers/STM32F7xx_HAL_Driver/Src/stm32f7xx_hal_tim_ex.c ****   }
1319:Drivers/STM32F7xx_HAL_Driver/Src/stm32f7xx_hal_tim_ex.c ****   else if (TIM_CHANNEL_N_STATE_GET(htim, Channel) == HAL_TIM_CHANNEL_STATE_READY)
 4060              		.loc 1 1319 51
 4061 0076 BB68     		ldr	r3, [r7, #8]
 4062 0078 002B     		cmp	r3, #0
 4063 007a 09D1     		bne	.L278
 4064              		.loc 1 1319 12 discriminator 1
 4065 007c FB68     		ldr	r3, [r7, #12]
 4066 007e 93F84430 		ldrb	r3, [r3, #68]
 4067 0082 DBB2     		uxtb	r3, r3
 4068              		.loc 1 1319 51 discriminator 1
 4069 0084 012B     		cmp	r3, #1
 4070 0086 0CBF     		ite	eq
 4071 0088 0123     		moveq	r3, #1
 4072 008a 0023     		movne	r3, #0
 4073 008c DBB2     		uxtb	r3, r3
 4074 008e 22E0     		b	.L279
 4075              	.L278:
 4076              		.loc 1 1319 51 is_stmt 0 discriminator 2
 4077 0090 BB68     		ldr	r3, [r7, #8]
 4078 0092 042B     		cmp	r3, #4
 4079 0094 09D1     		bne	.L280
 4080              		.loc 1 1319 12 is_stmt 1 discriminator 4
 4081 0096 FB68     		ldr	r3, [r7, #12]
 4082 0098 93F84530 		ldrb	r3, [r3, #69]
 4083 009c DBB2     		uxtb	r3, r3
 4084              		.loc 1 1319 51 discriminator 4
 4085 009e 012B     		cmp	r3, #1
 4086 00a0 0CBF     		ite	eq
 4087 00a2 0123     		moveq	r3, #1
 4088 00a4 0023     		movne	r3, #0
 4089 00a6 DBB2     		uxtb	r3, r3
 4090 00a8 15E0     		b	.L279
 4091              	.L280:
 4092              		.loc 1 1319 51 is_stmt 0 discriminator 5
 4093 00aa BB68     		ldr	r3, [r7, #8]
 4094 00ac 082B     		cmp	r3, #8
 4095 00ae 09D1     		bne	.L282
 4096              		.loc 1 1319 12 is_stmt 1 discriminator 7
 4097 00b0 FB68     		ldr	r3, [r7, #12]
 4098 00b2 93F84630 		ldrb	r3, [r3, #70]
 4099 00b6 DBB2     		uxtb	r3, r3
 4100              		.loc 1 1319 51 discriminator 7
 4101 00b8 012B     		cmp	r3, #1
ARM GAS  /tmp/ccOFTjtU.s 			page 97


 4102 00ba 0CBF     		ite	eq
 4103 00bc 0123     		moveq	r3, #1
 4104 00be 0023     		movne	r3, #0
 4105 00c0 DBB2     		uxtb	r3, r3
 4106 00c2 08E0     		b	.L279
 4107              	.L282:
 4108              		.loc 1 1319 12 discriminator 8
 4109 00c4 FB68     		ldr	r3, [r7, #12]
 4110 00c6 93F84730 		ldrb	r3, [r3, #71]
 4111 00ca DBB2     		uxtb	r3, r3
 4112              		.loc 1 1319 51 discriminator 8
 4113 00cc 012B     		cmp	r3, #1
 4114 00ce 0CBF     		ite	eq
 4115 00d0 0123     		moveq	r3, #1
 4116 00d2 0023     		movne	r3, #0
 4117 00d4 DBB2     		uxtb	r3, r3
 4118              	.L279:
 4119              		.loc 1 1319 11 discriminator 12
 4120 00d6 002B     		cmp	r3, #0
 4121 00d8 24D0     		beq	.L284
1320:Drivers/STM32F7xx_HAL_Driver/Src/stm32f7xx_hal_tim_ex.c ****   {
1321:Drivers/STM32F7xx_HAL_Driver/Src/stm32f7xx_hal_tim_ex.c ****     if ((pData == NULL) && (Length > 0U))
 4122              		.loc 1 1321 8
 4123 00da 7B68     		ldr	r3, [r7, #4]
 4124 00dc 002B     		cmp	r3, #0
 4125 00de 04D1     		bne	.L285
 4126              		.loc 1 1321 25 discriminator 1
 4127 00e0 7B88     		ldrh	r3, [r7, #2]
 4128 00e2 002B     		cmp	r3, #0
 4129 00e4 01D0     		beq	.L285
1322:Drivers/STM32F7xx_HAL_Driver/Src/stm32f7xx_hal_tim_ex.c ****     {
1323:Drivers/STM32F7xx_HAL_Driver/Src/stm32f7xx_hal_tim_ex.c ****       return HAL_ERROR;
 4130              		.loc 1 1323 14
 4131 00e6 0123     		movs	r3, #1
 4132 00e8 F0E0     		b	.L277
 4133              	.L285:
1324:Drivers/STM32F7xx_HAL_Driver/Src/stm32f7xx_hal_tim_ex.c ****     }
1325:Drivers/STM32F7xx_HAL_Driver/Src/stm32f7xx_hal_tim_ex.c ****     else
1326:Drivers/STM32F7xx_HAL_Driver/Src/stm32f7xx_hal_tim_ex.c ****     {
1327:Drivers/STM32F7xx_HAL_Driver/Src/stm32f7xx_hal_tim_ex.c ****       TIM_CHANNEL_N_STATE_SET(htim, Channel, HAL_TIM_CHANNEL_STATE_BUSY);
 4134              		.loc 1 1327 7
 4135 00ea BB68     		ldr	r3, [r7, #8]
 4136 00ec 002B     		cmp	r3, #0
 4137 00ee 04D1     		bne	.L286
 4138              		.loc 1 1327 7 is_stmt 0 discriminator 1
 4139 00f0 FB68     		ldr	r3, [r7, #12]
 4140 00f2 0222     		movs	r2, #2
 4141 00f4 83F84420 		strb	r2, [r3, #68]
 4142 00f8 16E0     		b	.L287
 4143              	.L286:
 4144              		.loc 1 1327 7 discriminator 2
 4145 00fa BB68     		ldr	r3, [r7, #8]
 4146 00fc 042B     		cmp	r3, #4
 4147 00fe 04D1     		bne	.L288
 4148              		.loc 1 1327 7 discriminator 3
 4149 0100 FB68     		ldr	r3, [r7, #12]
 4150 0102 0222     		movs	r2, #2
ARM GAS  /tmp/ccOFTjtU.s 			page 98


 4151 0104 83F84520 		strb	r2, [r3, #69]
 4152 0108 0EE0     		b	.L287
 4153              	.L288:
 4154              		.loc 1 1327 7 discriminator 4
 4155 010a BB68     		ldr	r3, [r7, #8]
 4156 010c 082B     		cmp	r3, #8
 4157 010e 04D1     		bne	.L290
 4158              		.loc 1 1327 7 discriminator 6
 4159 0110 FB68     		ldr	r3, [r7, #12]
 4160 0112 0222     		movs	r2, #2
 4161 0114 83F84620 		strb	r2, [r3, #70]
 4162 0118 06E0     		b	.L287
 4163              	.L290:
 4164              		.loc 1 1327 7 discriminator 7
 4165 011a FB68     		ldr	r3, [r7, #12]
 4166 011c 0222     		movs	r2, #2
 4167 011e 83F84720 		strb	r2, [r3, #71]
 4168 0122 01E0     		b	.L287
 4169              	.L284:
1328:Drivers/STM32F7xx_HAL_Driver/Src/stm32f7xx_hal_tim_ex.c ****     }
1329:Drivers/STM32F7xx_HAL_Driver/Src/stm32f7xx_hal_tim_ex.c ****   }
1330:Drivers/STM32F7xx_HAL_Driver/Src/stm32f7xx_hal_tim_ex.c ****   else
1331:Drivers/STM32F7xx_HAL_Driver/Src/stm32f7xx_hal_tim_ex.c ****   {
1332:Drivers/STM32F7xx_HAL_Driver/Src/stm32f7xx_hal_tim_ex.c ****     return HAL_ERROR;
 4170              		.loc 1 1332 12 is_stmt 1
 4171 0124 0123     		movs	r3, #1
 4172 0126 D1E0     		b	.L277
 4173              	.L287:
1333:Drivers/STM32F7xx_HAL_Driver/Src/stm32f7xx_hal_tim_ex.c ****   }
1334:Drivers/STM32F7xx_HAL_Driver/Src/stm32f7xx_hal_tim_ex.c **** 
1335:Drivers/STM32F7xx_HAL_Driver/Src/stm32f7xx_hal_tim_ex.c ****   switch (Channel)
 4174              		.loc 1 1335 3
 4175 0128 BB68     		ldr	r3, [r7, #8]
 4176 012a 082B     		cmp	r3, #8
 4177 012c 51D0     		beq	.L292
 4178 012e BB68     		ldr	r3, [r7, #8]
 4179 0130 082B     		cmp	r3, #8
 4180 0132 72D8     		bhi	.L304
 4181 0134 BB68     		ldr	r3, [r7, #8]
 4182 0136 002B     		cmp	r3, #0
 4183 0138 03D0     		beq	.L294
 4184 013a BB68     		ldr	r3, [r7, #8]
 4185 013c 042B     		cmp	r3, #4
 4186 013e 24D0     		beq	.L295
1336:Drivers/STM32F7xx_HAL_Driver/Src/stm32f7xx_hal_tim_ex.c ****   {
1337:Drivers/STM32F7xx_HAL_Driver/Src/stm32f7xx_hal_tim_ex.c ****     case TIM_CHANNEL_1:
1338:Drivers/STM32F7xx_HAL_Driver/Src/stm32f7xx_hal_tim_ex.c ****     {
1339:Drivers/STM32F7xx_HAL_Driver/Src/stm32f7xx_hal_tim_ex.c ****       /* Set the DMA compare callbacks */
1340:Drivers/STM32F7xx_HAL_Driver/Src/stm32f7xx_hal_tim_ex.c ****       htim->hdma[TIM_DMA_ID_CC1]->XferCpltCallback = TIM_DMADelayPulseNCplt;
1341:Drivers/STM32F7xx_HAL_Driver/Src/stm32f7xx_hal_tim_ex.c ****       htim->hdma[TIM_DMA_ID_CC1]->XferHalfCpltCallback = TIM_DMADelayPulseHalfCplt;
1342:Drivers/STM32F7xx_HAL_Driver/Src/stm32f7xx_hal_tim_ex.c **** 
1343:Drivers/STM32F7xx_HAL_Driver/Src/stm32f7xx_hal_tim_ex.c ****       /* Set the DMA error callback */
1344:Drivers/STM32F7xx_HAL_Driver/Src/stm32f7xx_hal_tim_ex.c ****       htim->hdma[TIM_DMA_ID_CC1]->XferErrorCallback = TIM_DMAErrorCCxN ;
1345:Drivers/STM32F7xx_HAL_Driver/Src/stm32f7xx_hal_tim_ex.c **** 
1346:Drivers/STM32F7xx_HAL_Driver/Src/stm32f7xx_hal_tim_ex.c ****       /* Enable the DMA stream */
1347:Drivers/STM32F7xx_HAL_Driver/Src/stm32f7xx_hal_tim_ex.c ****       if (HAL_DMA_Start_IT(htim->hdma[TIM_DMA_ID_CC1], (uint32_t)pData, (uint32_t)&htim->Instance->
1348:Drivers/STM32F7xx_HAL_Driver/Src/stm32f7xx_hal_tim_ex.c ****       {
ARM GAS  /tmp/ccOFTjtU.s 			page 99


1349:Drivers/STM32F7xx_HAL_Driver/Src/stm32f7xx_hal_tim_ex.c ****         /* Return error status */
1350:Drivers/STM32F7xx_HAL_Driver/Src/stm32f7xx_hal_tim_ex.c ****         return HAL_ERROR;
1351:Drivers/STM32F7xx_HAL_Driver/Src/stm32f7xx_hal_tim_ex.c ****       }
1352:Drivers/STM32F7xx_HAL_Driver/Src/stm32f7xx_hal_tim_ex.c ****       /* Enable the TIM Capture/Compare 1 DMA request */
1353:Drivers/STM32F7xx_HAL_Driver/Src/stm32f7xx_hal_tim_ex.c ****       __HAL_TIM_ENABLE_DMA(htim, TIM_DMA_CC1);
1354:Drivers/STM32F7xx_HAL_Driver/Src/stm32f7xx_hal_tim_ex.c ****       break;
1355:Drivers/STM32F7xx_HAL_Driver/Src/stm32f7xx_hal_tim_ex.c ****     }
1356:Drivers/STM32F7xx_HAL_Driver/Src/stm32f7xx_hal_tim_ex.c **** 
1357:Drivers/STM32F7xx_HAL_Driver/Src/stm32f7xx_hal_tim_ex.c ****     case TIM_CHANNEL_2:
1358:Drivers/STM32F7xx_HAL_Driver/Src/stm32f7xx_hal_tim_ex.c ****     {
1359:Drivers/STM32F7xx_HAL_Driver/Src/stm32f7xx_hal_tim_ex.c ****       /* Set the DMA compare callbacks */
1360:Drivers/STM32F7xx_HAL_Driver/Src/stm32f7xx_hal_tim_ex.c ****       htim->hdma[TIM_DMA_ID_CC2]->XferCpltCallback = TIM_DMADelayPulseNCplt;
1361:Drivers/STM32F7xx_HAL_Driver/Src/stm32f7xx_hal_tim_ex.c ****       htim->hdma[TIM_DMA_ID_CC2]->XferHalfCpltCallback = TIM_DMADelayPulseHalfCplt;
1362:Drivers/STM32F7xx_HAL_Driver/Src/stm32f7xx_hal_tim_ex.c **** 
1363:Drivers/STM32F7xx_HAL_Driver/Src/stm32f7xx_hal_tim_ex.c ****       /* Set the DMA error callback */
1364:Drivers/STM32F7xx_HAL_Driver/Src/stm32f7xx_hal_tim_ex.c ****       htim->hdma[TIM_DMA_ID_CC2]->XferErrorCallback = TIM_DMAErrorCCxN ;
1365:Drivers/STM32F7xx_HAL_Driver/Src/stm32f7xx_hal_tim_ex.c **** 
1366:Drivers/STM32F7xx_HAL_Driver/Src/stm32f7xx_hal_tim_ex.c ****       /* Enable the DMA stream */
1367:Drivers/STM32F7xx_HAL_Driver/Src/stm32f7xx_hal_tim_ex.c ****       if (HAL_DMA_Start_IT(htim->hdma[TIM_DMA_ID_CC2], (uint32_t)pData, (uint32_t)&htim->Instance->
1368:Drivers/STM32F7xx_HAL_Driver/Src/stm32f7xx_hal_tim_ex.c ****       {
1369:Drivers/STM32F7xx_HAL_Driver/Src/stm32f7xx_hal_tim_ex.c ****         /* Return error status */
1370:Drivers/STM32F7xx_HAL_Driver/Src/stm32f7xx_hal_tim_ex.c ****         return HAL_ERROR;
1371:Drivers/STM32F7xx_HAL_Driver/Src/stm32f7xx_hal_tim_ex.c ****       }
1372:Drivers/STM32F7xx_HAL_Driver/Src/stm32f7xx_hal_tim_ex.c ****       /* Enable the TIM Capture/Compare 2 DMA request */
1373:Drivers/STM32F7xx_HAL_Driver/Src/stm32f7xx_hal_tim_ex.c ****       __HAL_TIM_ENABLE_DMA(htim, TIM_DMA_CC2);
1374:Drivers/STM32F7xx_HAL_Driver/Src/stm32f7xx_hal_tim_ex.c ****       break;
1375:Drivers/STM32F7xx_HAL_Driver/Src/stm32f7xx_hal_tim_ex.c ****     }
1376:Drivers/STM32F7xx_HAL_Driver/Src/stm32f7xx_hal_tim_ex.c **** 
1377:Drivers/STM32F7xx_HAL_Driver/Src/stm32f7xx_hal_tim_ex.c ****     case TIM_CHANNEL_3:
1378:Drivers/STM32F7xx_HAL_Driver/Src/stm32f7xx_hal_tim_ex.c ****     {
1379:Drivers/STM32F7xx_HAL_Driver/Src/stm32f7xx_hal_tim_ex.c ****       /* Set the DMA compare callbacks */
1380:Drivers/STM32F7xx_HAL_Driver/Src/stm32f7xx_hal_tim_ex.c ****       htim->hdma[TIM_DMA_ID_CC3]->XferCpltCallback = TIM_DMADelayPulseNCplt;
1381:Drivers/STM32F7xx_HAL_Driver/Src/stm32f7xx_hal_tim_ex.c ****       htim->hdma[TIM_DMA_ID_CC3]->XferHalfCpltCallback = TIM_DMADelayPulseHalfCplt;
1382:Drivers/STM32F7xx_HAL_Driver/Src/stm32f7xx_hal_tim_ex.c **** 
1383:Drivers/STM32F7xx_HAL_Driver/Src/stm32f7xx_hal_tim_ex.c ****       /* Set the DMA error callback */
1384:Drivers/STM32F7xx_HAL_Driver/Src/stm32f7xx_hal_tim_ex.c ****       htim->hdma[TIM_DMA_ID_CC3]->XferErrorCallback = TIM_DMAErrorCCxN ;
1385:Drivers/STM32F7xx_HAL_Driver/Src/stm32f7xx_hal_tim_ex.c **** 
1386:Drivers/STM32F7xx_HAL_Driver/Src/stm32f7xx_hal_tim_ex.c ****       /* Enable the DMA stream */
1387:Drivers/STM32F7xx_HAL_Driver/Src/stm32f7xx_hal_tim_ex.c ****       if (HAL_DMA_Start_IT(htim->hdma[TIM_DMA_ID_CC3], (uint32_t)pData, (uint32_t)&htim->Instance->
1388:Drivers/STM32F7xx_HAL_Driver/Src/stm32f7xx_hal_tim_ex.c ****       {
1389:Drivers/STM32F7xx_HAL_Driver/Src/stm32f7xx_hal_tim_ex.c ****         /* Return error status */
1390:Drivers/STM32F7xx_HAL_Driver/Src/stm32f7xx_hal_tim_ex.c ****         return HAL_ERROR;
1391:Drivers/STM32F7xx_HAL_Driver/Src/stm32f7xx_hal_tim_ex.c ****       }
1392:Drivers/STM32F7xx_HAL_Driver/Src/stm32f7xx_hal_tim_ex.c ****       /* Enable the TIM Capture/Compare 3 DMA request */
1393:Drivers/STM32F7xx_HAL_Driver/Src/stm32f7xx_hal_tim_ex.c ****       __HAL_TIM_ENABLE_DMA(htim, TIM_DMA_CC3);
1394:Drivers/STM32F7xx_HAL_Driver/Src/stm32f7xx_hal_tim_ex.c ****       break;
1395:Drivers/STM32F7xx_HAL_Driver/Src/stm32f7xx_hal_tim_ex.c ****     }
1396:Drivers/STM32F7xx_HAL_Driver/Src/stm32f7xx_hal_tim_ex.c **** 
1397:Drivers/STM32F7xx_HAL_Driver/Src/stm32f7xx_hal_tim_ex.c ****     default:
1398:Drivers/STM32F7xx_HAL_Driver/Src/stm32f7xx_hal_tim_ex.c ****       break;
 4187              		.loc 1 1398 7
 4188 0140 6BE0     		b	.L304
 4189              	.L294:
1340:Drivers/STM32F7xx_HAL_Driver/Src/stm32f7xx_hal_tim_ex.c ****       htim->hdma[TIM_DMA_ID_CC1]->XferHalfCpltCallback = TIM_DMADelayPulseHalfCplt;
 4190              		.loc 1 1340 17
 4191 0142 FB68     		ldr	r3, [r7, #12]
 4192 0144 5B6A     		ldr	r3, [r3, #36]
ARM GAS  /tmp/ccOFTjtU.s 			page 100


1340:Drivers/STM32F7xx_HAL_Driver/Src/stm32f7xx_hal_tim_ex.c ****       htim->hdma[TIM_DMA_ID_CC1]->XferHalfCpltCallback = TIM_DMADelayPulseHalfCplt;
 4193              		.loc 1 1340 52
 4194 0146 634A     		ldr	r2, .L306
 4195 0148 DA63     		str	r2, [r3, #60]
1341:Drivers/STM32F7xx_HAL_Driver/Src/stm32f7xx_hal_tim_ex.c **** 
 4196              		.loc 1 1341 17
 4197 014a FB68     		ldr	r3, [r7, #12]
 4198 014c 5B6A     		ldr	r3, [r3, #36]
1341:Drivers/STM32F7xx_HAL_Driver/Src/stm32f7xx_hal_tim_ex.c **** 
 4199              		.loc 1 1341 56
 4200 014e 624A     		ldr	r2, .L306+4
 4201 0150 1A64     		str	r2, [r3, #64]
1344:Drivers/STM32F7xx_HAL_Driver/Src/stm32f7xx_hal_tim_ex.c **** 
 4202              		.loc 1 1344 17
 4203 0152 FB68     		ldr	r3, [r7, #12]
 4204 0154 5B6A     		ldr	r3, [r3, #36]
1344:Drivers/STM32F7xx_HAL_Driver/Src/stm32f7xx_hal_tim_ex.c **** 
 4205              		.loc 1 1344 53
 4206 0156 614A     		ldr	r2, .L306+8
 4207 0158 DA64     		str	r2, [r3, #76]
1347:Drivers/STM32F7xx_HAL_Driver/Src/stm32f7xx_hal_tim_ex.c ****       {
 4208              		.loc 1 1347 11
 4209 015a FB68     		ldr	r3, [r7, #12]
 4210 015c 586A     		ldr	r0, [r3, #36]
 4211 015e 7968     		ldr	r1, [r7, #4]
1347:Drivers/STM32F7xx_HAL_Driver/Src/stm32f7xx_hal_tim_ex.c ****       {
 4212              		.loc 1 1347 88
 4213 0160 FB68     		ldr	r3, [r7, #12]
 4214 0162 1B68     		ldr	r3, [r3]
1347:Drivers/STM32F7xx_HAL_Driver/Src/stm32f7xx_hal_tim_ex.c ****       {
 4215              		.loc 1 1347 83
 4216 0164 3433     		adds	r3, r3, #52
1347:Drivers/STM32F7xx_HAL_Driver/Src/stm32f7xx_hal_tim_ex.c ****       {
 4217              		.loc 1 1347 11
 4218 0166 1A46     		mov	r2, r3
 4219 0168 7B88     		ldrh	r3, [r7, #2]
 4220 016a FFF7FEFF 		bl	HAL_DMA_Start_IT
 4221 016e 0346     		mov	r3, r0
1347:Drivers/STM32F7xx_HAL_Driver/Src/stm32f7xx_hal_tim_ex.c ****       {
 4222              		.loc 1 1347 10
 4223 0170 002B     		cmp	r3, #0
 4224 0172 01D0     		beq	.L296
1350:Drivers/STM32F7xx_HAL_Driver/Src/stm32f7xx_hal_tim_ex.c ****       }
 4225              		.loc 1 1350 16
 4226 0174 0123     		movs	r3, #1
 4227 0176 A9E0     		b	.L277
 4228              	.L296:
1353:Drivers/STM32F7xx_HAL_Driver/Src/stm32f7xx_hal_tim_ex.c ****       break;
 4229              		.loc 1 1353 7
 4230 0178 FB68     		ldr	r3, [r7, #12]
 4231 017a 1B68     		ldr	r3, [r3]
 4232 017c DA68     		ldr	r2, [r3, #12]
 4233 017e FB68     		ldr	r3, [r7, #12]
 4234 0180 1B68     		ldr	r3, [r3]
 4235 0182 42F40072 		orr	r2, r2, #512
 4236 0186 DA60     		str	r2, [r3, #12]
1354:Drivers/STM32F7xx_HAL_Driver/Src/stm32f7xx_hal_tim_ex.c ****     }
ARM GAS  /tmp/ccOFTjtU.s 			page 101


 4237              		.loc 1 1354 7
 4238 0188 48E0     		b	.L297
 4239              	.L295:
1360:Drivers/STM32F7xx_HAL_Driver/Src/stm32f7xx_hal_tim_ex.c ****       htim->hdma[TIM_DMA_ID_CC2]->XferHalfCpltCallback = TIM_DMADelayPulseHalfCplt;
 4240              		.loc 1 1360 17
 4241 018a FB68     		ldr	r3, [r7, #12]
 4242 018c 9B6A     		ldr	r3, [r3, #40]
1360:Drivers/STM32F7xx_HAL_Driver/Src/stm32f7xx_hal_tim_ex.c ****       htim->hdma[TIM_DMA_ID_CC2]->XferHalfCpltCallback = TIM_DMADelayPulseHalfCplt;
 4243              		.loc 1 1360 52
 4244 018e 514A     		ldr	r2, .L306
 4245 0190 DA63     		str	r2, [r3, #60]
1361:Drivers/STM32F7xx_HAL_Driver/Src/stm32f7xx_hal_tim_ex.c **** 
 4246              		.loc 1 1361 17
 4247 0192 FB68     		ldr	r3, [r7, #12]
 4248 0194 9B6A     		ldr	r3, [r3, #40]
1361:Drivers/STM32F7xx_HAL_Driver/Src/stm32f7xx_hal_tim_ex.c **** 
 4249              		.loc 1 1361 56
 4250 0196 504A     		ldr	r2, .L306+4
 4251 0198 1A64     		str	r2, [r3, #64]
1364:Drivers/STM32F7xx_HAL_Driver/Src/stm32f7xx_hal_tim_ex.c **** 
 4252              		.loc 1 1364 17
 4253 019a FB68     		ldr	r3, [r7, #12]
 4254 019c 9B6A     		ldr	r3, [r3, #40]
1364:Drivers/STM32F7xx_HAL_Driver/Src/stm32f7xx_hal_tim_ex.c **** 
 4255              		.loc 1 1364 53
 4256 019e 4F4A     		ldr	r2, .L306+8
 4257 01a0 DA64     		str	r2, [r3, #76]
1367:Drivers/STM32F7xx_HAL_Driver/Src/stm32f7xx_hal_tim_ex.c ****       {
 4258              		.loc 1 1367 11
 4259 01a2 FB68     		ldr	r3, [r7, #12]
 4260 01a4 986A     		ldr	r0, [r3, #40]
 4261 01a6 7968     		ldr	r1, [r7, #4]
1367:Drivers/STM32F7xx_HAL_Driver/Src/stm32f7xx_hal_tim_ex.c ****       {
 4262              		.loc 1 1367 88
 4263 01a8 FB68     		ldr	r3, [r7, #12]
 4264 01aa 1B68     		ldr	r3, [r3]
1367:Drivers/STM32F7xx_HAL_Driver/Src/stm32f7xx_hal_tim_ex.c ****       {
 4265              		.loc 1 1367 83
 4266 01ac 3833     		adds	r3, r3, #56
1367:Drivers/STM32F7xx_HAL_Driver/Src/stm32f7xx_hal_tim_ex.c ****       {
 4267              		.loc 1 1367 11
 4268 01ae 1A46     		mov	r2, r3
 4269 01b0 7B88     		ldrh	r3, [r7, #2]
 4270 01b2 FFF7FEFF 		bl	HAL_DMA_Start_IT
 4271 01b6 0346     		mov	r3, r0
1367:Drivers/STM32F7xx_HAL_Driver/Src/stm32f7xx_hal_tim_ex.c ****       {
 4272              		.loc 1 1367 10
 4273 01b8 002B     		cmp	r3, #0
 4274 01ba 01D0     		beq	.L298
1370:Drivers/STM32F7xx_HAL_Driver/Src/stm32f7xx_hal_tim_ex.c ****       }
 4275              		.loc 1 1370 16
 4276 01bc 0123     		movs	r3, #1
 4277 01be 85E0     		b	.L277
 4278              	.L298:
1373:Drivers/STM32F7xx_HAL_Driver/Src/stm32f7xx_hal_tim_ex.c ****       break;
 4279              		.loc 1 1373 7
 4280 01c0 FB68     		ldr	r3, [r7, #12]
ARM GAS  /tmp/ccOFTjtU.s 			page 102


 4281 01c2 1B68     		ldr	r3, [r3]
 4282 01c4 DA68     		ldr	r2, [r3, #12]
 4283 01c6 FB68     		ldr	r3, [r7, #12]
 4284 01c8 1B68     		ldr	r3, [r3]
 4285 01ca 42F48062 		orr	r2, r2, #1024
 4286 01ce DA60     		str	r2, [r3, #12]
1374:Drivers/STM32F7xx_HAL_Driver/Src/stm32f7xx_hal_tim_ex.c ****     }
 4287              		.loc 1 1374 7
 4288 01d0 24E0     		b	.L297
 4289              	.L292:
1380:Drivers/STM32F7xx_HAL_Driver/Src/stm32f7xx_hal_tim_ex.c ****       htim->hdma[TIM_DMA_ID_CC3]->XferHalfCpltCallback = TIM_DMADelayPulseHalfCplt;
 4290              		.loc 1 1380 17
 4291 01d2 FB68     		ldr	r3, [r7, #12]
 4292 01d4 DB6A     		ldr	r3, [r3, #44]
1380:Drivers/STM32F7xx_HAL_Driver/Src/stm32f7xx_hal_tim_ex.c ****       htim->hdma[TIM_DMA_ID_CC3]->XferHalfCpltCallback = TIM_DMADelayPulseHalfCplt;
 4293              		.loc 1 1380 52
 4294 01d6 3F4A     		ldr	r2, .L306
 4295 01d8 DA63     		str	r2, [r3, #60]
1381:Drivers/STM32F7xx_HAL_Driver/Src/stm32f7xx_hal_tim_ex.c **** 
 4296              		.loc 1 1381 17
 4297 01da FB68     		ldr	r3, [r7, #12]
 4298 01dc DB6A     		ldr	r3, [r3, #44]
1381:Drivers/STM32F7xx_HAL_Driver/Src/stm32f7xx_hal_tim_ex.c **** 
 4299              		.loc 1 1381 56
 4300 01de 3E4A     		ldr	r2, .L306+4
 4301 01e0 1A64     		str	r2, [r3, #64]
1384:Drivers/STM32F7xx_HAL_Driver/Src/stm32f7xx_hal_tim_ex.c **** 
 4302              		.loc 1 1384 17
 4303 01e2 FB68     		ldr	r3, [r7, #12]
 4304 01e4 DB6A     		ldr	r3, [r3, #44]
1384:Drivers/STM32F7xx_HAL_Driver/Src/stm32f7xx_hal_tim_ex.c **** 
 4305              		.loc 1 1384 53
 4306 01e6 3D4A     		ldr	r2, .L306+8
 4307 01e8 DA64     		str	r2, [r3, #76]
1387:Drivers/STM32F7xx_HAL_Driver/Src/stm32f7xx_hal_tim_ex.c ****       {
 4308              		.loc 1 1387 11
 4309 01ea FB68     		ldr	r3, [r7, #12]
 4310 01ec D86A     		ldr	r0, [r3, #44]
 4311 01ee 7968     		ldr	r1, [r7, #4]
1387:Drivers/STM32F7xx_HAL_Driver/Src/stm32f7xx_hal_tim_ex.c ****       {
 4312              		.loc 1 1387 88
 4313 01f0 FB68     		ldr	r3, [r7, #12]
 4314 01f2 1B68     		ldr	r3, [r3]
1387:Drivers/STM32F7xx_HAL_Driver/Src/stm32f7xx_hal_tim_ex.c ****       {
 4315              		.loc 1 1387 83
 4316 01f4 3C33     		adds	r3, r3, #60
1387:Drivers/STM32F7xx_HAL_Driver/Src/stm32f7xx_hal_tim_ex.c ****       {
 4317              		.loc 1 1387 11
 4318 01f6 1A46     		mov	r2, r3
 4319 01f8 7B88     		ldrh	r3, [r7, #2]
 4320 01fa FFF7FEFF 		bl	HAL_DMA_Start_IT
 4321 01fe 0346     		mov	r3, r0
1387:Drivers/STM32F7xx_HAL_Driver/Src/stm32f7xx_hal_tim_ex.c ****       {
 4322              		.loc 1 1387 10
 4323 0200 002B     		cmp	r3, #0
 4324 0202 01D0     		beq	.L299
1390:Drivers/STM32F7xx_HAL_Driver/Src/stm32f7xx_hal_tim_ex.c ****       }
ARM GAS  /tmp/ccOFTjtU.s 			page 103


 4325              		.loc 1 1390 16
 4326 0204 0123     		movs	r3, #1
 4327 0206 61E0     		b	.L277
 4328              	.L299:
1393:Drivers/STM32F7xx_HAL_Driver/Src/stm32f7xx_hal_tim_ex.c ****       break;
 4329              		.loc 1 1393 7
 4330 0208 FB68     		ldr	r3, [r7, #12]
 4331 020a 1B68     		ldr	r3, [r3]
 4332 020c DA68     		ldr	r2, [r3, #12]
 4333 020e FB68     		ldr	r3, [r7, #12]
 4334 0210 1B68     		ldr	r3, [r3]
 4335 0212 42F40062 		orr	r2, r2, #2048
 4336 0216 DA60     		str	r2, [r3, #12]
1394:Drivers/STM32F7xx_HAL_Driver/Src/stm32f7xx_hal_tim_ex.c ****     }
 4337              		.loc 1 1394 7
 4338 0218 00E0     		b	.L297
 4339              	.L304:
 4340              		.loc 1 1398 7
 4341 021a 00BF     		nop
 4342              	.L297:
1399:Drivers/STM32F7xx_HAL_Driver/Src/stm32f7xx_hal_tim_ex.c ****   }
1400:Drivers/STM32F7xx_HAL_Driver/Src/stm32f7xx_hal_tim_ex.c **** 
1401:Drivers/STM32F7xx_HAL_Driver/Src/stm32f7xx_hal_tim_ex.c ****   /* Enable the complementary PWM output  */
1402:Drivers/STM32F7xx_HAL_Driver/Src/stm32f7xx_hal_tim_ex.c ****   TIM_CCxNChannelCmd(htim->Instance, Channel, TIM_CCxN_ENABLE);
 4343              		.loc 1 1402 3
 4344 021c FB68     		ldr	r3, [r7, #12]
 4345 021e 1B68     		ldr	r3, [r3]
 4346 0220 0422     		movs	r2, #4
 4347 0222 B968     		ldr	r1, [r7, #8]
 4348 0224 1846     		mov	r0, r3
 4349 0226 FFF7FEFF 		bl	TIM_CCxNChannelCmd
1403:Drivers/STM32F7xx_HAL_Driver/Src/stm32f7xx_hal_tim_ex.c **** 
1404:Drivers/STM32F7xx_HAL_Driver/Src/stm32f7xx_hal_tim_ex.c ****   /* Enable the Main Output */
1405:Drivers/STM32F7xx_HAL_Driver/Src/stm32f7xx_hal_tim_ex.c ****   __HAL_TIM_MOE_ENABLE(htim);
 4350              		.loc 1 1405 3
 4351 022a FB68     		ldr	r3, [r7, #12]
 4352 022c 1B68     		ldr	r3, [r3]
 4353 022e 5A6C     		ldr	r2, [r3, #68]
 4354 0230 FB68     		ldr	r3, [r7, #12]
 4355 0232 1B68     		ldr	r3, [r3]
 4356 0234 42F40042 		orr	r2, r2, #32768
 4357 0238 5A64     		str	r2, [r3, #68]
1406:Drivers/STM32F7xx_HAL_Driver/Src/stm32f7xx_hal_tim_ex.c **** 
1407:Drivers/STM32F7xx_HAL_Driver/Src/stm32f7xx_hal_tim_ex.c ****   /* Enable the Peripheral, except in trigger mode where enable is automatically done with trigger 
1408:Drivers/STM32F7xx_HAL_Driver/Src/stm32f7xx_hal_tim_ex.c ****   if (IS_TIM_SLAVE_INSTANCE(htim->Instance))
 4358              		.loc 1 1408 7
 4359 023a FB68     		ldr	r3, [r7, #12]
 4360 023c 1B68     		ldr	r3, [r3]
 4361              		.loc 1 1408 6
 4362 023e 284A     		ldr	r2, .L306+12
 4363 0240 9342     		cmp	r3, r2
 4364 0242 22D0     		beq	.L300
 4365              		.loc 1 1408 7 discriminator 1
 4366 0244 FB68     		ldr	r3, [r7, #12]
 4367 0246 1B68     		ldr	r3, [r3]
 4368 0248 B3F1804F 		cmp	r3, #1073741824
 4369 024c 1DD0     		beq	.L300
ARM GAS  /tmp/ccOFTjtU.s 			page 104


 4370              		.loc 1 1408 7 is_stmt 0 discriminator 2
 4371 024e FB68     		ldr	r3, [r7, #12]
 4372 0250 1B68     		ldr	r3, [r3]
 4373 0252 244A     		ldr	r2, .L306+16
 4374 0254 9342     		cmp	r3, r2
 4375 0256 18D0     		beq	.L300
 4376              		.loc 1 1408 7 discriminator 3
 4377 0258 FB68     		ldr	r3, [r7, #12]
 4378 025a 1B68     		ldr	r3, [r3]
 4379 025c 224A     		ldr	r2, .L306+20
 4380 025e 9342     		cmp	r3, r2
 4381 0260 13D0     		beq	.L300
 4382              		.loc 1 1408 7 discriminator 4
 4383 0262 FB68     		ldr	r3, [r7, #12]
 4384 0264 1B68     		ldr	r3, [r3]
 4385 0266 214A     		ldr	r2, .L306+24
 4386 0268 9342     		cmp	r3, r2
 4387 026a 0ED0     		beq	.L300
 4388              		.loc 1 1408 7 discriminator 5
 4389 026c FB68     		ldr	r3, [r7, #12]
 4390 026e 1B68     		ldr	r3, [r3]
 4391 0270 1F4A     		ldr	r2, .L306+28
 4392 0272 9342     		cmp	r3, r2
 4393 0274 09D0     		beq	.L300
 4394              		.loc 1 1408 7 discriminator 6
 4395 0276 FB68     		ldr	r3, [r7, #12]
 4396 0278 1B68     		ldr	r3, [r3]
 4397 027a 1E4A     		ldr	r2, .L306+32
 4398 027c 9342     		cmp	r3, r2
 4399 027e 04D0     		beq	.L300
 4400              		.loc 1 1408 7 discriminator 7
 4401 0280 FB68     		ldr	r3, [r7, #12]
 4402 0282 1B68     		ldr	r3, [r3]
 4403 0284 1C4A     		ldr	r2, .L306+36
 4404 0286 9342     		cmp	r3, r2
 4405 0288 15D1     		bne	.L301
 4406              	.L300:
1409:Drivers/STM32F7xx_HAL_Driver/Src/stm32f7xx_hal_tim_ex.c ****   {
1410:Drivers/STM32F7xx_HAL_Driver/Src/stm32f7xx_hal_tim_ex.c ****     tmpsmcr = htim->Instance->SMCR & TIM_SMCR_SMS;
 4407              		.loc 1 1410 19 is_stmt 1
 4408 028a FB68     		ldr	r3, [r7, #12]
 4409 028c 1B68     		ldr	r3, [r3]
 4410              		.loc 1 1410 29
 4411 028e 9A68     		ldr	r2, [r3, #8]
 4412              		.loc 1 1410 13
 4413 0290 1A4B     		ldr	r3, .L306+40
 4414 0292 1340     		ands	r3, r3, r2
 4415 0294 7B61     		str	r3, [r7, #20]
1411:Drivers/STM32F7xx_HAL_Driver/Src/stm32f7xx_hal_tim_ex.c ****     if (!IS_TIM_SLAVEMODE_TRIGGER_ENABLED(tmpsmcr))
 4416              		.loc 1 1411 8
 4417 0296 7B69     		ldr	r3, [r7, #20]
 4418 0298 062B     		cmp	r3, #6
 4419 029a 15D0     		beq	.L305
 4420              		.loc 1 1411 9 discriminator 1
 4421 029c 7B69     		ldr	r3, [r7, #20]
 4422 029e B3F5803F 		cmp	r3, #65536
 4423 02a2 11D0     		beq	.L305
ARM GAS  /tmp/ccOFTjtU.s 			page 105


1412:Drivers/STM32F7xx_HAL_Driver/Src/stm32f7xx_hal_tim_ex.c ****     {
1413:Drivers/STM32F7xx_HAL_Driver/Src/stm32f7xx_hal_tim_ex.c ****       __HAL_TIM_ENABLE(htim);
 4424              		.loc 1 1413 7
 4425 02a4 FB68     		ldr	r3, [r7, #12]
 4426 02a6 1B68     		ldr	r3, [r3]
 4427 02a8 1A68     		ldr	r2, [r3]
 4428 02aa FB68     		ldr	r3, [r7, #12]
 4429 02ac 1B68     		ldr	r3, [r3]
 4430 02ae 42F00102 		orr	r2, r2, #1
 4431 02b2 1A60     		str	r2, [r3]
1411:Drivers/STM32F7xx_HAL_Driver/Src/stm32f7xx_hal_tim_ex.c ****     if (!IS_TIM_SLAVEMODE_TRIGGER_ENABLED(tmpsmcr))
 4432              		.loc 1 1411 8
 4433 02b4 08E0     		b	.L305
 4434              	.L301:
1414:Drivers/STM32F7xx_HAL_Driver/Src/stm32f7xx_hal_tim_ex.c ****     }
1415:Drivers/STM32F7xx_HAL_Driver/Src/stm32f7xx_hal_tim_ex.c ****   }
1416:Drivers/STM32F7xx_HAL_Driver/Src/stm32f7xx_hal_tim_ex.c ****   else
1417:Drivers/STM32F7xx_HAL_Driver/Src/stm32f7xx_hal_tim_ex.c ****   {
1418:Drivers/STM32F7xx_HAL_Driver/Src/stm32f7xx_hal_tim_ex.c ****     __HAL_TIM_ENABLE(htim);
 4435              		.loc 1 1418 5
 4436 02b6 FB68     		ldr	r3, [r7, #12]
 4437 02b8 1B68     		ldr	r3, [r3]
 4438 02ba 1A68     		ldr	r2, [r3]
 4439 02bc FB68     		ldr	r3, [r7, #12]
 4440 02be 1B68     		ldr	r3, [r3]
 4441 02c0 42F00102 		orr	r2, r2, #1
 4442 02c4 1A60     		str	r2, [r3]
 4443 02c6 00E0     		b	.L303
 4444              	.L305:
1411:Drivers/STM32F7xx_HAL_Driver/Src/stm32f7xx_hal_tim_ex.c ****     {
 4445              		.loc 1 1411 8
 4446 02c8 00BF     		nop
 4447              	.L303:
1419:Drivers/STM32F7xx_HAL_Driver/Src/stm32f7xx_hal_tim_ex.c ****   }
1420:Drivers/STM32F7xx_HAL_Driver/Src/stm32f7xx_hal_tim_ex.c **** 
1421:Drivers/STM32F7xx_HAL_Driver/Src/stm32f7xx_hal_tim_ex.c ****   /* Return function status */
1422:Drivers/STM32F7xx_HAL_Driver/Src/stm32f7xx_hal_tim_ex.c ****   return HAL_OK;
 4448              		.loc 1 1422 10
 4449 02ca 0023     		movs	r3, #0
 4450              	.L277:
1423:Drivers/STM32F7xx_HAL_Driver/Src/stm32f7xx_hal_tim_ex.c **** }
 4451              		.loc 1 1423 1
 4452 02cc 1846     		mov	r0, r3
 4453 02ce 1837     		adds	r7, r7, #24
 4454              	.LCFI105:
 4455              		.cfi_def_cfa_offset 8
 4456 02d0 BD46     		mov	sp, r7
 4457              	.LCFI106:
 4458              		.cfi_def_cfa_register 13
 4459              		@ sp needed
 4460 02d2 80BD     		pop	{r7, pc}
 4461              	.L307:
 4462              		.align	2
 4463              	.L306:
 4464 02d4 00000000 		.word	TIM_DMADelayPulseNCplt
 4465 02d8 00000000 		.word	TIM_DMADelayPulseHalfCplt
 4466 02dc 00000000 		.word	TIM_DMAErrorCCxN
ARM GAS  /tmp/ccOFTjtU.s 			page 106


 4467 02e0 00000140 		.word	1073807360
 4468 02e4 00040040 		.word	1073742848
 4469 02e8 00080040 		.word	1073743872
 4470 02ec 000C0040 		.word	1073744896
 4471 02f0 00040140 		.word	1073808384
 4472 02f4 00400140 		.word	1073823744
 4473 02f8 00180040 		.word	1073747968
 4474 02fc 07000100 		.word	65543
 4475              		.cfi_endproc
 4476              	.LFE161:
 4478              		.section	.text.HAL_TIMEx_PWMN_Stop_DMA,"ax",%progbits
 4479              		.align	1
 4480              		.global	HAL_TIMEx_PWMN_Stop_DMA
 4481              		.syntax unified
 4482              		.thumb
 4483              		.thumb_func
 4484              		.fpu fpv5-d16
 4486              	HAL_TIMEx_PWMN_Stop_DMA:
 4487              	.LFB162:
1424:Drivers/STM32F7xx_HAL_Driver/Src/stm32f7xx_hal_tim_ex.c **** 
1425:Drivers/STM32F7xx_HAL_Driver/Src/stm32f7xx_hal_tim_ex.c **** /**
1426:Drivers/STM32F7xx_HAL_Driver/Src/stm32f7xx_hal_tim_ex.c ****   * @brief  Stops the TIM PWM signal generation in DMA mode on the complementary
1427:Drivers/STM32F7xx_HAL_Driver/Src/stm32f7xx_hal_tim_ex.c ****   *         output
1428:Drivers/STM32F7xx_HAL_Driver/Src/stm32f7xx_hal_tim_ex.c ****   * @param  htim TIM handle
1429:Drivers/STM32F7xx_HAL_Driver/Src/stm32f7xx_hal_tim_ex.c ****   * @param  Channel TIM Channel to be disabled
1430:Drivers/STM32F7xx_HAL_Driver/Src/stm32f7xx_hal_tim_ex.c ****   *          This parameter can be one of the following values:
1431:Drivers/STM32F7xx_HAL_Driver/Src/stm32f7xx_hal_tim_ex.c ****   *            @arg TIM_CHANNEL_1: TIM Channel 1 selected
1432:Drivers/STM32F7xx_HAL_Driver/Src/stm32f7xx_hal_tim_ex.c ****   *            @arg TIM_CHANNEL_2: TIM Channel 2 selected
1433:Drivers/STM32F7xx_HAL_Driver/Src/stm32f7xx_hal_tim_ex.c ****   *            @arg TIM_CHANNEL_3: TIM Channel 3 selected
1434:Drivers/STM32F7xx_HAL_Driver/Src/stm32f7xx_hal_tim_ex.c ****   * @retval HAL status
1435:Drivers/STM32F7xx_HAL_Driver/Src/stm32f7xx_hal_tim_ex.c ****   */
1436:Drivers/STM32F7xx_HAL_Driver/Src/stm32f7xx_hal_tim_ex.c **** HAL_StatusTypeDef HAL_TIMEx_PWMN_Stop_DMA(TIM_HandleTypeDef *htim, uint32_t Channel)
1437:Drivers/STM32F7xx_HAL_Driver/Src/stm32f7xx_hal_tim_ex.c **** {
 4488              		.loc 1 1437 1
 4489              		.cfi_startproc
 4490              		@ args = 0, pretend = 0, frame = 8
 4491              		@ frame_needed = 1, uses_anonymous_args = 0
 4492 0000 80B5     		push	{r7, lr}
 4493              	.LCFI107:
 4494              		.cfi_def_cfa_offset 8
 4495              		.cfi_offset 7, -8
 4496              		.cfi_offset 14, -4
 4497 0002 82B0     		sub	sp, sp, #8
 4498              	.LCFI108:
 4499              		.cfi_def_cfa_offset 16
 4500 0004 00AF     		add	r7, sp, #0
 4501              	.LCFI109:
 4502              		.cfi_def_cfa_register 7
 4503 0006 7860     		str	r0, [r7, #4]
 4504 0008 3960     		str	r1, [r7]
1438:Drivers/STM32F7xx_HAL_Driver/Src/stm32f7xx_hal_tim_ex.c ****   /* Check the parameters */
1439:Drivers/STM32F7xx_HAL_Driver/Src/stm32f7xx_hal_tim_ex.c ****   assert_param(IS_TIM_CCXN_INSTANCE(htim->Instance, Channel));
1440:Drivers/STM32F7xx_HAL_Driver/Src/stm32f7xx_hal_tim_ex.c **** 
1441:Drivers/STM32F7xx_HAL_Driver/Src/stm32f7xx_hal_tim_ex.c ****   switch (Channel)
 4505              		.loc 1 1441 3
 4506 000a 3B68     		ldr	r3, [r7]
 4507 000c 082B     		cmp	r3, #8
ARM GAS  /tmp/ccOFTjtU.s 			page 107


 4508 000e 25D0     		beq	.L309
 4509 0010 3B68     		ldr	r3, [r7]
 4510 0012 082B     		cmp	r3, #8
 4511 0014 30D8     		bhi	.L323
 4512 0016 3B68     		ldr	r3, [r7]
 4513 0018 002B     		cmp	r3, #0
 4514 001a 03D0     		beq	.L311
 4515 001c 3B68     		ldr	r3, [r7]
 4516 001e 042B     		cmp	r3, #4
 4517 0020 0ED0     		beq	.L312
1442:Drivers/STM32F7xx_HAL_Driver/Src/stm32f7xx_hal_tim_ex.c ****   {
1443:Drivers/STM32F7xx_HAL_Driver/Src/stm32f7xx_hal_tim_ex.c ****     case TIM_CHANNEL_1:
1444:Drivers/STM32F7xx_HAL_Driver/Src/stm32f7xx_hal_tim_ex.c ****     {
1445:Drivers/STM32F7xx_HAL_Driver/Src/stm32f7xx_hal_tim_ex.c ****       /* Disable the TIM Capture/Compare 1 DMA request */
1446:Drivers/STM32F7xx_HAL_Driver/Src/stm32f7xx_hal_tim_ex.c ****       __HAL_TIM_DISABLE_DMA(htim, TIM_DMA_CC1);
1447:Drivers/STM32F7xx_HAL_Driver/Src/stm32f7xx_hal_tim_ex.c ****       (void)HAL_DMA_Abort_IT(htim->hdma[TIM_DMA_ID_CC1]);
1448:Drivers/STM32F7xx_HAL_Driver/Src/stm32f7xx_hal_tim_ex.c ****       break;
1449:Drivers/STM32F7xx_HAL_Driver/Src/stm32f7xx_hal_tim_ex.c ****     }
1450:Drivers/STM32F7xx_HAL_Driver/Src/stm32f7xx_hal_tim_ex.c **** 
1451:Drivers/STM32F7xx_HAL_Driver/Src/stm32f7xx_hal_tim_ex.c ****     case TIM_CHANNEL_2:
1452:Drivers/STM32F7xx_HAL_Driver/Src/stm32f7xx_hal_tim_ex.c ****     {
1453:Drivers/STM32F7xx_HAL_Driver/Src/stm32f7xx_hal_tim_ex.c ****       /* Disable the TIM Capture/Compare 2 DMA request */
1454:Drivers/STM32F7xx_HAL_Driver/Src/stm32f7xx_hal_tim_ex.c ****       __HAL_TIM_DISABLE_DMA(htim, TIM_DMA_CC2);
1455:Drivers/STM32F7xx_HAL_Driver/Src/stm32f7xx_hal_tim_ex.c ****       (void)HAL_DMA_Abort_IT(htim->hdma[TIM_DMA_ID_CC2]);
1456:Drivers/STM32F7xx_HAL_Driver/Src/stm32f7xx_hal_tim_ex.c ****       break;
1457:Drivers/STM32F7xx_HAL_Driver/Src/stm32f7xx_hal_tim_ex.c ****     }
1458:Drivers/STM32F7xx_HAL_Driver/Src/stm32f7xx_hal_tim_ex.c **** 
1459:Drivers/STM32F7xx_HAL_Driver/Src/stm32f7xx_hal_tim_ex.c ****     case TIM_CHANNEL_3:
1460:Drivers/STM32F7xx_HAL_Driver/Src/stm32f7xx_hal_tim_ex.c ****     {
1461:Drivers/STM32F7xx_HAL_Driver/Src/stm32f7xx_hal_tim_ex.c ****       /* Disable the TIM Capture/Compare 3 DMA request */
1462:Drivers/STM32F7xx_HAL_Driver/Src/stm32f7xx_hal_tim_ex.c ****       __HAL_TIM_DISABLE_DMA(htim, TIM_DMA_CC3);
1463:Drivers/STM32F7xx_HAL_Driver/Src/stm32f7xx_hal_tim_ex.c ****       (void)HAL_DMA_Abort_IT(htim->hdma[TIM_DMA_ID_CC3]);
1464:Drivers/STM32F7xx_HAL_Driver/Src/stm32f7xx_hal_tim_ex.c ****       break;
1465:Drivers/STM32F7xx_HAL_Driver/Src/stm32f7xx_hal_tim_ex.c ****     }
1466:Drivers/STM32F7xx_HAL_Driver/Src/stm32f7xx_hal_tim_ex.c **** 
1467:Drivers/STM32F7xx_HAL_Driver/Src/stm32f7xx_hal_tim_ex.c ****     default:
1468:Drivers/STM32F7xx_HAL_Driver/Src/stm32f7xx_hal_tim_ex.c ****       break;
 4518              		.loc 1 1468 7
 4519 0022 29E0     		b	.L323
 4520              	.L311:
1446:Drivers/STM32F7xx_HAL_Driver/Src/stm32f7xx_hal_tim_ex.c ****       (void)HAL_DMA_Abort_IT(htim->hdma[TIM_DMA_ID_CC1]);
 4521              		.loc 1 1446 7
 4522 0024 7B68     		ldr	r3, [r7, #4]
 4523 0026 1B68     		ldr	r3, [r3]
 4524 0028 DA68     		ldr	r2, [r3, #12]
 4525 002a 7B68     		ldr	r3, [r7, #4]
 4526 002c 1B68     		ldr	r3, [r3]
 4527 002e 22F40072 		bic	r2, r2, #512
 4528 0032 DA60     		str	r2, [r3, #12]
1447:Drivers/STM32F7xx_HAL_Driver/Src/stm32f7xx_hal_tim_ex.c ****       break;
 4529              		.loc 1 1447 13
 4530 0034 7B68     		ldr	r3, [r7, #4]
 4531 0036 5B6A     		ldr	r3, [r3, #36]
 4532 0038 1846     		mov	r0, r3
 4533 003a FFF7FEFF 		bl	HAL_DMA_Abort_IT
1448:Drivers/STM32F7xx_HAL_Driver/Src/stm32f7xx_hal_tim_ex.c ****     }
 4534              		.loc 1 1448 7
ARM GAS  /tmp/ccOFTjtU.s 			page 108


 4535 003e 1CE0     		b	.L313
 4536              	.L312:
1454:Drivers/STM32F7xx_HAL_Driver/Src/stm32f7xx_hal_tim_ex.c ****       (void)HAL_DMA_Abort_IT(htim->hdma[TIM_DMA_ID_CC2]);
 4537              		.loc 1 1454 7
 4538 0040 7B68     		ldr	r3, [r7, #4]
 4539 0042 1B68     		ldr	r3, [r3]
 4540 0044 DA68     		ldr	r2, [r3, #12]
 4541 0046 7B68     		ldr	r3, [r7, #4]
 4542 0048 1B68     		ldr	r3, [r3]
 4543 004a 22F48062 		bic	r2, r2, #1024
 4544 004e DA60     		str	r2, [r3, #12]
1455:Drivers/STM32F7xx_HAL_Driver/Src/stm32f7xx_hal_tim_ex.c ****       break;
 4545              		.loc 1 1455 13
 4546 0050 7B68     		ldr	r3, [r7, #4]
 4547 0052 9B6A     		ldr	r3, [r3, #40]
 4548 0054 1846     		mov	r0, r3
 4549 0056 FFF7FEFF 		bl	HAL_DMA_Abort_IT
1456:Drivers/STM32F7xx_HAL_Driver/Src/stm32f7xx_hal_tim_ex.c ****     }
 4550              		.loc 1 1456 7
 4551 005a 0EE0     		b	.L313
 4552              	.L309:
1462:Drivers/STM32F7xx_HAL_Driver/Src/stm32f7xx_hal_tim_ex.c ****       (void)HAL_DMA_Abort_IT(htim->hdma[TIM_DMA_ID_CC3]);
 4553              		.loc 1 1462 7
 4554 005c 7B68     		ldr	r3, [r7, #4]
 4555 005e 1B68     		ldr	r3, [r3]
 4556 0060 DA68     		ldr	r2, [r3, #12]
 4557 0062 7B68     		ldr	r3, [r7, #4]
 4558 0064 1B68     		ldr	r3, [r3]
 4559 0066 22F40062 		bic	r2, r2, #2048
 4560 006a DA60     		str	r2, [r3, #12]
1463:Drivers/STM32F7xx_HAL_Driver/Src/stm32f7xx_hal_tim_ex.c ****       break;
 4561              		.loc 1 1463 13
 4562 006c 7B68     		ldr	r3, [r7, #4]
 4563 006e DB6A     		ldr	r3, [r3, #44]
 4564 0070 1846     		mov	r0, r3
 4565 0072 FFF7FEFF 		bl	HAL_DMA_Abort_IT
1464:Drivers/STM32F7xx_HAL_Driver/Src/stm32f7xx_hal_tim_ex.c ****     }
 4566              		.loc 1 1464 7
 4567 0076 00E0     		b	.L313
 4568              	.L323:
 4569              		.loc 1 1468 7
 4570 0078 00BF     		nop
 4571              	.L313:
1469:Drivers/STM32F7xx_HAL_Driver/Src/stm32f7xx_hal_tim_ex.c ****   }
1470:Drivers/STM32F7xx_HAL_Driver/Src/stm32f7xx_hal_tim_ex.c **** 
1471:Drivers/STM32F7xx_HAL_Driver/Src/stm32f7xx_hal_tim_ex.c ****   /* Disable the complementary PWM output */
1472:Drivers/STM32F7xx_HAL_Driver/Src/stm32f7xx_hal_tim_ex.c ****   TIM_CCxNChannelCmd(htim->Instance, Channel, TIM_CCxN_DISABLE);
 4572              		.loc 1 1472 3
 4573 007a 7B68     		ldr	r3, [r7, #4]
 4574 007c 1B68     		ldr	r3, [r3]
 4575 007e 0022     		movs	r2, #0
 4576 0080 3968     		ldr	r1, [r7]
 4577 0082 1846     		mov	r0, r3
 4578 0084 FFF7FEFF 		bl	TIM_CCxNChannelCmd
1473:Drivers/STM32F7xx_HAL_Driver/Src/stm32f7xx_hal_tim_ex.c **** 
1474:Drivers/STM32F7xx_HAL_Driver/Src/stm32f7xx_hal_tim_ex.c ****   /* Disable the Main Output */
1475:Drivers/STM32F7xx_HAL_Driver/Src/stm32f7xx_hal_tim_ex.c ****   __HAL_TIM_MOE_DISABLE(htim);
ARM GAS  /tmp/ccOFTjtU.s 			page 109


 4579              		.loc 1 1475 3
 4580 0088 7B68     		ldr	r3, [r7, #4]
 4581 008a 1B68     		ldr	r3, [r3]
 4582 008c 1A6A     		ldr	r2, [r3, #32]
 4583 008e 41F21113 		movw	r3, #4369
 4584 0092 1340     		ands	r3, r3, r2
 4585 0094 002B     		cmp	r3, #0
 4586 0096 0FD1     		bne	.L314
 4587              		.loc 1 1475 3 is_stmt 0 discriminator 1
 4588 0098 7B68     		ldr	r3, [r7, #4]
 4589 009a 1B68     		ldr	r3, [r3]
 4590 009c 1A6A     		ldr	r2, [r3, #32]
 4591 009e 40F24443 		movw	r3, #1092
 4592 00a2 1340     		ands	r3, r3, r2
 4593 00a4 002B     		cmp	r3, #0
 4594 00a6 07D1     		bne	.L314
 4595              		.loc 1 1475 3 discriminator 2
 4596 00a8 7B68     		ldr	r3, [r7, #4]
 4597 00aa 1B68     		ldr	r3, [r3]
 4598 00ac 5A6C     		ldr	r2, [r3, #68]
 4599 00ae 7B68     		ldr	r3, [r7, #4]
 4600 00b0 1B68     		ldr	r3, [r3]
 4601 00b2 22F40042 		bic	r2, r2, #32768
 4602 00b6 5A64     		str	r2, [r3, #68]
 4603              	.L314:
1476:Drivers/STM32F7xx_HAL_Driver/Src/stm32f7xx_hal_tim_ex.c **** 
1477:Drivers/STM32F7xx_HAL_Driver/Src/stm32f7xx_hal_tim_ex.c ****   /* Disable the Peripheral */
1478:Drivers/STM32F7xx_HAL_Driver/Src/stm32f7xx_hal_tim_ex.c ****   __HAL_TIM_DISABLE(htim);
 4604              		.loc 1 1478 3 is_stmt 1
 4605 00b8 7B68     		ldr	r3, [r7, #4]
 4606 00ba 1B68     		ldr	r3, [r3]
 4607 00bc 1A6A     		ldr	r2, [r3, #32]
 4608 00be 41F21113 		movw	r3, #4369
 4609 00c2 1340     		ands	r3, r3, r2
 4610 00c4 002B     		cmp	r3, #0
 4611 00c6 0FD1     		bne	.L315
 4612              		.loc 1 1478 3 is_stmt 0 discriminator 1
 4613 00c8 7B68     		ldr	r3, [r7, #4]
 4614 00ca 1B68     		ldr	r3, [r3]
 4615 00cc 1A6A     		ldr	r2, [r3, #32]
 4616 00ce 40F24443 		movw	r3, #1092
 4617 00d2 1340     		ands	r3, r3, r2
 4618 00d4 002B     		cmp	r3, #0
 4619 00d6 07D1     		bne	.L315
 4620              		.loc 1 1478 3 discriminator 2
 4621 00d8 7B68     		ldr	r3, [r7, #4]
 4622 00da 1B68     		ldr	r3, [r3]
 4623 00dc 1A68     		ldr	r2, [r3]
 4624 00de 7B68     		ldr	r3, [r7, #4]
 4625 00e0 1B68     		ldr	r3, [r3]
 4626 00e2 22F00102 		bic	r2, r2, #1
 4627 00e6 1A60     		str	r2, [r3]
 4628              	.L315:
1479:Drivers/STM32F7xx_HAL_Driver/Src/stm32f7xx_hal_tim_ex.c **** 
1480:Drivers/STM32F7xx_HAL_Driver/Src/stm32f7xx_hal_tim_ex.c ****   /* Set the TIM complementary channel state */
1481:Drivers/STM32F7xx_HAL_Driver/Src/stm32f7xx_hal_tim_ex.c ****   TIM_CHANNEL_N_STATE_SET(htim, Channel, HAL_TIM_CHANNEL_STATE_READY);
 4629              		.loc 1 1481 3 is_stmt 1
ARM GAS  /tmp/ccOFTjtU.s 			page 110


 4630 00e8 3B68     		ldr	r3, [r7]
 4631 00ea 002B     		cmp	r3, #0
 4632 00ec 04D1     		bne	.L316
 4633              		.loc 1 1481 3 is_stmt 0 discriminator 1
 4634 00ee 7B68     		ldr	r3, [r7, #4]
 4635 00f0 0122     		movs	r2, #1
 4636 00f2 83F84420 		strb	r2, [r3, #68]
 4637 00f6 13E0     		b	.L317
 4638              	.L316:
 4639              		.loc 1 1481 3 discriminator 2
 4640 00f8 3B68     		ldr	r3, [r7]
 4641 00fa 042B     		cmp	r3, #4
 4642 00fc 04D1     		bne	.L318
 4643              		.loc 1 1481 3 discriminator 3
 4644 00fe 7B68     		ldr	r3, [r7, #4]
 4645 0100 0122     		movs	r2, #1
 4646 0102 83F84520 		strb	r2, [r3, #69]
 4647 0106 0BE0     		b	.L317
 4648              	.L318:
 4649              		.loc 1 1481 3 discriminator 4
 4650 0108 3B68     		ldr	r3, [r7]
 4651 010a 082B     		cmp	r3, #8
 4652 010c 04D1     		bne	.L320
 4653              		.loc 1 1481 3 discriminator 6
 4654 010e 7B68     		ldr	r3, [r7, #4]
 4655 0110 0122     		movs	r2, #1
 4656 0112 83F84620 		strb	r2, [r3, #70]
 4657 0116 03E0     		b	.L317
 4658              	.L320:
 4659              		.loc 1 1481 3 discriminator 7
 4660 0118 7B68     		ldr	r3, [r7, #4]
 4661 011a 0122     		movs	r2, #1
 4662 011c 83F84720 		strb	r2, [r3, #71]
 4663              	.L317:
1482:Drivers/STM32F7xx_HAL_Driver/Src/stm32f7xx_hal_tim_ex.c **** 
1483:Drivers/STM32F7xx_HAL_Driver/Src/stm32f7xx_hal_tim_ex.c ****   /* Return function status */
1484:Drivers/STM32F7xx_HAL_Driver/Src/stm32f7xx_hal_tim_ex.c ****   return HAL_OK;
 4664              		.loc 1 1484 10 is_stmt 1
 4665 0120 0023     		movs	r3, #0
1485:Drivers/STM32F7xx_HAL_Driver/Src/stm32f7xx_hal_tim_ex.c **** }
 4666              		.loc 1 1485 1
 4667 0122 1846     		mov	r0, r3
 4668 0124 0837     		adds	r7, r7, #8
 4669              	.LCFI110:
 4670              		.cfi_def_cfa_offset 8
 4671 0126 BD46     		mov	sp, r7
 4672              	.LCFI111:
 4673              		.cfi_def_cfa_register 13
 4674              		@ sp needed
 4675 0128 80BD     		pop	{r7, pc}
 4676              		.cfi_endproc
 4677              	.LFE162:
 4679              		.section	.text.HAL_TIMEx_OnePulseN_Start,"ax",%progbits
 4680              		.align	1
 4681              		.global	HAL_TIMEx_OnePulseN_Start
 4682              		.syntax unified
 4683              		.thumb
ARM GAS  /tmp/ccOFTjtU.s 			page 111


 4684              		.thumb_func
 4685              		.fpu fpv5-d16
 4687              	HAL_TIMEx_OnePulseN_Start:
 4688              	.LFB163:
1486:Drivers/STM32F7xx_HAL_Driver/Src/stm32f7xx_hal_tim_ex.c **** 
1487:Drivers/STM32F7xx_HAL_Driver/Src/stm32f7xx_hal_tim_ex.c **** /**
1488:Drivers/STM32F7xx_HAL_Driver/Src/stm32f7xx_hal_tim_ex.c ****   * @}
1489:Drivers/STM32F7xx_HAL_Driver/Src/stm32f7xx_hal_tim_ex.c ****   */
1490:Drivers/STM32F7xx_HAL_Driver/Src/stm32f7xx_hal_tim_ex.c **** 
1491:Drivers/STM32F7xx_HAL_Driver/Src/stm32f7xx_hal_tim_ex.c **** /** @defgroup TIMEx_Exported_Functions_Group4 Extended Timer Complementary One Pulse functions
1492:Drivers/STM32F7xx_HAL_Driver/Src/stm32f7xx_hal_tim_ex.c ****   * @brief    Timer Complementary One Pulse functions
1493:Drivers/STM32F7xx_HAL_Driver/Src/stm32f7xx_hal_tim_ex.c ****   *
1494:Drivers/STM32F7xx_HAL_Driver/Src/stm32f7xx_hal_tim_ex.c **** @verbatim
1495:Drivers/STM32F7xx_HAL_Driver/Src/stm32f7xx_hal_tim_ex.c ****   ==============================================================================
1496:Drivers/STM32F7xx_HAL_Driver/Src/stm32f7xx_hal_tim_ex.c ****                 ##### Timer Complementary One Pulse functions #####
1497:Drivers/STM32F7xx_HAL_Driver/Src/stm32f7xx_hal_tim_ex.c ****   ==============================================================================
1498:Drivers/STM32F7xx_HAL_Driver/Src/stm32f7xx_hal_tim_ex.c ****   [..]
1499:Drivers/STM32F7xx_HAL_Driver/Src/stm32f7xx_hal_tim_ex.c ****     This section provides functions allowing to:
1500:Drivers/STM32F7xx_HAL_Driver/Src/stm32f7xx_hal_tim_ex.c ****     (+) Start the Complementary One Pulse generation.
1501:Drivers/STM32F7xx_HAL_Driver/Src/stm32f7xx_hal_tim_ex.c ****     (+) Stop the Complementary One Pulse.
1502:Drivers/STM32F7xx_HAL_Driver/Src/stm32f7xx_hal_tim_ex.c ****     (+) Start the Complementary One Pulse and enable interrupts.
1503:Drivers/STM32F7xx_HAL_Driver/Src/stm32f7xx_hal_tim_ex.c ****     (+) Stop the Complementary One Pulse and disable interrupts.
1504:Drivers/STM32F7xx_HAL_Driver/Src/stm32f7xx_hal_tim_ex.c **** 
1505:Drivers/STM32F7xx_HAL_Driver/Src/stm32f7xx_hal_tim_ex.c **** @endverbatim
1506:Drivers/STM32F7xx_HAL_Driver/Src/stm32f7xx_hal_tim_ex.c ****   * @{
1507:Drivers/STM32F7xx_HAL_Driver/Src/stm32f7xx_hal_tim_ex.c ****   */
1508:Drivers/STM32F7xx_HAL_Driver/Src/stm32f7xx_hal_tim_ex.c **** 
1509:Drivers/STM32F7xx_HAL_Driver/Src/stm32f7xx_hal_tim_ex.c **** /**
1510:Drivers/STM32F7xx_HAL_Driver/Src/stm32f7xx_hal_tim_ex.c ****   * @brief  Starts the TIM One Pulse signal generation on the complementary
1511:Drivers/STM32F7xx_HAL_Driver/Src/stm32f7xx_hal_tim_ex.c ****   *         output.
1512:Drivers/STM32F7xx_HAL_Driver/Src/stm32f7xx_hal_tim_ex.c ****   * @note OutputChannel must match the pulse output channel chosen when calling 
1513:Drivers/STM32F7xx_HAL_Driver/Src/stm32f7xx_hal_tim_ex.c ****   *       @ref HAL_TIM_OnePulse_ConfigChannel(). 
1514:Drivers/STM32F7xx_HAL_Driver/Src/stm32f7xx_hal_tim_ex.c ****   * @param  htim TIM One Pulse handle
1515:Drivers/STM32F7xx_HAL_Driver/Src/stm32f7xx_hal_tim_ex.c ****   * @param  OutputChannel pulse output channel to enable
1516:Drivers/STM32F7xx_HAL_Driver/Src/stm32f7xx_hal_tim_ex.c ****   *          This parameter can be one of the following values:
1517:Drivers/STM32F7xx_HAL_Driver/Src/stm32f7xx_hal_tim_ex.c ****   *            @arg TIM_CHANNEL_1: TIM Channel 1 selected
1518:Drivers/STM32F7xx_HAL_Driver/Src/stm32f7xx_hal_tim_ex.c ****   *            @arg TIM_CHANNEL_2: TIM Channel 2 selected
1519:Drivers/STM32F7xx_HAL_Driver/Src/stm32f7xx_hal_tim_ex.c ****   * @retval HAL status
1520:Drivers/STM32F7xx_HAL_Driver/Src/stm32f7xx_hal_tim_ex.c ****   */
1521:Drivers/STM32F7xx_HAL_Driver/Src/stm32f7xx_hal_tim_ex.c **** HAL_StatusTypeDef HAL_TIMEx_OnePulseN_Start(TIM_HandleTypeDef *htim, uint32_t OutputChannel)
1522:Drivers/STM32F7xx_HAL_Driver/Src/stm32f7xx_hal_tim_ex.c **** {
 4689              		.loc 1 1522 1
 4690              		.cfi_startproc
 4691              		@ args = 0, pretend = 0, frame = 16
 4692              		@ frame_needed = 1, uses_anonymous_args = 0
 4693 0000 80B5     		push	{r7, lr}
 4694              	.LCFI112:
 4695              		.cfi_def_cfa_offset 8
 4696              		.cfi_offset 7, -8
 4697              		.cfi_offset 14, -4
 4698 0002 84B0     		sub	sp, sp, #16
 4699              	.LCFI113:
 4700              		.cfi_def_cfa_offset 24
 4701 0004 00AF     		add	r7, sp, #0
 4702              	.LCFI114:
 4703              		.cfi_def_cfa_register 7
 4704 0006 7860     		str	r0, [r7, #4]
ARM GAS  /tmp/ccOFTjtU.s 			page 112


 4705 0008 3960     		str	r1, [r7]
1523:Drivers/STM32F7xx_HAL_Driver/Src/stm32f7xx_hal_tim_ex.c ****   uint32_t input_channel = (OutputChannel == TIM_CHANNEL_1) ? TIM_CHANNEL_2 : TIM_CHANNEL_1;
 4706              		.loc 1 1523 77
 4707 000a 3B68     		ldr	r3, [r7]
 4708 000c 002B     		cmp	r3, #0
 4709 000e 01D1     		bne	.L325
 4710              		.loc 1 1523 77 is_stmt 0 discriminator 1
 4711 0010 0423     		movs	r3, #4
 4712 0012 00E0     		b	.L326
 4713              	.L325:
 4714              		.loc 1 1523 77 discriminator 2
 4715 0014 0023     		movs	r3, #0
 4716              	.L326:
 4717              		.loc 1 1523 12 is_stmt 1 discriminator 4
 4718 0016 FB60     		str	r3, [r7, #12]
1524:Drivers/STM32F7xx_HAL_Driver/Src/stm32f7xx_hal_tim_ex.c ****   HAL_TIM_ChannelStateTypeDef channel_1_state = TIM_CHANNEL_STATE_GET(htim, TIM_CHANNEL_1);
 4719              		.loc 1 1524 31 discriminator 4
 4720 0018 7B68     		ldr	r3, [r7, #4]
 4721 001a 93F83E30 		ldrb	r3, [r3, #62]
 4722 001e FB72     		strb	r3, [r7, #11]
1525:Drivers/STM32F7xx_HAL_Driver/Src/stm32f7xx_hal_tim_ex.c ****   HAL_TIM_ChannelStateTypeDef channel_2_state = TIM_CHANNEL_STATE_GET(htim, TIM_CHANNEL_2);
 4723              		.loc 1 1525 31 discriminator 4
 4724 0020 7B68     		ldr	r3, [r7, #4]
 4725 0022 93F83F30 		ldrb	r3, [r3, #63]
 4726 0026 BB72     		strb	r3, [r7, #10]
1526:Drivers/STM32F7xx_HAL_Driver/Src/stm32f7xx_hal_tim_ex.c ****   HAL_TIM_ChannelStateTypeDef complementary_channel_1_state = TIM_CHANNEL_N_STATE_GET(htim, TIM_CHA
 4727              		.loc 1 1526 31 discriminator 4
 4728 0028 7B68     		ldr	r3, [r7, #4]
 4729 002a 93F84430 		ldrb	r3, [r3, #68]
 4730 002e 7B72     		strb	r3, [r7, #9]
1527:Drivers/STM32F7xx_HAL_Driver/Src/stm32f7xx_hal_tim_ex.c ****   HAL_TIM_ChannelStateTypeDef complementary_channel_2_state = TIM_CHANNEL_N_STATE_GET(htim, TIM_CHA
 4731              		.loc 1 1527 31 discriminator 4
 4732 0030 7B68     		ldr	r3, [r7, #4]
 4733 0032 93F84530 		ldrb	r3, [r3, #69]
 4734 0036 3B72     		strb	r3, [r7, #8]
1528:Drivers/STM32F7xx_HAL_Driver/Src/stm32f7xx_hal_tim_ex.c **** 
1529:Drivers/STM32F7xx_HAL_Driver/Src/stm32f7xx_hal_tim_ex.c ****   /* Check the parameters */
1530:Drivers/STM32F7xx_HAL_Driver/Src/stm32f7xx_hal_tim_ex.c ****   assert_param(IS_TIM_CCXN_INSTANCE(htim->Instance, OutputChannel));
1531:Drivers/STM32F7xx_HAL_Driver/Src/stm32f7xx_hal_tim_ex.c **** 
1532:Drivers/STM32F7xx_HAL_Driver/Src/stm32f7xx_hal_tim_ex.c ****   /* Check the TIM channels state */
1533:Drivers/STM32F7xx_HAL_Driver/Src/stm32f7xx_hal_tim_ex.c ****    if ((channel_1_state != HAL_TIM_CHANNEL_STATE_READY)
 4735              		.loc 1 1533 7 discriminator 4
 4736 0038 FB7A     		ldrb	r3, [r7, #11]	@ zero_extendqisi2
 4737 003a 012B     		cmp	r3, #1
 4738 003c 08D1     		bne	.L327
1534:Drivers/STM32F7xx_HAL_Driver/Src/stm32f7xx_hal_tim_ex.c ****       || (channel_2_state != HAL_TIM_CHANNEL_STATE_READY)
 4739              		.loc 1 1534 7
 4740 003e BB7A     		ldrb	r3, [r7, #10]	@ zero_extendqisi2
 4741 0040 012B     		cmp	r3, #1
 4742 0042 05D1     		bne	.L327
1535:Drivers/STM32F7xx_HAL_Driver/Src/stm32f7xx_hal_tim_ex.c ****       || (complementary_channel_1_state != HAL_TIM_CHANNEL_STATE_READY)
 4743              		.loc 1 1535 7
 4744 0044 7B7A     		ldrb	r3, [r7, #9]	@ zero_extendqisi2
 4745 0046 012B     		cmp	r3, #1
 4746 0048 02D1     		bne	.L327
1536:Drivers/STM32F7xx_HAL_Driver/Src/stm32f7xx_hal_tim_ex.c ****       || (complementary_channel_2_state != HAL_TIM_CHANNEL_STATE_READY))
 4747              		.loc 1 1536 7
ARM GAS  /tmp/ccOFTjtU.s 			page 113


 4748 004a 3B7A     		ldrb	r3, [r7, #8]	@ zero_extendqisi2
 4749 004c 012B     		cmp	r3, #1
 4750 004e 01D0     		beq	.L328
 4751              	.L327:
1537:Drivers/STM32F7xx_HAL_Driver/Src/stm32f7xx_hal_tim_ex.c ****   {
1538:Drivers/STM32F7xx_HAL_Driver/Src/stm32f7xx_hal_tim_ex.c ****     return HAL_ERROR;
 4752              		.loc 1 1538 12
 4753 0050 0123     		movs	r3, #1
 4754 0052 26E0     		b	.L329
 4755              	.L328:
1539:Drivers/STM32F7xx_HAL_Driver/Src/stm32f7xx_hal_tim_ex.c ****   }
1540:Drivers/STM32F7xx_HAL_Driver/Src/stm32f7xx_hal_tim_ex.c **** 
1541:Drivers/STM32F7xx_HAL_Driver/Src/stm32f7xx_hal_tim_ex.c ****   /* Set the TIM channels state */
1542:Drivers/STM32F7xx_HAL_Driver/Src/stm32f7xx_hal_tim_ex.c ****   TIM_CHANNEL_STATE_SET(htim, TIM_CHANNEL_1, HAL_TIM_CHANNEL_STATE_BUSY);
 4756              		.loc 1 1542 3
 4757 0054 7B68     		ldr	r3, [r7, #4]
 4758 0056 0222     		movs	r2, #2
 4759 0058 83F83E20 		strb	r2, [r3, #62]
1543:Drivers/STM32F7xx_HAL_Driver/Src/stm32f7xx_hal_tim_ex.c ****   TIM_CHANNEL_STATE_SET(htim, TIM_CHANNEL_2, HAL_TIM_CHANNEL_STATE_BUSY);
 4760              		.loc 1 1543 3
 4761 005c 7B68     		ldr	r3, [r7, #4]
 4762 005e 0222     		movs	r2, #2
 4763 0060 83F83F20 		strb	r2, [r3, #63]
1544:Drivers/STM32F7xx_HAL_Driver/Src/stm32f7xx_hal_tim_ex.c ****   TIM_CHANNEL_N_STATE_SET(htim, TIM_CHANNEL_1, HAL_TIM_CHANNEL_STATE_BUSY);
 4764              		.loc 1 1544 3
 4765 0064 7B68     		ldr	r3, [r7, #4]
 4766 0066 0222     		movs	r2, #2
 4767 0068 83F84420 		strb	r2, [r3, #68]
1545:Drivers/STM32F7xx_HAL_Driver/Src/stm32f7xx_hal_tim_ex.c ****   TIM_CHANNEL_N_STATE_SET(htim, TIM_CHANNEL_2, HAL_TIM_CHANNEL_STATE_BUSY);
 4768              		.loc 1 1545 3
 4769 006c 7B68     		ldr	r3, [r7, #4]
 4770 006e 0222     		movs	r2, #2
 4771 0070 83F84520 		strb	r2, [r3, #69]
1546:Drivers/STM32F7xx_HAL_Driver/Src/stm32f7xx_hal_tim_ex.c **** 
1547:Drivers/STM32F7xx_HAL_Driver/Src/stm32f7xx_hal_tim_ex.c ****   /* Enable the complementary One Pulse output channel and the Input Capture channel */
1548:Drivers/STM32F7xx_HAL_Driver/Src/stm32f7xx_hal_tim_ex.c ****   TIM_CCxNChannelCmd(htim->Instance, OutputChannel, TIM_CCxN_ENABLE);
 4772              		.loc 1 1548 3
 4773 0074 7B68     		ldr	r3, [r7, #4]
 4774 0076 1B68     		ldr	r3, [r3]
 4775 0078 0422     		movs	r2, #4
 4776 007a 3968     		ldr	r1, [r7]
 4777 007c 1846     		mov	r0, r3
 4778 007e FFF7FEFF 		bl	TIM_CCxNChannelCmd
1549:Drivers/STM32F7xx_HAL_Driver/Src/stm32f7xx_hal_tim_ex.c ****   TIM_CCxChannelCmd(htim->Instance, input_channel, TIM_CCx_ENABLE);
 4779              		.loc 1 1549 3
 4780 0082 7B68     		ldr	r3, [r7, #4]
 4781 0084 1B68     		ldr	r3, [r3]
 4782 0086 0122     		movs	r2, #1
 4783 0088 F968     		ldr	r1, [r7, #12]
 4784 008a 1846     		mov	r0, r3
 4785 008c FFF7FEFF 		bl	TIM_CCxChannelCmd
1550:Drivers/STM32F7xx_HAL_Driver/Src/stm32f7xx_hal_tim_ex.c **** 
1551:Drivers/STM32F7xx_HAL_Driver/Src/stm32f7xx_hal_tim_ex.c ****   /* Enable the Main Output */
1552:Drivers/STM32F7xx_HAL_Driver/Src/stm32f7xx_hal_tim_ex.c ****   __HAL_TIM_MOE_ENABLE(htim);
 4786              		.loc 1 1552 3
 4787 0090 7B68     		ldr	r3, [r7, #4]
 4788 0092 1B68     		ldr	r3, [r3]
ARM GAS  /tmp/ccOFTjtU.s 			page 114


 4789 0094 5A6C     		ldr	r2, [r3, #68]
 4790 0096 7B68     		ldr	r3, [r7, #4]
 4791 0098 1B68     		ldr	r3, [r3]
 4792 009a 42F40042 		orr	r2, r2, #32768
 4793 009e 5A64     		str	r2, [r3, #68]
1553:Drivers/STM32F7xx_HAL_Driver/Src/stm32f7xx_hal_tim_ex.c **** 
1554:Drivers/STM32F7xx_HAL_Driver/Src/stm32f7xx_hal_tim_ex.c ****   /* Return function status */
1555:Drivers/STM32F7xx_HAL_Driver/Src/stm32f7xx_hal_tim_ex.c ****   return HAL_OK;
 4794              		.loc 1 1555 10
 4795 00a0 0023     		movs	r3, #0
 4796              	.L329:
1556:Drivers/STM32F7xx_HAL_Driver/Src/stm32f7xx_hal_tim_ex.c **** }
 4797              		.loc 1 1556 1
 4798 00a2 1846     		mov	r0, r3
 4799 00a4 1037     		adds	r7, r7, #16
 4800              	.LCFI115:
 4801              		.cfi_def_cfa_offset 8
 4802 00a6 BD46     		mov	sp, r7
 4803              	.LCFI116:
 4804              		.cfi_def_cfa_register 13
 4805              		@ sp needed
 4806 00a8 80BD     		pop	{r7, pc}
 4807              		.cfi_endproc
 4808              	.LFE163:
 4810              		.section	.text.HAL_TIMEx_OnePulseN_Stop,"ax",%progbits
 4811              		.align	1
 4812              		.global	HAL_TIMEx_OnePulseN_Stop
 4813              		.syntax unified
 4814              		.thumb
 4815              		.thumb_func
 4816              		.fpu fpv5-d16
 4818              	HAL_TIMEx_OnePulseN_Stop:
 4819              	.LFB164:
1557:Drivers/STM32F7xx_HAL_Driver/Src/stm32f7xx_hal_tim_ex.c **** 
1558:Drivers/STM32F7xx_HAL_Driver/Src/stm32f7xx_hal_tim_ex.c **** /**
1559:Drivers/STM32F7xx_HAL_Driver/Src/stm32f7xx_hal_tim_ex.c ****   * @brief  Stops the TIM One Pulse signal generation on the complementary
1560:Drivers/STM32F7xx_HAL_Driver/Src/stm32f7xx_hal_tim_ex.c ****   *         output.
1561:Drivers/STM32F7xx_HAL_Driver/Src/stm32f7xx_hal_tim_ex.c ****   * @note OutputChannel must match the pulse output channel chosen when calling 
1562:Drivers/STM32F7xx_HAL_Driver/Src/stm32f7xx_hal_tim_ex.c ****   *       @ref HAL_TIM_OnePulse_ConfigChannel(). 
1563:Drivers/STM32F7xx_HAL_Driver/Src/stm32f7xx_hal_tim_ex.c ****   * @param  htim TIM One Pulse handle
1564:Drivers/STM32F7xx_HAL_Driver/Src/stm32f7xx_hal_tim_ex.c ****   * @param  OutputChannel pulse output channel to disable
1565:Drivers/STM32F7xx_HAL_Driver/Src/stm32f7xx_hal_tim_ex.c ****   *          This parameter can be one of the following values:
1566:Drivers/STM32F7xx_HAL_Driver/Src/stm32f7xx_hal_tim_ex.c ****   *            @arg TIM_CHANNEL_1: TIM Channel 1 selected
1567:Drivers/STM32F7xx_HAL_Driver/Src/stm32f7xx_hal_tim_ex.c ****   *            @arg TIM_CHANNEL_2: TIM Channel 2 selected
1568:Drivers/STM32F7xx_HAL_Driver/Src/stm32f7xx_hal_tim_ex.c ****   * @retval HAL status
1569:Drivers/STM32F7xx_HAL_Driver/Src/stm32f7xx_hal_tim_ex.c ****   */
1570:Drivers/STM32F7xx_HAL_Driver/Src/stm32f7xx_hal_tim_ex.c **** HAL_StatusTypeDef HAL_TIMEx_OnePulseN_Stop(TIM_HandleTypeDef *htim, uint32_t OutputChannel)
1571:Drivers/STM32F7xx_HAL_Driver/Src/stm32f7xx_hal_tim_ex.c **** {
 4820              		.loc 1 1571 1
 4821              		.cfi_startproc
 4822              		@ args = 0, pretend = 0, frame = 16
 4823              		@ frame_needed = 1, uses_anonymous_args = 0
 4824 0000 80B5     		push	{r7, lr}
 4825              	.LCFI117:
 4826              		.cfi_def_cfa_offset 8
 4827              		.cfi_offset 7, -8
 4828              		.cfi_offset 14, -4
ARM GAS  /tmp/ccOFTjtU.s 			page 115


 4829 0002 84B0     		sub	sp, sp, #16
 4830              	.LCFI118:
 4831              		.cfi_def_cfa_offset 24
 4832 0004 00AF     		add	r7, sp, #0
 4833              	.LCFI119:
 4834              		.cfi_def_cfa_register 7
 4835 0006 7860     		str	r0, [r7, #4]
 4836 0008 3960     		str	r1, [r7]
1572:Drivers/STM32F7xx_HAL_Driver/Src/stm32f7xx_hal_tim_ex.c ****   uint32_t input_channel = (OutputChannel == TIM_CHANNEL_1) ? TIM_CHANNEL_2 : TIM_CHANNEL_1;
 4837              		.loc 1 1572 77
 4838 000a 3B68     		ldr	r3, [r7]
 4839 000c 002B     		cmp	r3, #0
 4840 000e 01D1     		bne	.L331
 4841              		.loc 1 1572 77 is_stmt 0 discriminator 1
 4842 0010 0423     		movs	r3, #4
 4843 0012 00E0     		b	.L332
 4844              	.L331:
 4845              		.loc 1 1572 77 discriminator 2
 4846 0014 0023     		movs	r3, #0
 4847              	.L332:
 4848              		.loc 1 1572 12 is_stmt 1 discriminator 4
 4849 0016 FB60     		str	r3, [r7, #12]
1573:Drivers/STM32F7xx_HAL_Driver/Src/stm32f7xx_hal_tim_ex.c **** 
1574:Drivers/STM32F7xx_HAL_Driver/Src/stm32f7xx_hal_tim_ex.c ****   /* Check the parameters */
1575:Drivers/STM32F7xx_HAL_Driver/Src/stm32f7xx_hal_tim_ex.c ****   assert_param(IS_TIM_CCXN_INSTANCE(htim->Instance, OutputChannel));
1576:Drivers/STM32F7xx_HAL_Driver/Src/stm32f7xx_hal_tim_ex.c **** 
1577:Drivers/STM32F7xx_HAL_Driver/Src/stm32f7xx_hal_tim_ex.c ****   /* Disable the complementary One Pulse output channel and the Input Capture channel */
1578:Drivers/STM32F7xx_HAL_Driver/Src/stm32f7xx_hal_tim_ex.c ****   TIM_CCxNChannelCmd(htim->Instance, OutputChannel, TIM_CCxN_DISABLE);
 4850              		.loc 1 1578 3 discriminator 4
 4851 0018 7B68     		ldr	r3, [r7, #4]
 4852 001a 1B68     		ldr	r3, [r3]
 4853 001c 0022     		movs	r2, #0
 4854 001e 3968     		ldr	r1, [r7]
 4855 0020 1846     		mov	r0, r3
 4856 0022 FFF7FEFF 		bl	TIM_CCxNChannelCmd
1579:Drivers/STM32F7xx_HAL_Driver/Src/stm32f7xx_hal_tim_ex.c ****   TIM_CCxChannelCmd(htim->Instance, input_channel, TIM_CCx_DISABLE);
 4857              		.loc 1 1579 3 discriminator 4
 4858 0026 7B68     		ldr	r3, [r7, #4]
 4859 0028 1B68     		ldr	r3, [r3]
 4860 002a 0022     		movs	r2, #0
 4861 002c F968     		ldr	r1, [r7, #12]
 4862 002e 1846     		mov	r0, r3
 4863 0030 FFF7FEFF 		bl	TIM_CCxChannelCmd
1580:Drivers/STM32F7xx_HAL_Driver/Src/stm32f7xx_hal_tim_ex.c **** 
1581:Drivers/STM32F7xx_HAL_Driver/Src/stm32f7xx_hal_tim_ex.c ****   /* Disable the Main Output */
1582:Drivers/STM32F7xx_HAL_Driver/Src/stm32f7xx_hal_tim_ex.c ****   __HAL_TIM_MOE_DISABLE(htim);
 4864              		.loc 1 1582 3 discriminator 4
 4865 0034 7B68     		ldr	r3, [r7, #4]
 4866 0036 1B68     		ldr	r3, [r3]
 4867 0038 1A6A     		ldr	r2, [r3, #32]
 4868 003a 41F21113 		movw	r3, #4369
 4869 003e 1340     		ands	r3, r3, r2
 4870 0040 002B     		cmp	r3, #0
 4871 0042 0FD1     		bne	.L333
 4872              		.loc 1 1582 3 is_stmt 0 discriminator 1
 4873 0044 7B68     		ldr	r3, [r7, #4]
 4874 0046 1B68     		ldr	r3, [r3]
ARM GAS  /tmp/ccOFTjtU.s 			page 116


 4875 0048 1A6A     		ldr	r2, [r3, #32]
 4876 004a 40F24443 		movw	r3, #1092
 4877 004e 1340     		ands	r3, r3, r2
 4878 0050 002B     		cmp	r3, #0
 4879 0052 07D1     		bne	.L333
 4880              		.loc 1 1582 3 discriminator 2
 4881 0054 7B68     		ldr	r3, [r7, #4]
 4882 0056 1B68     		ldr	r3, [r3]
 4883 0058 5A6C     		ldr	r2, [r3, #68]
 4884 005a 7B68     		ldr	r3, [r7, #4]
 4885 005c 1B68     		ldr	r3, [r3]
 4886 005e 22F40042 		bic	r2, r2, #32768
 4887 0062 5A64     		str	r2, [r3, #68]
 4888              	.L333:
1583:Drivers/STM32F7xx_HAL_Driver/Src/stm32f7xx_hal_tim_ex.c **** 
1584:Drivers/STM32F7xx_HAL_Driver/Src/stm32f7xx_hal_tim_ex.c ****   /* Disable the Peripheral */
1585:Drivers/STM32F7xx_HAL_Driver/Src/stm32f7xx_hal_tim_ex.c ****   __HAL_TIM_DISABLE(htim);
 4889              		.loc 1 1585 3 is_stmt 1
 4890 0064 7B68     		ldr	r3, [r7, #4]
 4891 0066 1B68     		ldr	r3, [r3]
 4892 0068 1A6A     		ldr	r2, [r3, #32]
 4893 006a 41F21113 		movw	r3, #4369
 4894 006e 1340     		ands	r3, r3, r2
 4895 0070 002B     		cmp	r3, #0
 4896 0072 0FD1     		bne	.L334
 4897              		.loc 1 1585 3 is_stmt 0 discriminator 1
 4898 0074 7B68     		ldr	r3, [r7, #4]
 4899 0076 1B68     		ldr	r3, [r3]
 4900 0078 1A6A     		ldr	r2, [r3, #32]
 4901 007a 40F24443 		movw	r3, #1092
 4902 007e 1340     		ands	r3, r3, r2
 4903 0080 002B     		cmp	r3, #0
 4904 0082 07D1     		bne	.L334
 4905              		.loc 1 1585 3 discriminator 2
 4906 0084 7B68     		ldr	r3, [r7, #4]
 4907 0086 1B68     		ldr	r3, [r3]
 4908 0088 1A68     		ldr	r2, [r3]
 4909 008a 7B68     		ldr	r3, [r7, #4]
 4910 008c 1B68     		ldr	r3, [r3]
 4911 008e 22F00102 		bic	r2, r2, #1
 4912 0092 1A60     		str	r2, [r3]
 4913              	.L334:
1586:Drivers/STM32F7xx_HAL_Driver/Src/stm32f7xx_hal_tim_ex.c **** 
1587:Drivers/STM32F7xx_HAL_Driver/Src/stm32f7xx_hal_tim_ex.c ****   /* Set the TIM  channels state */
1588:Drivers/STM32F7xx_HAL_Driver/Src/stm32f7xx_hal_tim_ex.c ****   TIM_CHANNEL_STATE_SET(htim, TIM_CHANNEL_1, HAL_TIM_CHANNEL_STATE_READY);
 4914              		.loc 1 1588 3 is_stmt 1
 4915 0094 7B68     		ldr	r3, [r7, #4]
 4916 0096 0122     		movs	r2, #1
 4917 0098 83F83E20 		strb	r2, [r3, #62]
1589:Drivers/STM32F7xx_HAL_Driver/Src/stm32f7xx_hal_tim_ex.c ****   TIM_CHANNEL_STATE_SET(htim, TIM_CHANNEL_2, HAL_TIM_CHANNEL_STATE_READY);
 4918              		.loc 1 1589 3
 4919 009c 7B68     		ldr	r3, [r7, #4]
 4920 009e 0122     		movs	r2, #1
 4921 00a0 83F83F20 		strb	r2, [r3, #63]
1590:Drivers/STM32F7xx_HAL_Driver/Src/stm32f7xx_hal_tim_ex.c ****   TIM_CHANNEL_N_STATE_SET(htim, TIM_CHANNEL_1, HAL_TIM_CHANNEL_STATE_READY);
 4922              		.loc 1 1590 3
 4923 00a4 7B68     		ldr	r3, [r7, #4]
ARM GAS  /tmp/ccOFTjtU.s 			page 117


 4924 00a6 0122     		movs	r2, #1
 4925 00a8 83F84420 		strb	r2, [r3, #68]
1591:Drivers/STM32F7xx_HAL_Driver/Src/stm32f7xx_hal_tim_ex.c ****   TIM_CHANNEL_N_STATE_SET(htim, TIM_CHANNEL_2, HAL_TIM_CHANNEL_STATE_READY);
 4926              		.loc 1 1591 3
 4927 00ac 7B68     		ldr	r3, [r7, #4]
 4928 00ae 0122     		movs	r2, #1
 4929 00b0 83F84520 		strb	r2, [r3, #69]
1592:Drivers/STM32F7xx_HAL_Driver/Src/stm32f7xx_hal_tim_ex.c **** 
1593:Drivers/STM32F7xx_HAL_Driver/Src/stm32f7xx_hal_tim_ex.c ****   /* Return function status */
1594:Drivers/STM32F7xx_HAL_Driver/Src/stm32f7xx_hal_tim_ex.c ****   return HAL_OK;
 4930              		.loc 1 1594 10
 4931 00b4 0023     		movs	r3, #0
1595:Drivers/STM32F7xx_HAL_Driver/Src/stm32f7xx_hal_tim_ex.c **** }
 4932              		.loc 1 1595 1
 4933 00b6 1846     		mov	r0, r3
 4934 00b8 1037     		adds	r7, r7, #16
 4935              	.LCFI120:
 4936              		.cfi_def_cfa_offset 8
 4937 00ba BD46     		mov	sp, r7
 4938              	.LCFI121:
 4939              		.cfi_def_cfa_register 13
 4940              		@ sp needed
 4941 00bc 80BD     		pop	{r7, pc}
 4942              		.cfi_endproc
 4943              	.LFE164:
 4945              		.section	.text.HAL_TIMEx_OnePulseN_Start_IT,"ax",%progbits
 4946              		.align	1
 4947              		.global	HAL_TIMEx_OnePulseN_Start_IT
 4948              		.syntax unified
 4949              		.thumb
 4950              		.thumb_func
 4951              		.fpu fpv5-d16
 4953              	HAL_TIMEx_OnePulseN_Start_IT:
 4954              	.LFB165:
1596:Drivers/STM32F7xx_HAL_Driver/Src/stm32f7xx_hal_tim_ex.c **** 
1597:Drivers/STM32F7xx_HAL_Driver/Src/stm32f7xx_hal_tim_ex.c **** /**
1598:Drivers/STM32F7xx_HAL_Driver/Src/stm32f7xx_hal_tim_ex.c ****   * @brief  Starts the TIM One Pulse signal generation in interrupt mode on the
1599:Drivers/STM32F7xx_HAL_Driver/Src/stm32f7xx_hal_tim_ex.c ****   *         complementary channel.
1600:Drivers/STM32F7xx_HAL_Driver/Src/stm32f7xx_hal_tim_ex.c ****   * @note OutputChannel must match the pulse output channel chosen when calling 
1601:Drivers/STM32F7xx_HAL_Driver/Src/stm32f7xx_hal_tim_ex.c ****   *       @ref HAL_TIM_OnePulse_ConfigChannel(). 
1602:Drivers/STM32F7xx_HAL_Driver/Src/stm32f7xx_hal_tim_ex.c ****   * @param  htim TIM One Pulse handle
1603:Drivers/STM32F7xx_HAL_Driver/Src/stm32f7xx_hal_tim_ex.c ****   * @param  OutputChannel pulse output channel to enable
1604:Drivers/STM32F7xx_HAL_Driver/Src/stm32f7xx_hal_tim_ex.c ****   *          This parameter can be one of the following values:
1605:Drivers/STM32F7xx_HAL_Driver/Src/stm32f7xx_hal_tim_ex.c ****   *            @arg TIM_CHANNEL_1: TIM Channel 1 selected
1606:Drivers/STM32F7xx_HAL_Driver/Src/stm32f7xx_hal_tim_ex.c ****   *            @arg TIM_CHANNEL_2: TIM Channel 2 selected
1607:Drivers/STM32F7xx_HAL_Driver/Src/stm32f7xx_hal_tim_ex.c ****   * @retval HAL status
1608:Drivers/STM32F7xx_HAL_Driver/Src/stm32f7xx_hal_tim_ex.c ****   */
1609:Drivers/STM32F7xx_HAL_Driver/Src/stm32f7xx_hal_tim_ex.c **** HAL_StatusTypeDef HAL_TIMEx_OnePulseN_Start_IT(TIM_HandleTypeDef *htim, uint32_t OutputChannel)
1610:Drivers/STM32F7xx_HAL_Driver/Src/stm32f7xx_hal_tim_ex.c **** {
 4955              		.loc 1 1610 1
 4956              		.cfi_startproc
 4957              		@ args = 0, pretend = 0, frame = 16
 4958              		@ frame_needed = 1, uses_anonymous_args = 0
 4959 0000 80B5     		push	{r7, lr}
 4960              	.LCFI122:
 4961              		.cfi_def_cfa_offset 8
 4962              		.cfi_offset 7, -8
ARM GAS  /tmp/ccOFTjtU.s 			page 118


 4963              		.cfi_offset 14, -4
 4964 0002 84B0     		sub	sp, sp, #16
 4965              	.LCFI123:
 4966              		.cfi_def_cfa_offset 24
 4967 0004 00AF     		add	r7, sp, #0
 4968              	.LCFI124:
 4969              		.cfi_def_cfa_register 7
 4970 0006 7860     		str	r0, [r7, #4]
 4971 0008 3960     		str	r1, [r7]
1611:Drivers/STM32F7xx_HAL_Driver/Src/stm32f7xx_hal_tim_ex.c ****   uint32_t input_channel = (OutputChannel == TIM_CHANNEL_1) ? TIM_CHANNEL_2 : TIM_CHANNEL_1;
 4972              		.loc 1 1611 77
 4973 000a 3B68     		ldr	r3, [r7]
 4974 000c 002B     		cmp	r3, #0
 4975 000e 01D1     		bne	.L337
 4976              		.loc 1 1611 77 is_stmt 0 discriminator 1
 4977 0010 0423     		movs	r3, #4
 4978 0012 00E0     		b	.L338
 4979              	.L337:
 4980              		.loc 1 1611 77 discriminator 2
 4981 0014 0023     		movs	r3, #0
 4982              	.L338:
 4983              		.loc 1 1611 12 is_stmt 1 discriminator 4
 4984 0016 FB60     		str	r3, [r7, #12]
1612:Drivers/STM32F7xx_HAL_Driver/Src/stm32f7xx_hal_tim_ex.c ****   HAL_TIM_ChannelStateTypeDef channel_1_state = TIM_CHANNEL_STATE_GET(htim, TIM_CHANNEL_1);
 4985              		.loc 1 1612 31 discriminator 4
 4986 0018 7B68     		ldr	r3, [r7, #4]
 4987 001a 93F83E30 		ldrb	r3, [r3, #62]
 4988 001e FB72     		strb	r3, [r7, #11]
1613:Drivers/STM32F7xx_HAL_Driver/Src/stm32f7xx_hal_tim_ex.c ****   HAL_TIM_ChannelStateTypeDef channel_2_state = TIM_CHANNEL_STATE_GET(htim, TIM_CHANNEL_2);
 4989              		.loc 1 1613 31 discriminator 4
 4990 0020 7B68     		ldr	r3, [r7, #4]
 4991 0022 93F83F30 		ldrb	r3, [r3, #63]
 4992 0026 BB72     		strb	r3, [r7, #10]
1614:Drivers/STM32F7xx_HAL_Driver/Src/stm32f7xx_hal_tim_ex.c ****   HAL_TIM_ChannelStateTypeDef complementary_channel_1_state = TIM_CHANNEL_N_STATE_GET(htim, TIM_CHA
 4993              		.loc 1 1614 31 discriminator 4
 4994 0028 7B68     		ldr	r3, [r7, #4]
 4995 002a 93F84430 		ldrb	r3, [r3, #68]
 4996 002e 7B72     		strb	r3, [r7, #9]
1615:Drivers/STM32F7xx_HAL_Driver/Src/stm32f7xx_hal_tim_ex.c ****   HAL_TIM_ChannelStateTypeDef complementary_channel_2_state = TIM_CHANNEL_N_STATE_GET(htim, TIM_CHA
 4997              		.loc 1 1615 31 discriminator 4
 4998 0030 7B68     		ldr	r3, [r7, #4]
 4999 0032 93F84530 		ldrb	r3, [r3, #69]
 5000 0036 3B72     		strb	r3, [r7, #8]
1616:Drivers/STM32F7xx_HAL_Driver/Src/stm32f7xx_hal_tim_ex.c **** 
1617:Drivers/STM32F7xx_HAL_Driver/Src/stm32f7xx_hal_tim_ex.c ****   /* Check the parameters */
1618:Drivers/STM32F7xx_HAL_Driver/Src/stm32f7xx_hal_tim_ex.c ****   assert_param(IS_TIM_CCXN_INSTANCE(htim->Instance, OutputChannel));
1619:Drivers/STM32F7xx_HAL_Driver/Src/stm32f7xx_hal_tim_ex.c **** 
1620:Drivers/STM32F7xx_HAL_Driver/Src/stm32f7xx_hal_tim_ex.c ****   /* Check the TIM channels state */
1621:Drivers/STM32F7xx_HAL_Driver/Src/stm32f7xx_hal_tim_ex.c ****    if ((channel_1_state != HAL_TIM_CHANNEL_STATE_READY)
 5001              		.loc 1 1621 7 discriminator 4
 5002 0038 FB7A     		ldrb	r3, [r7, #11]	@ zero_extendqisi2
 5003 003a 012B     		cmp	r3, #1
 5004 003c 08D1     		bne	.L339
1622:Drivers/STM32F7xx_HAL_Driver/Src/stm32f7xx_hal_tim_ex.c ****       || (channel_2_state != HAL_TIM_CHANNEL_STATE_READY)
 5005              		.loc 1 1622 7
 5006 003e BB7A     		ldrb	r3, [r7, #10]	@ zero_extendqisi2
 5007 0040 012B     		cmp	r3, #1
ARM GAS  /tmp/ccOFTjtU.s 			page 119


 5008 0042 05D1     		bne	.L339
1623:Drivers/STM32F7xx_HAL_Driver/Src/stm32f7xx_hal_tim_ex.c ****       || (complementary_channel_1_state != HAL_TIM_CHANNEL_STATE_READY)
 5009              		.loc 1 1623 7
 5010 0044 7B7A     		ldrb	r3, [r7, #9]	@ zero_extendqisi2
 5011 0046 012B     		cmp	r3, #1
 5012 0048 02D1     		bne	.L339
1624:Drivers/STM32F7xx_HAL_Driver/Src/stm32f7xx_hal_tim_ex.c ****       || (complementary_channel_2_state != HAL_TIM_CHANNEL_STATE_READY))
 5013              		.loc 1 1624 7
 5014 004a 3B7A     		ldrb	r3, [r7, #8]	@ zero_extendqisi2
 5015 004c 012B     		cmp	r3, #1
 5016 004e 01D0     		beq	.L340
 5017              	.L339:
1625:Drivers/STM32F7xx_HAL_Driver/Src/stm32f7xx_hal_tim_ex.c ****   {
1626:Drivers/STM32F7xx_HAL_Driver/Src/stm32f7xx_hal_tim_ex.c ****     return HAL_ERROR;
 5018              		.loc 1 1626 12
 5019 0050 0123     		movs	r3, #1
 5020 0052 36E0     		b	.L341
 5021              	.L340:
1627:Drivers/STM32F7xx_HAL_Driver/Src/stm32f7xx_hal_tim_ex.c ****   }
1628:Drivers/STM32F7xx_HAL_Driver/Src/stm32f7xx_hal_tim_ex.c **** 
1629:Drivers/STM32F7xx_HAL_Driver/Src/stm32f7xx_hal_tim_ex.c ****   /* Set the TIM channels state */
1630:Drivers/STM32F7xx_HAL_Driver/Src/stm32f7xx_hal_tim_ex.c ****   TIM_CHANNEL_STATE_SET(htim, TIM_CHANNEL_1, HAL_TIM_CHANNEL_STATE_BUSY);
 5022              		.loc 1 1630 3
 5023 0054 7B68     		ldr	r3, [r7, #4]
 5024 0056 0222     		movs	r2, #2
 5025 0058 83F83E20 		strb	r2, [r3, #62]
1631:Drivers/STM32F7xx_HAL_Driver/Src/stm32f7xx_hal_tim_ex.c ****   TIM_CHANNEL_STATE_SET(htim, TIM_CHANNEL_2, HAL_TIM_CHANNEL_STATE_BUSY);
 5026              		.loc 1 1631 3
 5027 005c 7B68     		ldr	r3, [r7, #4]
 5028 005e 0222     		movs	r2, #2
 5029 0060 83F83F20 		strb	r2, [r3, #63]
1632:Drivers/STM32F7xx_HAL_Driver/Src/stm32f7xx_hal_tim_ex.c ****   TIM_CHANNEL_N_STATE_SET(htim, TIM_CHANNEL_1, HAL_TIM_CHANNEL_STATE_BUSY);
 5030              		.loc 1 1632 3
 5031 0064 7B68     		ldr	r3, [r7, #4]
 5032 0066 0222     		movs	r2, #2
 5033 0068 83F84420 		strb	r2, [r3, #68]
1633:Drivers/STM32F7xx_HAL_Driver/Src/stm32f7xx_hal_tim_ex.c ****   TIM_CHANNEL_N_STATE_SET(htim, TIM_CHANNEL_2, HAL_TIM_CHANNEL_STATE_BUSY);
 5034              		.loc 1 1633 3
 5035 006c 7B68     		ldr	r3, [r7, #4]
 5036 006e 0222     		movs	r2, #2
 5037 0070 83F84520 		strb	r2, [r3, #69]
1634:Drivers/STM32F7xx_HAL_Driver/Src/stm32f7xx_hal_tim_ex.c **** 
1635:Drivers/STM32F7xx_HAL_Driver/Src/stm32f7xx_hal_tim_ex.c ****   /* Enable the TIM Capture/Compare 1 interrupt */
1636:Drivers/STM32F7xx_HAL_Driver/Src/stm32f7xx_hal_tim_ex.c ****   __HAL_TIM_ENABLE_IT(htim, TIM_IT_CC1);
 5038              		.loc 1 1636 3
 5039 0074 7B68     		ldr	r3, [r7, #4]
 5040 0076 1B68     		ldr	r3, [r3]
 5041 0078 DA68     		ldr	r2, [r3, #12]
 5042 007a 7B68     		ldr	r3, [r7, #4]
 5043 007c 1B68     		ldr	r3, [r3]
 5044 007e 42F00202 		orr	r2, r2, #2
 5045 0082 DA60     		str	r2, [r3, #12]
1637:Drivers/STM32F7xx_HAL_Driver/Src/stm32f7xx_hal_tim_ex.c **** 
1638:Drivers/STM32F7xx_HAL_Driver/Src/stm32f7xx_hal_tim_ex.c ****   /* Enable the TIM Capture/Compare 2 interrupt */
1639:Drivers/STM32F7xx_HAL_Driver/Src/stm32f7xx_hal_tim_ex.c ****   __HAL_TIM_ENABLE_IT(htim, TIM_IT_CC2);
 5046              		.loc 1 1639 3
 5047 0084 7B68     		ldr	r3, [r7, #4]
ARM GAS  /tmp/ccOFTjtU.s 			page 120


 5048 0086 1B68     		ldr	r3, [r3]
 5049 0088 DA68     		ldr	r2, [r3, #12]
 5050 008a 7B68     		ldr	r3, [r7, #4]
 5051 008c 1B68     		ldr	r3, [r3]
 5052 008e 42F00402 		orr	r2, r2, #4
 5053 0092 DA60     		str	r2, [r3, #12]
1640:Drivers/STM32F7xx_HAL_Driver/Src/stm32f7xx_hal_tim_ex.c **** 
1641:Drivers/STM32F7xx_HAL_Driver/Src/stm32f7xx_hal_tim_ex.c ****   /* Enable the complementary One Pulse output channel and the Input Capture channel */
1642:Drivers/STM32F7xx_HAL_Driver/Src/stm32f7xx_hal_tim_ex.c ****   TIM_CCxNChannelCmd(htim->Instance, OutputChannel, TIM_CCxN_ENABLE);
 5054              		.loc 1 1642 3
 5055 0094 7B68     		ldr	r3, [r7, #4]
 5056 0096 1B68     		ldr	r3, [r3]
 5057 0098 0422     		movs	r2, #4
 5058 009a 3968     		ldr	r1, [r7]
 5059 009c 1846     		mov	r0, r3
 5060 009e FFF7FEFF 		bl	TIM_CCxNChannelCmd
1643:Drivers/STM32F7xx_HAL_Driver/Src/stm32f7xx_hal_tim_ex.c ****   TIM_CCxChannelCmd(htim->Instance, input_channel, TIM_CCx_ENABLE);
 5061              		.loc 1 1643 3
 5062 00a2 7B68     		ldr	r3, [r7, #4]
 5063 00a4 1B68     		ldr	r3, [r3]
 5064 00a6 0122     		movs	r2, #1
 5065 00a8 F968     		ldr	r1, [r7, #12]
 5066 00aa 1846     		mov	r0, r3
 5067 00ac FFF7FEFF 		bl	TIM_CCxChannelCmd
1644:Drivers/STM32F7xx_HAL_Driver/Src/stm32f7xx_hal_tim_ex.c **** 
1645:Drivers/STM32F7xx_HAL_Driver/Src/stm32f7xx_hal_tim_ex.c ****   /* Enable the Main Output */
1646:Drivers/STM32F7xx_HAL_Driver/Src/stm32f7xx_hal_tim_ex.c ****   __HAL_TIM_MOE_ENABLE(htim);
 5068              		.loc 1 1646 3
 5069 00b0 7B68     		ldr	r3, [r7, #4]
 5070 00b2 1B68     		ldr	r3, [r3]
 5071 00b4 5A6C     		ldr	r2, [r3, #68]
 5072 00b6 7B68     		ldr	r3, [r7, #4]
 5073 00b8 1B68     		ldr	r3, [r3]
 5074 00ba 42F40042 		orr	r2, r2, #32768
 5075 00be 5A64     		str	r2, [r3, #68]
1647:Drivers/STM32F7xx_HAL_Driver/Src/stm32f7xx_hal_tim_ex.c **** 
1648:Drivers/STM32F7xx_HAL_Driver/Src/stm32f7xx_hal_tim_ex.c ****   /* Return function status */
1649:Drivers/STM32F7xx_HAL_Driver/Src/stm32f7xx_hal_tim_ex.c ****   return HAL_OK;
 5076              		.loc 1 1649 10
 5077 00c0 0023     		movs	r3, #0
 5078              	.L341:
1650:Drivers/STM32F7xx_HAL_Driver/Src/stm32f7xx_hal_tim_ex.c **** }
 5079              		.loc 1 1650 1
 5080 00c2 1846     		mov	r0, r3
 5081 00c4 1037     		adds	r7, r7, #16
 5082              	.LCFI125:
 5083              		.cfi_def_cfa_offset 8
 5084 00c6 BD46     		mov	sp, r7
 5085              	.LCFI126:
 5086              		.cfi_def_cfa_register 13
 5087              		@ sp needed
 5088 00c8 80BD     		pop	{r7, pc}
 5089              		.cfi_endproc
 5090              	.LFE165:
 5092              		.section	.text.HAL_TIMEx_OnePulseN_Stop_IT,"ax",%progbits
 5093              		.align	1
 5094              		.global	HAL_TIMEx_OnePulseN_Stop_IT
ARM GAS  /tmp/ccOFTjtU.s 			page 121


 5095              		.syntax unified
 5096              		.thumb
 5097              		.thumb_func
 5098              		.fpu fpv5-d16
 5100              	HAL_TIMEx_OnePulseN_Stop_IT:
 5101              	.LFB166:
1651:Drivers/STM32F7xx_HAL_Driver/Src/stm32f7xx_hal_tim_ex.c **** 
1652:Drivers/STM32F7xx_HAL_Driver/Src/stm32f7xx_hal_tim_ex.c **** /**
1653:Drivers/STM32F7xx_HAL_Driver/Src/stm32f7xx_hal_tim_ex.c ****   * @brief  Stops the TIM One Pulse signal generation in interrupt mode on the
1654:Drivers/STM32F7xx_HAL_Driver/Src/stm32f7xx_hal_tim_ex.c ****   *         complementary channel.
1655:Drivers/STM32F7xx_HAL_Driver/Src/stm32f7xx_hal_tim_ex.c ****   * @note OutputChannel must match the pulse output channel chosen when calling 
1656:Drivers/STM32F7xx_HAL_Driver/Src/stm32f7xx_hal_tim_ex.c ****   *       @ref HAL_TIM_OnePulse_ConfigChannel(). 
1657:Drivers/STM32F7xx_HAL_Driver/Src/stm32f7xx_hal_tim_ex.c ****   * @param  htim TIM One Pulse handle
1658:Drivers/STM32F7xx_HAL_Driver/Src/stm32f7xx_hal_tim_ex.c ****   * @param  OutputChannel pulse output channel to disable
1659:Drivers/STM32F7xx_HAL_Driver/Src/stm32f7xx_hal_tim_ex.c ****   *          This parameter can be one of the following values:
1660:Drivers/STM32F7xx_HAL_Driver/Src/stm32f7xx_hal_tim_ex.c ****   *            @arg TIM_CHANNEL_1: TIM Channel 1 selected
1661:Drivers/STM32F7xx_HAL_Driver/Src/stm32f7xx_hal_tim_ex.c ****   *            @arg TIM_CHANNEL_2: TIM Channel 2 selected
1662:Drivers/STM32F7xx_HAL_Driver/Src/stm32f7xx_hal_tim_ex.c ****   * @retval HAL status
1663:Drivers/STM32F7xx_HAL_Driver/Src/stm32f7xx_hal_tim_ex.c ****   */
1664:Drivers/STM32F7xx_HAL_Driver/Src/stm32f7xx_hal_tim_ex.c **** HAL_StatusTypeDef HAL_TIMEx_OnePulseN_Stop_IT(TIM_HandleTypeDef *htim, uint32_t OutputChannel)
1665:Drivers/STM32F7xx_HAL_Driver/Src/stm32f7xx_hal_tim_ex.c **** {
 5102              		.loc 1 1665 1
 5103              		.cfi_startproc
 5104              		@ args = 0, pretend = 0, frame = 16
 5105              		@ frame_needed = 1, uses_anonymous_args = 0
 5106 0000 80B5     		push	{r7, lr}
 5107              	.LCFI127:
 5108              		.cfi_def_cfa_offset 8
 5109              		.cfi_offset 7, -8
 5110              		.cfi_offset 14, -4
 5111 0002 84B0     		sub	sp, sp, #16
 5112              	.LCFI128:
 5113              		.cfi_def_cfa_offset 24
 5114 0004 00AF     		add	r7, sp, #0
 5115              	.LCFI129:
 5116              		.cfi_def_cfa_register 7
 5117 0006 7860     		str	r0, [r7, #4]
 5118 0008 3960     		str	r1, [r7]
1666:Drivers/STM32F7xx_HAL_Driver/Src/stm32f7xx_hal_tim_ex.c ****   uint32_t input_channel = (OutputChannel == TIM_CHANNEL_1) ? TIM_CHANNEL_2 : TIM_CHANNEL_1;
 5119              		.loc 1 1666 77
 5120 000a 3B68     		ldr	r3, [r7]
 5121 000c 002B     		cmp	r3, #0
 5122 000e 01D1     		bne	.L343
 5123              		.loc 1 1666 77 is_stmt 0 discriminator 1
 5124 0010 0423     		movs	r3, #4
 5125 0012 00E0     		b	.L344
 5126              	.L343:
 5127              		.loc 1 1666 77 discriminator 2
 5128 0014 0023     		movs	r3, #0
 5129              	.L344:
 5130              		.loc 1 1666 12 is_stmt 1 discriminator 4
 5131 0016 FB60     		str	r3, [r7, #12]
1667:Drivers/STM32F7xx_HAL_Driver/Src/stm32f7xx_hal_tim_ex.c **** 
1668:Drivers/STM32F7xx_HAL_Driver/Src/stm32f7xx_hal_tim_ex.c ****   /* Check the parameters */
1669:Drivers/STM32F7xx_HAL_Driver/Src/stm32f7xx_hal_tim_ex.c ****   assert_param(IS_TIM_CCXN_INSTANCE(htim->Instance, OutputChannel));
1670:Drivers/STM32F7xx_HAL_Driver/Src/stm32f7xx_hal_tim_ex.c **** 
1671:Drivers/STM32F7xx_HAL_Driver/Src/stm32f7xx_hal_tim_ex.c ****   /* Disable the TIM Capture/Compare 1 interrupt */
ARM GAS  /tmp/ccOFTjtU.s 			page 122


1672:Drivers/STM32F7xx_HAL_Driver/Src/stm32f7xx_hal_tim_ex.c ****   __HAL_TIM_DISABLE_IT(htim, TIM_IT_CC1);
 5132              		.loc 1 1672 3 discriminator 4
 5133 0018 7B68     		ldr	r3, [r7, #4]
 5134 001a 1B68     		ldr	r3, [r3]
 5135 001c DA68     		ldr	r2, [r3, #12]
 5136 001e 7B68     		ldr	r3, [r7, #4]
 5137 0020 1B68     		ldr	r3, [r3]
 5138 0022 22F00202 		bic	r2, r2, #2
 5139 0026 DA60     		str	r2, [r3, #12]
1673:Drivers/STM32F7xx_HAL_Driver/Src/stm32f7xx_hal_tim_ex.c **** 
1674:Drivers/STM32F7xx_HAL_Driver/Src/stm32f7xx_hal_tim_ex.c ****   /* Disable the TIM Capture/Compare 2 interrupt */
1675:Drivers/STM32F7xx_HAL_Driver/Src/stm32f7xx_hal_tim_ex.c ****   __HAL_TIM_DISABLE_IT(htim, TIM_IT_CC2);
 5140              		.loc 1 1675 3 discriminator 4
 5141 0028 7B68     		ldr	r3, [r7, #4]
 5142 002a 1B68     		ldr	r3, [r3]
 5143 002c DA68     		ldr	r2, [r3, #12]
 5144 002e 7B68     		ldr	r3, [r7, #4]
 5145 0030 1B68     		ldr	r3, [r3]
 5146 0032 22F00402 		bic	r2, r2, #4
 5147 0036 DA60     		str	r2, [r3, #12]
1676:Drivers/STM32F7xx_HAL_Driver/Src/stm32f7xx_hal_tim_ex.c **** 
1677:Drivers/STM32F7xx_HAL_Driver/Src/stm32f7xx_hal_tim_ex.c ****   /* Disable the complementary One Pulse output channel and the Input Capture channel */
1678:Drivers/STM32F7xx_HAL_Driver/Src/stm32f7xx_hal_tim_ex.c ****   TIM_CCxNChannelCmd(htim->Instance, OutputChannel, TIM_CCxN_DISABLE);
 5148              		.loc 1 1678 3 discriminator 4
 5149 0038 7B68     		ldr	r3, [r7, #4]
 5150 003a 1B68     		ldr	r3, [r3]
 5151 003c 0022     		movs	r2, #0
 5152 003e 3968     		ldr	r1, [r7]
 5153 0040 1846     		mov	r0, r3
 5154 0042 FFF7FEFF 		bl	TIM_CCxNChannelCmd
1679:Drivers/STM32F7xx_HAL_Driver/Src/stm32f7xx_hal_tim_ex.c ****   TIM_CCxChannelCmd(htim->Instance, input_channel, TIM_CCx_DISABLE);
 5155              		.loc 1 1679 3 discriminator 4
 5156 0046 7B68     		ldr	r3, [r7, #4]
 5157 0048 1B68     		ldr	r3, [r3]
 5158 004a 0022     		movs	r2, #0
 5159 004c F968     		ldr	r1, [r7, #12]
 5160 004e 1846     		mov	r0, r3
 5161 0050 FFF7FEFF 		bl	TIM_CCxChannelCmd
1680:Drivers/STM32F7xx_HAL_Driver/Src/stm32f7xx_hal_tim_ex.c **** 
1681:Drivers/STM32F7xx_HAL_Driver/Src/stm32f7xx_hal_tim_ex.c ****   /* Disable the Main Output */
1682:Drivers/STM32F7xx_HAL_Driver/Src/stm32f7xx_hal_tim_ex.c ****   __HAL_TIM_MOE_DISABLE(htim);
 5162              		.loc 1 1682 3 discriminator 4
 5163 0054 7B68     		ldr	r3, [r7, #4]
 5164 0056 1B68     		ldr	r3, [r3]
 5165 0058 1A6A     		ldr	r2, [r3, #32]
 5166 005a 41F21113 		movw	r3, #4369
 5167 005e 1340     		ands	r3, r3, r2
 5168 0060 002B     		cmp	r3, #0
 5169 0062 0FD1     		bne	.L345
 5170              		.loc 1 1682 3 is_stmt 0 discriminator 1
 5171 0064 7B68     		ldr	r3, [r7, #4]
 5172 0066 1B68     		ldr	r3, [r3]
 5173 0068 1A6A     		ldr	r2, [r3, #32]
 5174 006a 40F24443 		movw	r3, #1092
 5175 006e 1340     		ands	r3, r3, r2
 5176 0070 002B     		cmp	r3, #0
 5177 0072 07D1     		bne	.L345
ARM GAS  /tmp/ccOFTjtU.s 			page 123


 5178              		.loc 1 1682 3 discriminator 2
 5179 0074 7B68     		ldr	r3, [r7, #4]
 5180 0076 1B68     		ldr	r3, [r3]
 5181 0078 5A6C     		ldr	r2, [r3, #68]
 5182 007a 7B68     		ldr	r3, [r7, #4]
 5183 007c 1B68     		ldr	r3, [r3]
 5184 007e 22F40042 		bic	r2, r2, #32768
 5185 0082 5A64     		str	r2, [r3, #68]
 5186              	.L345:
1683:Drivers/STM32F7xx_HAL_Driver/Src/stm32f7xx_hal_tim_ex.c **** 
1684:Drivers/STM32F7xx_HAL_Driver/Src/stm32f7xx_hal_tim_ex.c ****   /* Disable the Peripheral */
1685:Drivers/STM32F7xx_HAL_Driver/Src/stm32f7xx_hal_tim_ex.c ****   __HAL_TIM_DISABLE(htim);
 5187              		.loc 1 1685 3 is_stmt 1
 5188 0084 7B68     		ldr	r3, [r7, #4]
 5189 0086 1B68     		ldr	r3, [r3]
 5190 0088 1A6A     		ldr	r2, [r3, #32]
 5191 008a 41F21113 		movw	r3, #4369
 5192 008e 1340     		ands	r3, r3, r2
 5193 0090 002B     		cmp	r3, #0
 5194 0092 0FD1     		bne	.L346
 5195              		.loc 1 1685 3 is_stmt 0 discriminator 1
 5196 0094 7B68     		ldr	r3, [r7, #4]
 5197 0096 1B68     		ldr	r3, [r3]
 5198 0098 1A6A     		ldr	r2, [r3, #32]
 5199 009a 40F24443 		movw	r3, #1092
 5200 009e 1340     		ands	r3, r3, r2
 5201 00a0 002B     		cmp	r3, #0
 5202 00a2 07D1     		bne	.L346
 5203              		.loc 1 1685 3 discriminator 2
 5204 00a4 7B68     		ldr	r3, [r7, #4]
 5205 00a6 1B68     		ldr	r3, [r3]
 5206 00a8 1A68     		ldr	r2, [r3]
 5207 00aa 7B68     		ldr	r3, [r7, #4]
 5208 00ac 1B68     		ldr	r3, [r3]
 5209 00ae 22F00102 		bic	r2, r2, #1
 5210 00b2 1A60     		str	r2, [r3]
 5211              	.L346:
1686:Drivers/STM32F7xx_HAL_Driver/Src/stm32f7xx_hal_tim_ex.c **** 
1687:Drivers/STM32F7xx_HAL_Driver/Src/stm32f7xx_hal_tim_ex.c ****   /* Set the TIM  channels state */
1688:Drivers/STM32F7xx_HAL_Driver/Src/stm32f7xx_hal_tim_ex.c ****   TIM_CHANNEL_STATE_SET(htim, TIM_CHANNEL_1, HAL_TIM_CHANNEL_STATE_READY);
 5212              		.loc 1 1688 3 is_stmt 1
 5213 00b4 7B68     		ldr	r3, [r7, #4]
 5214 00b6 0122     		movs	r2, #1
 5215 00b8 83F83E20 		strb	r2, [r3, #62]
1689:Drivers/STM32F7xx_HAL_Driver/Src/stm32f7xx_hal_tim_ex.c ****   TIM_CHANNEL_STATE_SET(htim, TIM_CHANNEL_2, HAL_TIM_CHANNEL_STATE_READY);
 5216              		.loc 1 1689 3
 5217 00bc 7B68     		ldr	r3, [r7, #4]
 5218 00be 0122     		movs	r2, #1
 5219 00c0 83F83F20 		strb	r2, [r3, #63]
1690:Drivers/STM32F7xx_HAL_Driver/Src/stm32f7xx_hal_tim_ex.c ****   TIM_CHANNEL_N_STATE_SET(htim, TIM_CHANNEL_1, HAL_TIM_CHANNEL_STATE_READY);
 5220              		.loc 1 1690 3
 5221 00c4 7B68     		ldr	r3, [r7, #4]
 5222 00c6 0122     		movs	r2, #1
 5223 00c8 83F84420 		strb	r2, [r3, #68]
1691:Drivers/STM32F7xx_HAL_Driver/Src/stm32f7xx_hal_tim_ex.c ****   TIM_CHANNEL_N_STATE_SET(htim, TIM_CHANNEL_2, HAL_TIM_CHANNEL_STATE_READY);
 5224              		.loc 1 1691 3
 5225 00cc 7B68     		ldr	r3, [r7, #4]
ARM GAS  /tmp/ccOFTjtU.s 			page 124


 5226 00ce 0122     		movs	r2, #1
 5227 00d0 83F84520 		strb	r2, [r3, #69]
1692:Drivers/STM32F7xx_HAL_Driver/Src/stm32f7xx_hal_tim_ex.c **** 
1693:Drivers/STM32F7xx_HAL_Driver/Src/stm32f7xx_hal_tim_ex.c ****   /* Return function status */
1694:Drivers/STM32F7xx_HAL_Driver/Src/stm32f7xx_hal_tim_ex.c ****   return HAL_OK;
 5228              		.loc 1 1694 10
 5229 00d4 0023     		movs	r3, #0
1695:Drivers/STM32F7xx_HAL_Driver/Src/stm32f7xx_hal_tim_ex.c **** }
 5230              		.loc 1 1695 1
 5231 00d6 1846     		mov	r0, r3
 5232 00d8 1037     		adds	r7, r7, #16
 5233              	.LCFI130:
 5234              		.cfi_def_cfa_offset 8
 5235 00da BD46     		mov	sp, r7
 5236              	.LCFI131:
 5237              		.cfi_def_cfa_register 13
 5238              		@ sp needed
 5239 00dc 80BD     		pop	{r7, pc}
 5240              		.cfi_endproc
 5241              	.LFE166:
 5243              		.section	.text.HAL_TIMEx_ConfigCommutEvent,"ax",%progbits
 5244              		.align	1
 5245              		.global	HAL_TIMEx_ConfigCommutEvent
 5246              		.syntax unified
 5247              		.thumb
 5248              		.thumb_func
 5249              		.fpu fpv5-d16
 5251              	HAL_TIMEx_ConfigCommutEvent:
 5252              	.LFB167:
1696:Drivers/STM32F7xx_HAL_Driver/Src/stm32f7xx_hal_tim_ex.c **** 
1697:Drivers/STM32F7xx_HAL_Driver/Src/stm32f7xx_hal_tim_ex.c **** /**
1698:Drivers/STM32F7xx_HAL_Driver/Src/stm32f7xx_hal_tim_ex.c ****   * @}
1699:Drivers/STM32F7xx_HAL_Driver/Src/stm32f7xx_hal_tim_ex.c ****   */
1700:Drivers/STM32F7xx_HAL_Driver/Src/stm32f7xx_hal_tim_ex.c **** 
1701:Drivers/STM32F7xx_HAL_Driver/Src/stm32f7xx_hal_tim_ex.c **** /** @defgroup TIMEx_Exported_Functions_Group5 Extended Peripheral Control functions
1702:Drivers/STM32F7xx_HAL_Driver/Src/stm32f7xx_hal_tim_ex.c ****   * @brief    Peripheral Control functions
1703:Drivers/STM32F7xx_HAL_Driver/Src/stm32f7xx_hal_tim_ex.c ****   *
1704:Drivers/STM32F7xx_HAL_Driver/Src/stm32f7xx_hal_tim_ex.c **** @verbatim
1705:Drivers/STM32F7xx_HAL_Driver/Src/stm32f7xx_hal_tim_ex.c ****   ==============================================================================
1706:Drivers/STM32F7xx_HAL_Driver/Src/stm32f7xx_hal_tim_ex.c ****                     ##### Peripheral Control functions #####
1707:Drivers/STM32F7xx_HAL_Driver/Src/stm32f7xx_hal_tim_ex.c ****   ==============================================================================
1708:Drivers/STM32F7xx_HAL_Driver/Src/stm32f7xx_hal_tim_ex.c ****   [..]
1709:Drivers/STM32F7xx_HAL_Driver/Src/stm32f7xx_hal_tim_ex.c ****     This section provides functions allowing to:
1710:Drivers/STM32F7xx_HAL_Driver/Src/stm32f7xx_hal_tim_ex.c ****       (+) Configure the commutation event in case of use of the Hall sensor interface.
1711:Drivers/STM32F7xx_HAL_Driver/Src/stm32f7xx_hal_tim_ex.c ****       (+) Configure Output channels for OC and PWM mode.
1712:Drivers/STM32F7xx_HAL_Driver/Src/stm32f7xx_hal_tim_ex.c **** 
1713:Drivers/STM32F7xx_HAL_Driver/Src/stm32f7xx_hal_tim_ex.c ****       (+) Configure Complementary channels, break features and dead time.
1714:Drivers/STM32F7xx_HAL_Driver/Src/stm32f7xx_hal_tim_ex.c ****       (+) Configure Master synchronization.
1715:Drivers/STM32F7xx_HAL_Driver/Src/stm32f7xx_hal_tim_ex.c ****       (+) Configure timer remapping capabilities.
1716:Drivers/STM32F7xx_HAL_Driver/Src/stm32f7xx_hal_tim_ex.c ****       (+) Enable or disable channel grouping.
1717:Drivers/STM32F7xx_HAL_Driver/Src/stm32f7xx_hal_tim_ex.c **** 
1718:Drivers/STM32F7xx_HAL_Driver/Src/stm32f7xx_hal_tim_ex.c **** @endverbatim
1719:Drivers/STM32F7xx_HAL_Driver/Src/stm32f7xx_hal_tim_ex.c ****   * @{
1720:Drivers/STM32F7xx_HAL_Driver/Src/stm32f7xx_hal_tim_ex.c ****   */
1721:Drivers/STM32F7xx_HAL_Driver/Src/stm32f7xx_hal_tim_ex.c **** 
1722:Drivers/STM32F7xx_HAL_Driver/Src/stm32f7xx_hal_tim_ex.c **** /**
1723:Drivers/STM32F7xx_HAL_Driver/Src/stm32f7xx_hal_tim_ex.c ****   * @brief  Configure the TIM commutation event sequence.
ARM GAS  /tmp/ccOFTjtU.s 			page 125


1724:Drivers/STM32F7xx_HAL_Driver/Src/stm32f7xx_hal_tim_ex.c ****   * @note  This function is mandatory to use the commutation event in order to
1725:Drivers/STM32F7xx_HAL_Driver/Src/stm32f7xx_hal_tim_ex.c ****   *        update the configuration at each commutation detection on the TRGI input of the Timer,
1726:Drivers/STM32F7xx_HAL_Driver/Src/stm32f7xx_hal_tim_ex.c ****   *        the typical use of this feature is with the use of another Timer(interface Timer)
1727:Drivers/STM32F7xx_HAL_Driver/Src/stm32f7xx_hal_tim_ex.c ****   *        configured in Hall sensor interface, this interface Timer will generate the
1728:Drivers/STM32F7xx_HAL_Driver/Src/stm32f7xx_hal_tim_ex.c ****   *        commutation at its TRGO output (connected to Timer used in this function) each time
1729:Drivers/STM32F7xx_HAL_Driver/Src/stm32f7xx_hal_tim_ex.c ****   *        the TI1 of the Interface Timer detect a commutation at its input TI1.
1730:Drivers/STM32F7xx_HAL_Driver/Src/stm32f7xx_hal_tim_ex.c ****   * @param  htim TIM handle
1731:Drivers/STM32F7xx_HAL_Driver/Src/stm32f7xx_hal_tim_ex.c ****   * @param  InputTrigger the Internal trigger corresponding to the Timer Interfacing with the Hall 
1732:Drivers/STM32F7xx_HAL_Driver/Src/stm32f7xx_hal_tim_ex.c ****   *          This parameter can be one of the following values:
1733:Drivers/STM32F7xx_HAL_Driver/Src/stm32f7xx_hal_tim_ex.c ****   *            @arg TIM_TS_ITR0: Internal trigger 0 selected
1734:Drivers/STM32F7xx_HAL_Driver/Src/stm32f7xx_hal_tim_ex.c ****   *            @arg TIM_TS_ITR1: Internal trigger 1 selected
1735:Drivers/STM32F7xx_HAL_Driver/Src/stm32f7xx_hal_tim_ex.c ****   *            @arg TIM_TS_ITR2: Internal trigger 2 selected
1736:Drivers/STM32F7xx_HAL_Driver/Src/stm32f7xx_hal_tim_ex.c ****   *            @arg TIM_TS_ITR3: Internal trigger 3 selected
1737:Drivers/STM32F7xx_HAL_Driver/Src/stm32f7xx_hal_tim_ex.c ****   *            @arg TIM_TS_NONE: No trigger is needed
1738:Drivers/STM32F7xx_HAL_Driver/Src/stm32f7xx_hal_tim_ex.c ****   * @param  CommutationSource the Commutation Event source
1739:Drivers/STM32F7xx_HAL_Driver/Src/stm32f7xx_hal_tim_ex.c ****   *          This parameter can be one of the following values:
1740:Drivers/STM32F7xx_HAL_Driver/Src/stm32f7xx_hal_tim_ex.c ****   *            @arg TIM_COMMUTATION_TRGI: Commutation source is the TRGI of the Interface Timer
1741:Drivers/STM32F7xx_HAL_Driver/Src/stm32f7xx_hal_tim_ex.c ****   *            @arg TIM_COMMUTATION_SOFTWARE:  Commutation source is set by software using the COMG
1742:Drivers/STM32F7xx_HAL_Driver/Src/stm32f7xx_hal_tim_ex.c ****   * @retval HAL status
1743:Drivers/STM32F7xx_HAL_Driver/Src/stm32f7xx_hal_tim_ex.c ****   */
1744:Drivers/STM32F7xx_HAL_Driver/Src/stm32f7xx_hal_tim_ex.c **** HAL_StatusTypeDef HAL_TIMEx_ConfigCommutEvent(TIM_HandleTypeDef *htim, uint32_t  InputTrigger,
1745:Drivers/STM32F7xx_HAL_Driver/Src/stm32f7xx_hal_tim_ex.c ****                                               uint32_t  CommutationSource)
1746:Drivers/STM32F7xx_HAL_Driver/Src/stm32f7xx_hal_tim_ex.c **** {
 5253              		.loc 1 1746 1
 5254              		.cfi_startproc
 5255              		@ args = 0, pretend = 0, frame = 16
 5256              		@ frame_needed = 1, uses_anonymous_args = 0
 5257              		@ link register save eliminated.
 5258 0000 80B4     		push	{r7}
 5259              	.LCFI132:
 5260              		.cfi_def_cfa_offset 4
 5261              		.cfi_offset 7, -4
 5262 0002 85B0     		sub	sp, sp, #20
 5263              	.LCFI133:
 5264              		.cfi_def_cfa_offset 24
 5265 0004 00AF     		add	r7, sp, #0
 5266              	.LCFI134:
 5267              		.cfi_def_cfa_register 7
 5268 0006 F860     		str	r0, [r7, #12]
 5269 0008 B960     		str	r1, [r7, #8]
 5270 000a 7A60     		str	r2, [r7, #4]
1747:Drivers/STM32F7xx_HAL_Driver/Src/stm32f7xx_hal_tim_ex.c ****   /* Check the parameters */
1748:Drivers/STM32F7xx_HAL_Driver/Src/stm32f7xx_hal_tim_ex.c ****   assert_param(IS_TIM_COMMUTATION_EVENT_INSTANCE(htim->Instance));
1749:Drivers/STM32F7xx_HAL_Driver/Src/stm32f7xx_hal_tim_ex.c ****   assert_param(IS_TIM_INTERNAL_TRIGGEREVENT_SELECTION(InputTrigger));
1750:Drivers/STM32F7xx_HAL_Driver/Src/stm32f7xx_hal_tim_ex.c **** 
1751:Drivers/STM32F7xx_HAL_Driver/Src/stm32f7xx_hal_tim_ex.c ****   __HAL_LOCK(htim);
 5271              		.loc 1 1751 3
 5272 000c FB68     		ldr	r3, [r7, #12]
 5273 000e 93F83C30 		ldrb	r3, [r3, #60]	@ zero_extendqisi2
 5274 0012 012B     		cmp	r3, #1
 5275 0014 01D1     		bne	.L349
 5276              		.loc 1 1751 3 is_stmt 0 discriminator 1
 5277 0016 0223     		movs	r3, #2
 5278 0018 4CE0     		b	.L350
 5279              	.L349:
 5280              		.loc 1 1751 3 discriminator 2
 5281 001a FB68     		ldr	r3, [r7, #12]
ARM GAS  /tmp/ccOFTjtU.s 			page 126


 5282 001c 0122     		movs	r2, #1
 5283 001e 83F83C20 		strb	r2, [r3, #60]
1752:Drivers/STM32F7xx_HAL_Driver/Src/stm32f7xx_hal_tim_ex.c **** 
1753:Drivers/STM32F7xx_HAL_Driver/Src/stm32f7xx_hal_tim_ex.c ****   if ((InputTrigger == TIM_TS_ITR0) || (InputTrigger == TIM_TS_ITR1) ||
 5284              		.loc 1 1753 6 is_stmt 1 discriminator 2
 5285 0022 BB68     		ldr	r3, [r7, #8]
 5286 0024 002B     		cmp	r3, #0
 5287 0026 08D0     		beq	.L351
 5288              		.loc 1 1753 37 discriminator 1
 5289 0028 BB68     		ldr	r3, [r7, #8]
 5290 002a 102B     		cmp	r3, #16
 5291 002c 05D0     		beq	.L351
 5292              		.loc 1 1753 70 discriminator 2
 5293 002e BB68     		ldr	r3, [r7, #8]
 5294 0030 202B     		cmp	r3, #32
 5295 0032 02D0     		beq	.L351
1754:Drivers/STM32F7xx_HAL_Driver/Src/stm32f7xx_hal_tim_ex.c ****       (InputTrigger == TIM_TS_ITR2) || (InputTrigger == TIM_TS_ITR3))
 5296              		.loc 1 1754 37
 5297 0034 BB68     		ldr	r3, [r7, #8]
 5298 0036 302B     		cmp	r3, #48
 5299 0038 0FD1     		bne	.L352
 5300              	.L351:
1755:Drivers/STM32F7xx_HAL_Driver/Src/stm32f7xx_hal_tim_ex.c ****   {
1756:Drivers/STM32F7xx_HAL_Driver/Src/stm32f7xx_hal_tim_ex.c ****     /* Select the Input trigger */
1757:Drivers/STM32F7xx_HAL_Driver/Src/stm32f7xx_hal_tim_ex.c ****     htim->Instance->SMCR &= ~TIM_SMCR_TS;
 5301              		.loc 1 1757 9
 5302 003a FB68     		ldr	r3, [r7, #12]
 5303 003c 1B68     		ldr	r3, [r3]
 5304              		.loc 1 1757 26
 5305 003e 9A68     		ldr	r2, [r3, #8]
 5306              		.loc 1 1757 9
 5307 0040 FB68     		ldr	r3, [r7, #12]
 5308 0042 1B68     		ldr	r3, [r3]
 5309              		.loc 1 1757 26
 5310 0044 22F07002 		bic	r2, r2, #112
 5311 0048 9A60     		str	r2, [r3, #8]
1758:Drivers/STM32F7xx_HAL_Driver/Src/stm32f7xx_hal_tim_ex.c ****     htim->Instance->SMCR |= InputTrigger;
 5312              		.loc 1 1758 9
 5313 004a FB68     		ldr	r3, [r7, #12]
 5314 004c 1B68     		ldr	r3, [r3]
 5315              		.loc 1 1758 26
 5316 004e 9968     		ldr	r1, [r3, #8]
 5317              		.loc 1 1758 9
 5318 0050 FB68     		ldr	r3, [r7, #12]
 5319 0052 1B68     		ldr	r3, [r3]
 5320              		.loc 1 1758 26
 5321 0054 BA68     		ldr	r2, [r7, #8]
 5322 0056 0A43     		orrs	r2, r2, r1
 5323 0058 9A60     		str	r2, [r3, #8]
 5324              	.L352:
1759:Drivers/STM32F7xx_HAL_Driver/Src/stm32f7xx_hal_tim_ex.c ****   }
1760:Drivers/STM32F7xx_HAL_Driver/Src/stm32f7xx_hal_tim_ex.c **** 
1761:Drivers/STM32F7xx_HAL_Driver/Src/stm32f7xx_hal_tim_ex.c ****   /* Select the Capture Compare preload feature */
1762:Drivers/STM32F7xx_HAL_Driver/Src/stm32f7xx_hal_tim_ex.c ****   htim->Instance->CR2 |= TIM_CR2_CCPC;
 5325              		.loc 1 1762 7
 5326 005a FB68     		ldr	r3, [r7, #12]
 5327 005c 1B68     		ldr	r3, [r3]
ARM GAS  /tmp/ccOFTjtU.s 			page 127


 5328              		.loc 1 1762 23
 5329 005e 5A68     		ldr	r2, [r3, #4]
 5330              		.loc 1 1762 7
 5331 0060 FB68     		ldr	r3, [r7, #12]
 5332 0062 1B68     		ldr	r3, [r3]
 5333              		.loc 1 1762 23
 5334 0064 42F00102 		orr	r2, r2, #1
 5335 0068 5A60     		str	r2, [r3, #4]
1763:Drivers/STM32F7xx_HAL_Driver/Src/stm32f7xx_hal_tim_ex.c ****   /* Select the Commutation event source */
1764:Drivers/STM32F7xx_HAL_Driver/Src/stm32f7xx_hal_tim_ex.c ****   htim->Instance->CR2 &= ~TIM_CR2_CCUS;
 5336              		.loc 1 1764 7
 5337 006a FB68     		ldr	r3, [r7, #12]
 5338 006c 1B68     		ldr	r3, [r3]
 5339              		.loc 1 1764 23
 5340 006e 5A68     		ldr	r2, [r3, #4]
 5341              		.loc 1 1764 7
 5342 0070 FB68     		ldr	r3, [r7, #12]
 5343 0072 1B68     		ldr	r3, [r3]
 5344              		.loc 1 1764 23
 5345 0074 22F00402 		bic	r2, r2, #4
 5346 0078 5A60     		str	r2, [r3, #4]
1765:Drivers/STM32F7xx_HAL_Driver/Src/stm32f7xx_hal_tim_ex.c ****   htim->Instance->CR2 |= CommutationSource;
 5347              		.loc 1 1765 7
 5348 007a FB68     		ldr	r3, [r7, #12]
 5349 007c 1B68     		ldr	r3, [r3]
 5350              		.loc 1 1765 23
 5351 007e 5968     		ldr	r1, [r3, #4]
 5352              		.loc 1 1765 7
 5353 0080 FB68     		ldr	r3, [r7, #12]
 5354 0082 1B68     		ldr	r3, [r3]
 5355              		.loc 1 1765 23
 5356 0084 7A68     		ldr	r2, [r7, #4]
 5357 0086 0A43     		orrs	r2, r2, r1
 5358 0088 5A60     		str	r2, [r3, #4]
1766:Drivers/STM32F7xx_HAL_Driver/Src/stm32f7xx_hal_tim_ex.c **** 
1767:Drivers/STM32F7xx_HAL_Driver/Src/stm32f7xx_hal_tim_ex.c ****   /* Disable Commutation Interrupt */
1768:Drivers/STM32F7xx_HAL_Driver/Src/stm32f7xx_hal_tim_ex.c ****   __HAL_TIM_DISABLE_IT(htim, TIM_IT_COM);
 5359              		.loc 1 1768 3
 5360 008a FB68     		ldr	r3, [r7, #12]
 5361 008c 1B68     		ldr	r3, [r3]
 5362 008e DA68     		ldr	r2, [r3, #12]
 5363 0090 FB68     		ldr	r3, [r7, #12]
 5364 0092 1B68     		ldr	r3, [r3]
 5365 0094 22F02002 		bic	r2, r2, #32
 5366 0098 DA60     		str	r2, [r3, #12]
1769:Drivers/STM32F7xx_HAL_Driver/Src/stm32f7xx_hal_tim_ex.c **** 
1770:Drivers/STM32F7xx_HAL_Driver/Src/stm32f7xx_hal_tim_ex.c ****   /* Disable Commutation DMA request */
1771:Drivers/STM32F7xx_HAL_Driver/Src/stm32f7xx_hal_tim_ex.c ****   __HAL_TIM_DISABLE_DMA(htim, TIM_DMA_COM);
 5367              		.loc 1 1771 3
 5368 009a FB68     		ldr	r3, [r7, #12]
 5369 009c 1B68     		ldr	r3, [r3]
 5370 009e DA68     		ldr	r2, [r3, #12]
 5371 00a0 FB68     		ldr	r3, [r7, #12]
 5372 00a2 1B68     		ldr	r3, [r3]
 5373 00a4 22F40052 		bic	r2, r2, #8192
 5374 00a8 DA60     		str	r2, [r3, #12]
1772:Drivers/STM32F7xx_HAL_Driver/Src/stm32f7xx_hal_tim_ex.c **** 
ARM GAS  /tmp/ccOFTjtU.s 			page 128


1773:Drivers/STM32F7xx_HAL_Driver/Src/stm32f7xx_hal_tim_ex.c ****   __HAL_UNLOCK(htim);
 5375              		.loc 1 1773 3
 5376 00aa FB68     		ldr	r3, [r7, #12]
 5377 00ac 0022     		movs	r2, #0
 5378 00ae 83F83C20 		strb	r2, [r3, #60]
1774:Drivers/STM32F7xx_HAL_Driver/Src/stm32f7xx_hal_tim_ex.c **** 
1775:Drivers/STM32F7xx_HAL_Driver/Src/stm32f7xx_hal_tim_ex.c ****   return HAL_OK;
 5379              		.loc 1 1775 10
 5380 00b2 0023     		movs	r3, #0
 5381              	.L350:
1776:Drivers/STM32F7xx_HAL_Driver/Src/stm32f7xx_hal_tim_ex.c **** }
 5382              		.loc 1 1776 1
 5383 00b4 1846     		mov	r0, r3
 5384 00b6 1437     		adds	r7, r7, #20
 5385              	.LCFI135:
 5386              		.cfi_def_cfa_offset 4
 5387 00b8 BD46     		mov	sp, r7
 5388              	.LCFI136:
 5389              		.cfi_def_cfa_register 13
 5390              		@ sp needed
 5391 00ba 5DF8047B 		ldr	r7, [sp], #4
 5392              	.LCFI137:
 5393              		.cfi_restore 7
 5394              		.cfi_def_cfa_offset 0
 5395 00be 7047     		bx	lr
 5396              		.cfi_endproc
 5397              	.LFE167:
 5399              		.section	.text.HAL_TIMEx_ConfigCommutEvent_IT,"ax",%progbits
 5400              		.align	1
 5401              		.global	HAL_TIMEx_ConfigCommutEvent_IT
 5402              		.syntax unified
 5403              		.thumb
 5404              		.thumb_func
 5405              		.fpu fpv5-d16
 5407              	HAL_TIMEx_ConfigCommutEvent_IT:
 5408              	.LFB168:
1777:Drivers/STM32F7xx_HAL_Driver/Src/stm32f7xx_hal_tim_ex.c **** 
1778:Drivers/STM32F7xx_HAL_Driver/Src/stm32f7xx_hal_tim_ex.c **** /**
1779:Drivers/STM32F7xx_HAL_Driver/Src/stm32f7xx_hal_tim_ex.c ****   * @brief  Configure the TIM commutation event sequence with interrupt.
1780:Drivers/STM32F7xx_HAL_Driver/Src/stm32f7xx_hal_tim_ex.c ****   * @note  This function is mandatory to use the commutation event in order to
1781:Drivers/STM32F7xx_HAL_Driver/Src/stm32f7xx_hal_tim_ex.c ****   *        update the configuration at each commutation detection on the TRGI input of the Timer,
1782:Drivers/STM32F7xx_HAL_Driver/Src/stm32f7xx_hal_tim_ex.c ****   *        the typical use of this feature is with the use of another Timer(interface Timer)
1783:Drivers/STM32F7xx_HAL_Driver/Src/stm32f7xx_hal_tim_ex.c ****   *        configured in Hall sensor interface, this interface Timer will generate the
1784:Drivers/STM32F7xx_HAL_Driver/Src/stm32f7xx_hal_tim_ex.c ****   *        commutation at its TRGO output (connected to Timer used in this function) each time
1785:Drivers/STM32F7xx_HAL_Driver/Src/stm32f7xx_hal_tim_ex.c ****   *        the TI1 of the Interface Timer detect a commutation at its input TI1.
1786:Drivers/STM32F7xx_HAL_Driver/Src/stm32f7xx_hal_tim_ex.c ****   * @param  htim TIM handle
1787:Drivers/STM32F7xx_HAL_Driver/Src/stm32f7xx_hal_tim_ex.c ****   * @param  InputTrigger the Internal trigger corresponding to the Timer Interfacing with the Hall 
1788:Drivers/STM32F7xx_HAL_Driver/Src/stm32f7xx_hal_tim_ex.c ****   *          This parameter can be one of the following values:
1789:Drivers/STM32F7xx_HAL_Driver/Src/stm32f7xx_hal_tim_ex.c ****   *            @arg TIM_TS_ITR0: Internal trigger 0 selected
1790:Drivers/STM32F7xx_HAL_Driver/Src/stm32f7xx_hal_tim_ex.c ****   *            @arg TIM_TS_ITR1: Internal trigger 1 selected
1791:Drivers/STM32F7xx_HAL_Driver/Src/stm32f7xx_hal_tim_ex.c ****   *            @arg TIM_TS_ITR2: Internal trigger 2 selected
1792:Drivers/STM32F7xx_HAL_Driver/Src/stm32f7xx_hal_tim_ex.c ****   *            @arg TIM_TS_ITR3: Internal trigger 3 selected
1793:Drivers/STM32F7xx_HAL_Driver/Src/stm32f7xx_hal_tim_ex.c ****   *            @arg TIM_TS_NONE: No trigger is needed
1794:Drivers/STM32F7xx_HAL_Driver/Src/stm32f7xx_hal_tim_ex.c ****   * @param  CommutationSource the Commutation Event source
1795:Drivers/STM32F7xx_HAL_Driver/Src/stm32f7xx_hal_tim_ex.c ****   *          This parameter can be one of the following values:
1796:Drivers/STM32F7xx_HAL_Driver/Src/stm32f7xx_hal_tim_ex.c ****   *            @arg TIM_COMMUTATION_TRGI: Commutation source is the TRGI of the Interface Timer
1797:Drivers/STM32F7xx_HAL_Driver/Src/stm32f7xx_hal_tim_ex.c ****   *            @arg TIM_COMMUTATION_SOFTWARE:  Commutation source is set by software using the COMG
ARM GAS  /tmp/ccOFTjtU.s 			page 129


1798:Drivers/STM32F7xx_HAL_Driver/Src/stm32f7xx_hal_tim_ex.c ****   * @retval HAL status
1799:Drivers/STM32F7xx_HAL_Driver/Src/stm32f7xx_hal_tim_ex.c ****   */
1800:Drivers/STM32F7xx_HAL_Driver/Src/stm32f7xx_hal_tim_ex.c **** HAL_StatusTypeDef HAL_TIMEx_ConfigCommutEvent_IT(TIM_HandleTypeDef *htim, uint32_t  InputTrigger,
1801:Drivers/STM32F7xx_HAL_Driver/Src/stm32f7xx_hal_tim_ex.c ****                                                  uint32_t  CommutationSource)
1802:Drivers/STM32F7xx_HAL_Driver/Src/stm32f7xx_hal_tim_ex.c **** {
 5409              		.loc 1 1802 1
 5410              		.cfi_startproc
 5411              		@ args = 0, pretend = 0, frame = 16
 5412              		@ frame_needed = 1, uses_anonymous_args = 0
 5413              		@ link register save eliminated.
 5414 0000 80B4     		push	{r7}
 5415              	.LCFI138:
 5416              		.cfi_def_cfa_offset 4
 5417              		.cfi_offset 7, -4
 5418 0002 85B0     		sub	sp, sp, #20
 5419              	.LCFI139:
 5420              		.cfi_def_cfa_offset 24
 5421 0004 00AF     		add	r7, sp, #0
 5422              	.LCFI140:
 5423              		.cfi_def_cfa_register 7
 5424 0006 F860     		str	r0, [r7, #12]
 5425 0008 B960     		str	r1, [r7, #8]
 5426 000a 7A60     		str	r2, [r7, #4]
1803:Drivers/STM32F7xx_HAL_Driver/Src/stm32f7xx_hal_tim_ex.c ****   /* Check the parameters */
1804:Drivers/STM32F7xx_HAL_Driver/Src/stm32f7xx_hal_tim_ex.c ****   assert_param(IS_TIM_COMMUTATION_EVENT_INSTANCE(htim->Instance));
1805:Drivers/STM32F7xx_HAL_Driver/Src/stm32f7xx_hal_tim_ex.c ****   assert_param(IS_TIM_INTERNAL_TRIGGEREVENT_SELECTION(InputTrigger));
1806:Drivers/STM32F7xx_HAL_Driver/Src/stm32f7xx_hal_tim_ex.c **** 
1807:Drivers/STM32F7xx_HAL_Driver/Src/stm32f7xx_hal_tim_ex.c ****   __HAL_LOCK(htim);
 5427              		.loc 1 1807 3
 5428 000c FB68     		ldr	r3, [r7, #12]
 5429 000e 93F83C30 		ldrb	r3, [r3, #60]	@ zero_extendqisi2
 5430 0012 012B     		cmp	r3, #1
 5431 0014 01D1     		bne	.L354
 5432              		.loc 1 1807 3 is_stmt 0 discriminator 1
 5433 0016 0223     		movs	r3, #2
 5434 0018 4CE0     		b	.L355
 5435              	.L354:
 5436              		.loc 1 1807 3 discriminator 2
 5437 001a FB68     		ldr	r3, [r7, #12]
 5438 001c 0122     		movs	r2, #1
 5439 001e 83F83C20 		strb	r2, [r3, #60]
1808:Drivers/STM32F7xx_HAL_Driver/Src/stm32f7xx_hal_tim_ex.c **** 
1809:Drivers/STM32F7xx_HAL_Driver/Src/stm32f7xx_hal_tim_ex.c ****   if ((InputTrigger == TIM_TS_ITR0) || (InputTrigger == TIM_TS_ITR1) ||
 5440              		.loc 1 1809 6 is_stmt 1 discriminator 2
 5441 0022 BB68     		ldr	r3, [r7, #8]
 5442 0024 002B     		cmp	r3, #0
 5443 0026 08D0     		beq	.L356
 5444              		.loc 1 1809 37 discriminator 1
 5445 0028 BB68     		ldr	r3, [r7, #8]
 5446 002a 102B     		cmp	r3, #16
 5447 002c 05D0     		beq	.L356
 5448              		.loc 1 1809 70 discriminator 2
 5449 002e BB68     		ldr	r3, [r7, #8]
 5450 0030 202B     		cmp	r3, #32
 5451 0032 02D0     		beq	.L356
1810:Drivers/STM32F7xx_HAL_Driver/Src/stm32f7xx_hal_tim_ex.c ****       (InputTrigger == TIM_TS_ITR2) || (InputTrigger == TIM_TS_ITR3))
 5452              		.loc 1 1810 37
ARM GAS  /tmp/ccOFTjtU.s 			page 130


 5453 0034 BB68     		ldr	r3, [r7, #8]
 5454 0036 302B     		cmp	r3, #48
 5455 0038 0FD1     		bne	.L357
 5456              	.L356:
1811:Drivers/STM32F7xx_HAL_Driver/Src/stm32f7xx_hal_tim_ex.c ****   {
1812:Drivers/STM32F7xx_HAL_Driver/Src/stm32f7xx_hal_tim_ex.c ****     /* Select the Input trigger */
1813:Drivers/STM32F7xx_HAL_Driver/Src/stm32f7xx_hal_tim_ex.c ****     htim->Instance->SMCR &= ~TIM_SMCR_TS;
 5457              		.loc 1 1813 9
 5458 003a FB68     		ldr	r3, [r7, #12]
 5459 003c 1B68     		ldr	r3, [r3]
 5460              		.loc 1 1813 26
 5461 003e 9A68     		ldr	r2, [r3, #8]
 5462              		.loc 1 1813 9
 5463 0040 FB68     		ldr	r3, [r7, #12]
 5464 0042 1B68     		ldr	r3, [r3]
 5465              		.loc 1 1813 26
 5466 0044 22F07002 		bic	r2, r2, #112
 5467 0048 9A60     		str	r2, [r3, #8]
1814:Drivers/STM32F7xx_HAL_Driver/Src/stm32f7xx_hal_tim_ex.c ****     htim->Instance->SMCR |= InputTrigger;
 5468              		.loc 1 1814 9
 5469 004a FB68     		ldr	r3, [r7, #12]
 5470 004c 1B68     		ldr	r3, [r3]
 5471              		.loc 1 1814 26
 5472 004e 9968     		ldr	r1, [r3, #8]
 5473              		.loc 1 1814 9
 5474 0050 FB68     		ldr	r3, [r7, #12]
 5475 0052 1B68     		ldr	r3, [r3]
 5476              		.loc 1 1814 26
 5477 0054 BA68     		ldr	r2, [r7, #8]
 5478 0056 0A43     		orrs	r2, r2, r1
 5479 0058 9A60     		str	r2, [r3, #8]
 5480              	.L357:
1815:Drivers/STM32F7xx_HAL_Driver/Src/stm32f7xx_hal_tim_ex.c ****   }
1816:Drivers/STM32F7xx_HAL_Driver/Src/stm32f7xx_hal_tim_ex.c **** 
1817:Drivers/STM32F7xx_HAL_Driver/Src/stm32f7xx_hal_tim_ex.c ****   /* Select the Capture Compare preload feature */
1818:Drivers/STM32F7xx_HAL_Driver/Src/stm32f7xx_hal_tim_ex.c ****   htim->Instance->CR2 |= TIM_CR2_CCPC;
 5481              		.loc 1 1818 7
 5482 005a FB68     		ldr	r3, [r7, #12]
 5483 005c 1B68     		ldr	r3, [r3]
 5484              		.loc 1 1818 23
 5485 005e 5A68     		ldr	r2, [r3, #4]
 5486              		.loc 1 1818 7
 5487 0060 FB68     		ldr	r3, [r7, #12]
 5488 0062 1B68     		ldr	r3, [r3]
 5489              		.loc 1 1818 23
 5490 0064 42F00102 		orr	r2, r2, #1
 5491 0068 5A60     		str	r2, [r3, #4]
1819:Drivers/STM32F7xx_HAL_Driver/Src/stm32f7xx_hal_tim_ex.c ****   /* Select the Commutation event source */
1820:Drivers/STM32F7xx_HAL_Driver/Src/stm32f7xx_hal_tim_ex.c ****   htim->Instance->CR2 &= ~TIM_CR2_CCUS;
 5492              		.loc 1 1820 7
 5493 006a FB68     		ldr	r3, [r7, #12]
 5494 006c 1B68     		ldr	r3, [r3]
 5495              		.loc 1 1820 23
 5496 006e 5A68     		ldr	r2, [r3, #4]
 5497              		.loc 1 1820 7
 5498 0070 FB68     		ldr	r3, [r7, #12]
 5499 0072 1B68     		ldr	r3, [r3]
ARM GAS  /tmp/ccOFTjtU.s 			page 131


 5500              		.loc 1 1820 23
 5501 0074 22F00402 		bic	r2, r2, #4
 5502 0078 5A60     		str	r2, [r3, #4]
1821:Drivers/STM32F7xx_HAL_Driver/Src/stm32f7xx_hal_tim_ex.c ****   htim->Instance->CR2 |= CommutationSource;
 5503              		.loc 1 1821 7
 5504 007a FB68     		ldr	r3, [r7, #12]
 5505 007c 1B68     		ldr	r3, [r3]
 5506              		.loc 1 1821 23
 5507 007e 5968     		ldr	r1, [r3, #4]
 5508              		.loc 1 1821 7
 5509 0080 FB68     		ldr	r3, [r7, #12]
 5510 0082 1B68     		ldr	r3, [r3]
 5511              		.loc 1 1821 23
 5512 0084 7A68     		ldr	r2, [r7, #4]
 5513 0086 0A43     		orrs	r2, r2, r1
 5514 0088 5A60     		str	r2, [r3, #4]
1822:Drivers/STM32F7xx_HAL_Driver/Src/stm32f7xx_hal_tim_ex.c **** 
1823:Drivers/STM32F7xx_HAL_Driver/Src/stm32f7xx_hal_tim_ex.c ****   /* Disable Commutation DMA request */
1824:Drivers/STM32F7xx_HAL_Driver/Src/stm32f7xx_hal_tim_ex.c ****   __HAL_TIM_DISABLE_DMA(htim, TIM_DMA_COM);
 5515              		.loc 1 1824 3
 5516 008a FB68     		ldr	r3, [r7, #12]
 5517 008c 1B68     		ldr	r3, [r3]
 5518 008e DA68     		ldr	r2, [r3, #12]
 5519 0090 FB68     		ldr	r3, [r7, #12]
 5520 0092 1B68     		ldr	r3, [r3]
 5521 0094 22F40052 		bic	r2, r2, #8192
 5522 0098 DA60     		str	r2, [r3, #12]
1825:Drivers/STM32F7xx_HAL_Driver/Src/stm32f7xx_hal_tim_ex.c **** 
1826:Drivers/STM32F7xx_HAL_Driver/Src/stm32f7xx_hal_tim_ex.c ****   /* Enable the Commutation Interrupt */
1827:Drivers/STM32F7xx_HAL_Driver/Src/stm32f7xx_hal_tim_ex.c ****   __HAL_TIM_ENABLE_IT(htim, TIM_IT_COM);
 5523              		.loc 1 1827 3
 5524 009a FB68     		ldr	r3, [r7, #12]
 5525 009c 1B68     		ldr	r3, [r3]
 5526 009e DA68     		ldr	r2, [r3, #12]
 5527 00a0 FB68     		ldr	r3, [r7, #12]
 5528 00a2 1B68     		ldr	r3, [r3]
 5529 00a4 42F02002 		orr	r2, r2, #32
 5530 00a8 DA60     		str	r2, [r3, #12]
1828:Drivers/STM32F7xx_HAL_Driver/Src/stm32f7xx_hal_tim_ex.c **** 
1829:Drivers/STM32F7xx_HAL_Driver/Src/stm32f7xx_hal_tim_ex.c ****   __HAL_UNLOCK(htim);
 5531              		.loc 1 1829 3
 5532 00aa FB68     		ldr	r3, [r7, #12]
 5533 00ac 0022     		movs	r2, #0
 5534 00ae 83F83C20 		strb	r2, [r3, #60]
1830:Drivers/STM32F7xx_HAL_Driver/Src/stm32f7xx_hal_tim_ex.c **** 
1831:Drivers/STM32F7xx_HAL_Driver/Src/stm32f7xx_hal_tim_ex.c ****   return HAL_OK;
 5535              		.loc 1 1831 10
 5536 00b2 0023     		movs	r3, #0
 5537              	.L355:
1832:Drivers/STM32F7xx_HAL_Driver/Src/stm32f7xx_hal_tim_ex.c **** }
 5538              		.loc 1 1832 1
 5539 00b4 1846     		mov	r0, r3
 5540 00b6 1437     		adds	r7, r7, #20
 5541              	.LCFI141:
 5542              		.cfi_def_cfa_offset 4
 5543 00b8 BD46     		mov	sp, r7
 5544              	.LCFI142:
ARM GAS  /tmp/ccOFTjtU.s 			page 132


 5545              		.cfi_def_cfa_register 13
 5546              		@ sp needed
 5547 00ba 5DF8047B 		ldr	r7, [sp], #4
 5548              	.LCFI143:
 5549              		.cfi_restore 7
 5550              		.cfi_def_cfa_offset 0
 5551 00be 7047     		bx	lr
 5552              		.cfi_endproc
 5553              	.LFE168:
 5555              		.section	.text.HAL_TIMEx_ConfigCommutEvent_DMA,"ax",%progbits
 5556              		.align	1
 5557              		.global	HAL_TIMEx_ConfigCommutEvent_DMA
 5558              		.syntax unified
 5559              		.thumb
 5560              		.thumb_func
 5561              		.fpu fpv5-d16
 5563              	HAL_TIMEx_ConfigCommutEvent_DMA:
 5564              	.LFB169:
1833:Drivers/STM32F7xx_HAL_Driver/Src/stm32f7xx_hal_tim_ex.c **** 
1834:Drivers/STM32F7xx_HAL_Driver/Src/stm32f7xx_hal_tim_ex.c **** /**
1835:Drivers/STM32F7xx_HAL_Driver/Src/stm32f7xx_hal_tim_ex.c ****   * @brief  Configure the TIM commutation event sequence with DMA.
1836:Drivers/STM32F7xx_HAL_Driver/Src/stm32f7xx_hal_tim_ex.c ****   * @note  This function is mandatory to use the commutation event in order to
1837:Drivers/STM32F7xx_HAL_Driver/Src/stm32f7xx_hal_tim_ex.c ****   *        update the configuration at each commutation detection on the TRGI input of the Timer,
1838:Drivers/STM32F7xx_HAL_Driver/Src/stm32f7xx_hal_tim_ex.c ****   *        the typical use of this feature is with the use of another Timer(interface Timer)
1839:Drivers/STM32F7xx_HAL_Driver/Src/stm32f7xx_hal_tim_ex.c ****   *        configured in Hall sensor interface, this interface Timer will generate the
1840:Drivers/STM32F7xx_HAL_Driver/Src/stm32f7xx_hal_tim_ex.c ****   *        commutation at its TRGO output (connected to Timer used in this function) each time
1841:Drivers/STM32F7xx_HAL_Driver/Src/stm32f7xx_hal_tim_ex.c ****   *        the TI1 of the Interface Timer detect a commutation at its input TI1.
1842:Drivers/STM32F7xx_HAL_Driver/Src/stm32f7xx_hal_tim_ex.c ****   * @note  The user should configure the DMA in his own software, in This function only the COMDE b
1843:Drivers/STM32F7xx_HAL_Driver/Src/stm32f7xx_hal_tim_ex.c ****   * @param  htim TIM handle
1844:Drivers/STM32F7xx_HAL_Driver/Src/stm32f7xx_hal_tim_ex.c ****   * @param  InputTrigger the Internal trigger corresponding to the Timer Interfacing with the Hall 
1845:Drivers/STM32F7xx_HAL_Driver/Src/stm32f7xx_hal_tim_ex.c ****   *          This parameter can be one of the following values:
1846:Drivers/STM32F7xx_HAL_Driver/Src/stm32f7xx_hal_tim_ex.c ****   *            @arg TIM_TS_ITR0: Internal trigger 0 selected
1847:Drivers/STM32F7xx_HAL_Driver/Src/stm32f7xx_hal_tim_ex.c ****   *            @arg TIM_TS_ITR1: Internal trigger 1 selected
1848:Drivers/STM32F7xx_HAL_Driver/Src/stm32f7xx_hal_tim_ex.c ****   *            @arg TIM_TS_ITR2: Internal trigger 2 selected
1849:Drivers/STM32F7xx_HAL_Driver/Src/stm32f7xx_hal_tim_ex.c ****   *            @arg TIM_TS_ITR3: Internal trigger 3 selected
1850:Drivers/STM32F7xx_HAL_Driver/Src/stm32f7xx_hal_tim_ex.c ****   *            @arg TIM_TS_NONE: No trigger is needed
1851:Drivers/STM32F7xx_HAL_Driver/Src/stm32f7xx_hal_tim_ex.c ****   * @param  CommutationSource the Commutation Event source
1852:Drivers/STM32F7xx_HAL_Driver/Src/stm32f7xx_hal_tim_ex.c ****   *          This parameter can be one of the following values:
1853:Drivers/STM32F7xx_HAL_Driver/Src/stm32f7xx_hal_tim_ex.c ****   *            @arg TIM_COMMUTATION_TRGI: Commutation source is the TRGI of the Interface Timer
1854:Drivers/STM32F7xx_HAL_Driver/Src/stm32f7xx_hal_tim_ex.c ****   *            @arg TIM_COMMUTATION_SOFTWARE:  Commutation source is set by software using the COMG
1855:Drivers/STM32F7xx_HAL_Driver/Src/stm32f7xx_hal_tim_ex.c ****   * @retval HAL status
1856:Drivers/STM32F7xx_HAL_Driver/Src/stm32f7xx_hal_tim_ex.c ****   */
1857:Drivers/STM32F7xx_HAL_Driver/Src/stm32f7xx_hal_tim_ex.c **** HAL_StatusTypeDef HAL_TIMEx_ConfigCommutEvent_DMA(TIM_HandleTypeDef *htim, uint32_t  InputTrigger,
1858:Drivers/STM32F7xx_HAL_Driver/Src/stm32f7xx_hal_tim_ex.c ****                                                   uint32_t  CommutationSource)
1859:Drivers/STM32F7xx_HAL_Driver/Src/stm32f7xx_hal_tim_ex.c **** {
 5565              		.loc 1 1859 1
 5566              		.cfi_startproc
 5567              		@ args = 0, pretend = 0, frame = 16
 5568              		@ frame_needed = 1, uses_anonymous_args = 0
 5569              		@ link register save eliminated.
 5570 0000 80B4     		push	{r7}
 5571              	.LCFI144:
 5572              		.cfi_def_cfa_offset 4
 5573              		.cfi_offset 7, -4
 5574 0002 85B0     		sub	sp, sp, #20
 5575              	.LCFI145:
 5576              		.cfi_def_cfa_offset 24
ARM GAS  /tmp/ccOFTjtU.s 			page 133


 5577 0004 00AF     		add	r7, sp, #0
 5578              	.LCFI146:
 5579              		.cfi_def_cfa_register 7
 5580 0006 F860     		str	r0, [r7, #12]
 5581 0008 B960     		str	r1, [r7, #8]
 5582 000a 7A60     		str	r2, [r7, #4]
1860:Drivers/STM32F7xx_HAL_Driver/Src/stm32f7xx_hal_tim_ex.c ****   /* Check the parameters */
1861:Drivers/STM32F7xx_HAL_Driver/Src/stm32f7xx_hal_tim_ex.c ****   assert_param(IS_TIM_COMMUTATION_EVENT_INSTANCE(htim->Instance));
1862:Drivers/STM32F7xx_HAL_Driver/Src/stm32f7xx_hal_tim_ex.c ****   assert_param(IS_TIM_INTERNAL_TRIGGEREVENT_SELECTION(InputTrigger));
1863:Drivers/STM32F7xx_HAL_Driver/Src/stm32f7xx_hal_tim_ex.c **** 
1864:Drivers/STM32F7xx_HAL_Driver/Src/stm32f7xx_hal_tim_ex.c ****   __HAL_LOCK(htim);
 5583              		.loc 1 1864 3
 5584 000c FB68     		ldr	r3, [r7, #12]
 5585 000e 93F83C30 		ldrb	r3, [r3, #60]	@ zero_extendqisi2
 5586 0012 012B     		cmp	r3, #1
 5587 0014 01D1     		bne	.L359
 5588              		.loc 1 1864 3 is_stmt 0 discriminator 1
 5589 0016 0223     		movs	r3, #2
 5590 0018 58E0     		b	.L360
 5591              	.L359:
 5592              		.loc 1 1864 3 discriminator 2
 5593 001a FB68     		ldr	r3, [r7, #12]
 5594 001c 0122     		movs	r2, #1
 5595 001e 83F83C20 		strb	r2, [r3, #60]
1865:Drivers/STM32F7xx_HAL_Driver/Src/stm32f7xx_hal_tim_ex.c **** 
1866:Drivers/STM32F7xx_HAL_Driver/Src/stm32f7xx_hal_tim_ex.c ****   if ((InputTrigger == TIM_TS_ITR0) || (InputTrigger == TIM_TS_ITR1) ||
 5596              		.loc 1 1866 6 is_stmt 1 discriminator 2
 5597 0022 BB68     		ldr	r3, [r7, #8]
 5598 0024 002B     		cmp	r3, #0
 5599 0026 08D0     		beq	.L361
 5600              		.loc 1 1866 37 discriminator 1
 5601 0028 BB68     		ldr	r3, [r7, #8]
 5602 002a 102B     		cmp	r3, #16
 5603 002c 05D0     		beq	.L361
 5604              		.loc 1 1866 70 discriminator 2
 5605 002e BB68     		ldr	r3, [r7, #8]
 5606 0030 202B     		cmp	r3, #32
 5607 0032 02D0     		beq	.L361
1867:Drivers/STM32F7xx_HAL_Driver/Src/stm32f7xx_hal_tim_ex.c ****       (InputTrigger == TIM_TS_ITR2) || (InputTrigger == TIM_TS_ITR3))
 5608              		.loc 1 1867 37
 5609 0034 BB68     		ldr	r3, [r7, #8]
 5610 0036 302B     		cmp	r3, #48
 5611 0038 0FD1     		bne	.L362
 5612              	.L361:
1868:Drivers/STM32F7xx_HAL_Driver/Src/stm32f7xx_hal_tim_ex.c ****   {
1869:Drivers/STM32F7xx_HAL_Driver/Src/stm32f7xx_hal_tim_ex.c ****     /* Select the Input trigger */
1870:Drivers/STM32F7xx_HAL_Driver/Src/stm32f7xx_hal_tim_ex.c ****     htim->Instance->SMCR &= ~TIM_SMCR_TS;
 5613              		.loc 1 1870 9
 5614 003a FB68     		ldr	r3, [r7, #12]
 5615 003c 1B68     		ldr	r3, [r3]
 5616              		.loc 1 1870 26
 5617 003e 9A68     		ldr	r2, [r3, #8]
 5618              		.loc 1 1870 9
 5619 0040 FB68     		ldr	r3, [r7, #12]
 5620 0042 1B68     		ldr	r3, [r3]
 5621              		.loc 1 1870 26
 5622 0044 22F07002 		bic	r2, r2, #112
ARM GAS  /tmp/ccOFTjtU.s 			page 134


 5623 0048 9A60     		str	r2, [r3, #8]
1871:Drivers/STM32F7xx_HAL_Driver/Src/stm32f7xx_hal_tim_ex.c ****     htim->Instance->SMCR |= InputTrigger;
 5624              		.loc 1 1871 9
 5625 004a FB68     		ldr	r3, [r7, #12]
 5626 004c 1B68     		ldr	r3, [r3]
 5627              		.loc 1 1871 26
 5628 004e 9968     		ldr	r1, [r3, #8]
 5629              		.loc 1 1871 9
 5630 0050 FB68     		ldr	r3, [r7, #12]
 5631 0052 1B68     		ldr	r3, [r3]
 5632              		.loc 1 1871 26
 5633 0054 BA68     		ldr	r2, [r7, #8]
 5634 0056 0A43     		orrs	r2, r2, r1
 5635 0058 9A60     		str	r2, [r3, #8]
 5636              	.L362:
1872:Drivers/STM32F7xx_HAL_Driver/Src/stm32f7xx_hal_tim_ex.c ****   }
1873:Drivers/STM32F7xx_HAL_Driver/Src/stm32f7xx_hal_tim_ex.c **** 
1874:Drivers/STM32F7xx_HAL_Driver/Src/stm32f7xx_hal_tim_ex.c ****   /* Select the Capture Compare preload feature */
1875:Drivers/STM32F7xx_HAL_Driver/Src/stm32f7xx_hal_tim_ex.c ****   htim->Instance->CR2 |= TIM_CR2_CCPC;
 5637              		.loc 1 1875 7
 5638 005a FB68     		ldr	r3, [r7, #12]
 5639 005c 1B68     		ldr	r3, [r3]
 5640              		.loc 1 1875 23
 5641 005e 5A68     		ldr	r2, [r3, #4]
 5642              		.loc 1 1875 7
 5643 0060 FB68     		ldr	r3, [r7, #12]
 5644 0062 1B68     		ldr	r3, [r3]
 5645              		.loc 1 1875 23
 5646 0064 42F00102 		orr	r2, r2, #1
 5647 0068 5A60     		str	r2, [r3, #4]
1876:Drivers/STM32F7xx_HAL_Driver/Src/stm32f7xx_hal_tim_ex.c ****   /* Select the Commutation event source */
1877:Drivers/STM32F7xx_HAL_Driver/Src/stm32f7xx_hal_tim_ex.c ****   htim->Instance->CR2 &= ~TIM_CR2_CCUS;
 5648              		.loc 1 1877 7
 5649 006a FB68     		ldr	r3, [r7, #12]
 5650 006c 1B68     		ldr	r3, [r3]
 5651              		.loc 1 1877 23
 5652 006e 5A68     		ldr	r2, [r3, #4]
 5653              		.loc 1 1877 7
 5654 0070 FB68     		ldr	r3, [r7, #12]
 5655 0072 1B68     		ldr	r3, [r3]
 5656              		.loc 1 1877 23
 5657 0074 22F00402 		bic	r2, r2, #4
 5658 0078 5A60     		str	r2, [r3, #4]
1878:Drivers/STM32F7xx_HAL_Driver/Src/stm32f7xx_hal_tim_ex.c ****   htim->Instance->CR2 |= CommutationSource;
 5659              		.loc 1 1878 7
 5660 007a FB68     		ldr	r3, [r7, #12]
 5661 007c 1B68     		ldr	r3, [r3]
 5662              		.loc 1 1878 23
 5663 007e 5968     		ldr	r1, [r3, #4]
 5664              		.loc 1 1878 7
 5665 0080 FB68     		ldr	r3, [r7, #12]
 5666 0082 1B68     		ldr	r3, [r3]
 5667              		.loc 1 1878 23
 5668 0084 7A68     		ldr	r2, [r7, #4]
 5669 0086 0A43     		orrs	r2, r2, r1
 5670 0088 5A60     		str	r2, [r3, #4]
1879:Drivers/STM32F7xx_HAL_Driver/Src/stm32f7xx_hal_tim_ex.c **** 
ARM GAS  /tmp/ccOFTjtU.s 			page 135


1880:Drivers/STM32F7xx_HAL_Driver/Src/stm32f7xx_hal_tim_ex.c ****   /* Enable the Commutation DMA Request */
1881:Drivers/STM32F7xx_HAL_Driver/Src/stm32f7xx_hal_tim_ex.c ****   /* Set the DMA Commutation Callback */
1882:Drivers/STM32F7xx_HAL_Driver/Src/stm32f7xx_hal_tim_ex.c ****   htim->hdma[TIM_DMA_ID_COMMUTATION]->XferCpltCallback = TIMEx_DMACommutationCplt;
 5671              		.loc 1 1882 13
 5672 008a FB68     		ldr	r3, [r7, #12]
 5673 008c 5B6B     		ldr	r3, [r3, #52]
 5674              		.loc 1 1882 56
 5675 008e 124A     		ldr	r2, .L363
 5676 0090 DA63     		str	r2, [r3, #60]
1883:Drivers/STM32F7xx_HAL_Driver/Src/stm32f7xx_hal_tim_ex.c ****   htim->hdma[TIM_DMA_ID_COMMUTATION]->XferHalfCpltCallback = TIMEx_DMACommutationHalfCplt;
 5677              		.loc 1 1883 13
 5678 0092 FB68     		ldr	r3, [r7, #12]
 5679 0094 5B6B     		ldr	r3, [r3, #52]
 5680              		.loc 1 1883 60
 5681 0096 114A     		ldr	r2, .L363+4
 5682 0098 1A64     		str	r2, [r3, #64]
1884:Drivers/STM32F7xx_HAL_Driver/Src/stm32f7xx_hal_tim_ex.c ****   /* Set the DMA error callback */
1885:Drivers/STM32F7xx_HAL_Driver/Src/stm32f7xx_hal_tim_ex.c ****   htim->hdma[TIM_DMA_ID_COMMUTATION]->XferErrorCallback = TIM_DMAError;
 5683              		.loc 1 1885 13
 5684 009a FB68     		ldr	r3, [r7, #12]
 5685 009c 5B6B     		ldr	r3, [r3, #52]
 5686              		.loc 1 1885 57
 5687 009e 104A     		ldr	r2, .L363+8
 5688 00a0 DA64     		str	r2, [r3, #76]
1886:Drivers/STM32F7xx_HAL_Driver/Src/stm32f7xx_hal_tim_ex.c **** 
1887:Drivers/STM32F7xx_HAL_Driver/Src/stm32f7xx_hal_tim_ex.c ****   /* Disable Commutation Interrupt */
1888:Drivers/STM32F7xx_HAL_Driver/Src/stm32f7xx_hal_tim_ex.c ****   __HAL_TIM_DISABLE_IT(htim, TIM_IT_COM);
 5689              		.loc 1 1888 3
 5690 00a2 FB68     		ldr	r3, [r7, #12]
 5691 00a4 1B68     		ldr	r3, [r3]
 5692 00a6 DA68     		ldr	r2, [r3, #12]
 5693 00a8 FB68     		ldr	r3, [r7, #12]
 5694 00aa 1B68     		ldr	r3, [r3]
 5695 00ac 22F02002 		bic	r2, r2, #32
 5696 00b0 DA60     		str	r2, [r3, #12]
1889:Drivers/STM32F7xx_HAL_Driver/Src/stm32f7xx_hal_tim_ex.c **** 
1890:Drivers/STM32F7xx_HAL_Driver/Src/stm32f7xx_hal_tim_ex.c ****   /* Enable the Commutation DMA Request */
1891:Drivers/STM32F7xx_HAL_Driver/Src/stm32f7xx_hal_tim_ex.c ****   __HAL_TIM_ENABLE_DMA(htim, TIM_DMA_COM);
 5697              		.loc 1 1891 3
 5698 00b2 FB68     		ldr	r3, [r7, #12]
 5699 00b4 1B68     		ldr	r3, [r3]
 5700 00b6 DA68     		ldr	r2, [r3, #12]
 5701 00b8 FB68     		ldr	r3, [r7, #12]
 5702 00ba 1B68     		ldr	r3, [r3]
 5703 00bc 42F40052 		orr	r2, r2, #8192
 5704 00c0 DA60     		str	r2, [r3, #12]
1892:Drivers/STM32F7xx_HAL_Driver/Src/stm32f7xx_hal_tim_ex.c **** 
1893:Drivers/STM32F7xx_HAL_Driver/Src/stm32f7xx_hal_tim_ex.c ****   __HAL_UNLOCK(htim);
 5705              		.loc 1 1893 3
 5706 00c2 FB68     		ldr	r3, [r7, #12]
 5707 00c4 0022     		movs	r2, #0
 5708 00c6 83F83C20 		strb	r2, [r3, #60]
1894:Drivers/STM32F7xx_HAL_Driver/Src/stm32f7xx_hal_tim_ex.c **** 
1895:Drivers/STM32F7xx_HAL_Driver/Src/stm32f7xx_hal_tim_ex.c ****   return HAL_OK;
 5709              		.loc 1 1895 10
 5710 00ca 0023     		movs	r3, #0
 5711              	.L360:
ARM GAS  /tmp/ccOFTjtU.s 			page 136


1896:Drivers/STM32F7xx_HAL_Driver/Src/stm32f7xx_hal_tim_ex.c **** }
 5712              		.loc 1 1896 1
 5713 00cc 1846     		mov	r0, r3
 5714 00ce 1437     		adds	r7, r7, #20
 5715              	.LCFI147:
 5716              		.cfi_def_cfa_offset 4
 5717 00d0 BD46     		mov	sp, r7
 5718              	.LCFI148:
 5719              		.cfi_def_cfa_register 13
 5720              		@ sp needed
 5721 00d2 5DF8047B 		ldr	r7, [sp], #4
 5722              	.LCFI149:
 5723              		.cfi_restore 7
 5724              		.cfi_def_cfa_offset 0
 5725 00d6 7047     		bx	lr
 5726              	.L364:
 5727              		.align	2
 5728              	.L363:
 5729 00d8 00000000 		.word	TIMEx_DMACommutationCplt
 5730 00dc 00000000 		.word	TIMEx_DMACommutationHalfCplt
 5731 00e0 00000000 		.word	TIM_DMAError
 5732              		.cfi_endproc
 5733              	.LFE169:
 5735              		.section	.text.HAL_TIMEx_MasterConfigSynchronization,"ax",%progbits
 5736              		.align	1
 5737              		.global	HAL_TIMEx_MasterConfigSynchronization
 5738              		.syntax unified
 5739              		.thumb
 5740              		.thumb_func
 5741              		.fpu fpv5-d16
 5743              	HAL_TIMEx_MasterConfigSynchronization:
 5744              	.LFB170:
1897:Drivers/STM32F7xx_HAL_Driver/Src/stm32f7xx_hal_tim_ex.c **** 
1898:Drivers/STM32F7xx_HAL_Driver/Src/stm32f7xx_hal_tim_ex.c **** /**
1899:Drivers/STM32F7xx_HAL_Driver/Src/stm32f7xx_hal_tim_ex.c ****   * @brief  Configures the TIM in master mode.
1900:Drivers/STM32F7xx_HAL_Driver/Src/stm32f7xx_hal_tim_ex.c ****   * @param  htim TIM handle.
1901:Drivers/STM32F7xx_HAL_Driver/Src/stm32f7xx_hal_tim_ex.c ****   * @param  sMasterConfig pointer to a TIM_MasterConfigTypeDef structure that
1902:Drivers/STM32F7xx_HAL_Driver/Src/stm32f7xx_hal_tim_ex.c ****   *         contains the selected trigger output (TRGO) and the Master/Slave
1903:Drivers/STM32F7xx_HAL_Driver/Src/stm32f7xx_hal_tim_ex.c ****   *         mode.
1904:Drivers/STM32F7xx_HAL_Driver/Src/stm32f7xx_hal_tim_ex.c ****   * @retval HAL status
1905:Drivers/STM32F7xx_HAL_Driver/Src/stm32f7xx_hal_tim_ex.c ****   */
1906:Drivers/STM32F7xx_HAL_Driver/Src/stm32f7xx_hal_tim_ex.c **** HAL_StatusTypeDef HAL_TIMEx_MasterConfigSynchronization(TIM_HandleTypeDef *htim,
1907:Drivers/STM32F7xx_HAL_Driver/Src/stm32f7xx_hal_tim_ex.c ****                                                         TIM_MasterConfigTypeDef *sMasterConfig)
1908:Drivers/STM32F7xx_HAL_Driver/Src/stm32f7xx_hal_tim_ex.c **** {
 5745              		.loc 1 1908 1
 5746              		.cfi_startproc
 5747              		@ args = 0, pretend = 0, frame = 16
 5748              		@ frame_needed = 1, uses_anonymous_args = 0
 5749              		@ link register save eliminated.
 5750 0000 80B4     		push	{r7}
 5751              	.LCFI150:
 5752              		.cfi_def_cfa_offset 4
 5753              		.cfi_offset 7, -4
 5754 0002 85B0     		sub	sp, sp, #20
 5755              	.LCFI151:
 5756              		.cfi_def_cfa_offset 24
 5757 0004 00AF     		add	r7, sp, #0
ARM GAS  /tmp/ccOFTjtU.s 			page 137


 5758              	.LCFI152:
 5759              		.cfi_def_cfa_register 7
 5760 0006 7860     		str	r0, [r7, #4]
 5761 0008 3960     		str	r1, [r7]
1909:Drivers/STM32F7xx_HAL_Driver/Src/stm32f7xx_hal_tim_ex.c ****   uint32_t tmpcr2;
1910:Drivers/STM32F7xx_HAL_Driver/Src/stm32f7xx_hal_tim_ex.c ****   uint32_t tmpsmcr;
1911:Drivers/STM32F7xx_HAL_Driver/Src/stm32f7xx_hal_tim_ex.c **** 
1912:Drivers/STM32F7xx_HAL_Driver/Src/stm32f7xx_hal_tim_ex.c ****   /* Check the parameters */
1913:Drivers/STM32F7xx_HAL_Driver/Src/stm32f7xx_hal_tim_ex.c ****   assert_param(IS_TIM_MASTER_INSTANCE(htim->Instance));
1914:Drivers/STM32F7xx_HAL_Driver/Src/stm32f7xx_hal_tim_ex.c ****   assert_param(IS_TIM_TRGO_SOURCE(sMasterConfig->MasterOutputTrigger));
1915:Drivers/STM32F7xx_HAL_Driver/Src/stm32f7xx_hal_tim_ex.c ****   assert_param(IS_TIM_MSM_STATE(sMasterConfig->MasterSlaveMode));
1916:Drivers/STM32F7xx_HAL_Driver/Src/stm32f7xx_hal_tim_ex.c **** 
1917:Drivers/STM32F7xx_HAL_Driver/Src/stm32f7xx_hal_tim_ex.c ****   /* Check input state */
1918:Drivers/STM32F7xx_HAL_Driver/Src/stm32f7xx_hal_tim_ex.c ****   __HAL_LOCK(htim);
 5762              		.loc 1 1918 3
 5763 000a 7B68     		ldr	r3, [r7, #4]
 5764 000c 93F83C30 		ldrb	r3, [r3, #60]	@ zero_extendqisi2
 5765 0010 012B     		cmp	r3, #1
 5766 0012 01D1     		bne	.L366
 5767              		.loc 1 1918 3 is_stmt 0 discriminator 1
 5768 0014 0223     		movs	r3, #2
 5769 0016 6DE0     		b	.L367
 5770              	.L366:
 5771              		.loc 1 1918 3 discriminator 2
 5772 0018 7B68     		ldr	r3, [r7, #4]
 5773 001a 0122     		movs	r2, #1
 5774 001c 83F83C20 		strb	r2, [r3, #60]
1919:Drivers/STM32F7xx_HAL_Driver/Src/stm32f7xx_hal_tim_ex.c **** 
1920:Drivers/STM32F7xx_HAL_Driver/Src/stm32f7xx_hal_tim_ex.c ****   /* Change the handler state */
1921:Drivers/STM32F7xx_HAL_Driver/Src/stm32f7xx_hal_tim_ex.c ****   htim->State = HAL_TIM_STATE_BUSY;
 5775              		.loc 1 1921 15 is_stmt 1 discriminator 2
 5776 0020 7B68     		ldr	r3, [r7, #4]
 5777 0022 0222     		movs	r2, #2
 5778 0024 83F83D20 		strb	r2, [r3, #61]
1922:Drivers/STM32F7xx_HAL_Driver/Src/stm32f7xx_hal_tim_ex.c **** 
1923:Drivers/STM32F7xx_HAL_Driver/Src/stm32f7xx_hal_tim_ex.c ****   /* Get the TIMx CR2 register value */
1924:Drivers/STM32F7xx_HAL_Driver/Src/stm32f7xx_hal_tim_ex.c ****   tmpcr2 = htim->Instance->CR2;
 5779              		.loc 1 1924 16 discriminator 2
 5780 0028 7B68     		ldr	r3, [r7, #4]
 5781 002a 1B68     		ldr	r3, [r3]
 5782              		.loc 1 1924 10 discriminator 2
 5783 002c 5B68     		ldr	r3, [r3, #4]
 5784 002e FB60     		str	r3, [r7, #12]
1925:Drivers/STM32F7xx_HAL_Driver/Src/stm32f7xx_hal_tim_ex.c **** 
1926:Drivers/STM32F7xx_HAL_Driver/Src/stm32f7xx_hal_tim_ex.c ****   /* Get the TIMx SMCR register value */
1927:Drivers/STM32F7xx_HAL_Driver/Src/stm32f7xx_hal_tim_ex.c ****   tmpsmcr = htim->Instance->SMCR;
 5785              		.loc 1 1927 17 discriminator 2
 5786 0030 7B68     		ldr	r3, [r7, #4]
 5787 0032 1B68     		ldr	r3, [r3]
 5788              		.loc 1 1927 11 discriminator 2
 5789 0034 9B68     		ldr	r3, [r3, #8]
 5790 0036 BB60     		str	r3, [r7, #8]
1928:Drivers/STM32F7xx_HAL_Driver/Src/stm32f7xx_hal_tim_ex.c **** 
1929:Drivers/STM32F7xx_HAL_Driver/Src/stm32f7xx_hal_tim_ex.c ****   /* If the timer supports ADC synchronization through TRGO2, set the master mode selection 2 */
1930:Drivers/STM32F7xx_HAL_Driver/Src/stm32f7xx_hal_tim_ex.c ****   if (IS_TIM_TRGO2_INSTANCE(htim->Instance))
 5791              		.loc 1 1930 7 discriminator 2
 5792 0038 7B68     		ldr	r3, [r7, #4]
ARM GAS  /tmp/ccOFTjtU.s 			page 138


 5793 003a 1B68     		ldr	r3, [r3]
 5794              		.loc 1 1930 6 discriminator 2
 5795 003c 304A     		ldr	r2, .L372
 5796 003e 9342     		cmp	r3, r2
 5797 0040 04D0     		beq	.L368
 5798              		.loc 1 1930 7 discriminator 1
 5799 0042 7B68     		ldr	r3, [r7, #4]
 5800 0044 1B68     		ldr	r3, [r3]
 5801 0046 2F4A     		ldr	r2, .L372+4
 5802 0048 9342     		cmp	r3, r2
 5803 004a 08D1     		bne	.L369
 5804              	.L368:
1931:Drivers/STM32F7xx_HAL_Driver/Src/stm32f7xx_hal_tim_ex.c ****   {
1932:Drivers/STM32F7xx_HAL_Driver/Src/stm32f7xx_hal_tim_ex.c ****     /* Check the parameters */
1933:Drivers/STM32F7xx_HAL_Driver/Src/stm32f7xx_hal_tim_ex.c ****     assert_param(IS_TIM_TRGO2_SOURCE(sMasterConfig->MasterOutputTrigger2));
1934:Drivers/STM32F7xx_HAL_Driver/Src/stm32f7xx_hal_tim_ex.c **** 
1935:Drivers/STM32F7xx_HAL_Driver/Src/stm32f7xx_hal_tim_ex.c ****     /* Clear the MMS2 bits */
1936:Drivers/STM32F7xx_HAL_Driver/Src/stm32f7xx_hal_tim_ex.c ****     tmpcr2 &= ~TIM_CR2_MMS2;
 5805              		.loc 1 1936 12
 5806 004c FB68     		ldr	r3, [r7, #12]
 5807 004e 23F47003 		bic	r3, r3, #15728640
 5808 0052 FB60     		str	r3, [r7, #12]
1937:Drivers/STM32F7xx_HAL_Driver/Src/stm32f7xx_hal_tim_ex.c ****     /* Select the TRGO2 source*/
1938:Drivers/STM32F7xx_HAL_Driver/Src/stm32f7xx_hal_tim_ex.c ****     tmpcr2 |= sMasterConfig->MasterOutputTrigger2;
 5809              		.loc 1 1938 28
 5810 0054 3B68     		ldr	r3, [r7]
 5811 0056 5B68     		ldr	r3, [r3, #4]
 5812              		.loc 1 1938 12
 5813 0058 FA68     		ldr	r2, [r7, #12]
 5814 005a 1343     		orrs	r3, r3, r2
 5815 005c FB60     		str	r3, [r7, #12]
 5816              	.L369:
1939:Drivers/STM32F7xx_HAL_Driver/Src/stm32f7xx_hal_tim_ex.c ****   }
1940:Drivers/STM32F7xx_HAL_Driver/Src/stm32f7xx_hal_tim_ex.c **** 
1941:Drivers/STM32F7xx_HAL_Driver/Src/stm32f7xx_hal_tim_ex.c ****   /* Reset the MMS Bits */
1942:Drivers/STM32F7xx_HAL_Driver/Src/stm32f7xx_hal_tim_ex.c ****   tmpcr2 &= ~TIM_CR2_MMS;
 5817              		.loc 1 1942 10
 5818 005e FB68     		ldr	r3, [r7, #12]
 5819 0060 23F07003 		bic	r3, r3, #112
 5820 0064 FB60     		str	r3, [r7, #12]
1943:Drivers/STM32F7xx_HAL_Driver/Src/stm32f7xx_hal_tim_ex.c ****   /* Select the TRGO source */
1944:Drivers/STM32F7xx_HAL_Driver/Src/stm32f7xx_hal_tim_ex.c ****   tmpcr2 |=  sMasterConfig->MasterOutputTrigger;
 5821              		.loc 1 1944 27
 5822 0066 3B68     		ldr	r3, [r7]
 5823 0068 1B68     		ldr	r3, [r3]
 5824              		.loc 1 1944 10
 5825 006a FA68     		ldr	r2, [r7, #12]
 5826 006c 1343     		orrs	r3, r3, r2
 5827 006e FB60     		str	r3, [r7, #12]
1945:Drivers/STM32F7xx_HAL_Driver/Src/stm32f7xx_hal_tim_ex.c **** 
1946:Drivers/STM32F7xx_HAL_Driver/Src/stm32f7xx_hal_tim_ex.c ****   /* Update TIMx CR2 */
1947:Drivers/STM32F7xx_HAL_Driver/Src/stm32f7xx_hal_tim_ex.c ****   htim->Instance->CR2 = tmpcr2;
 5828              		.loc 1 1947 7
 5829 0070 7B68     		ldr	r3, [r7, #4]
 5830 0072 1B68     		ldr	r3, [r3]
 5831              		.loc 1 1947 23
 5832 0074 FA68     		ldr	r2, [r7, #12]
ARM GAS  /tmp/ccOFTjtU.s 			page 139


 5833 0076 5A60     		str	r2, [r3, #4]
1948:Drivers/STM32F7xx_HAL_Driver/Src/stm32f7xx_hal_tim_ex.c **** 
1949:Drivers/STM32F7xx_HAL_Driver/Src/stm32f7xx_hal_tim_ex.c ****   if (IS_TIM_SLAVE_INSTANCE(htim->Instance))
 5834              		.loc 1 1949 7
 5835 0078 7B68     		ldr	r3, [r7, #4]
 5836 007a 1B68     		ldr	r3, [r3]
 5837              		.loc 1 1949 6
 5838 007c 204A     		ldr	r2, .L372
 5839 007e 9342     		cmp	r3, r2
 5840 0080 22D0     		beq	.L370
 5841              		.loc 1 1949 7 discriminator 1
 5842 0082 7B68     		ldr	r3, [r7, #4]
 5843 0084 1B68     		ldr	r3, [r3]
 5844 0086 B3F1804F 		cmp	r3, #1073741824
 5845 008a 1DD0     		beq	.L370
 5846              		.loc 1 1949 7 is_stmt 0 discriminator 2
 5847 008c 7B68     		ldr	r3, [r7, #4]
 5848 008e 1B68     		ldr	r3, [r3]
 5849 0090 1D4A     		ldr	r2, .L372+8
 5850 0092 9342     		cmp	r3, r2
 5851 0094 18D0     		beq	.L370
 5852              		.loc 1 1949 7 discriminator 3
 5853 0096 7B68     		ldr	r3, [r7, #4]
 5854 0098 1B68     		ldr	r3, [r3]
 5855 009a 1C4A     		ldr	r2, .L372+12
 5856 009c 9342     		cmp	r3, r2
 5857 009e 13D0     		beq	.L370
 5858              		.loc 1 1949 7 discriminator 4
 5859 00a0 7B68     		ldr	r3, [r7, #4]
 5860 00a2 1B68     		ldr	r3, [r3]
 5861 00a4 1A4A     		ldr	r2, .L372+16
 5862 00a6 9342     		cmp	r3, r2
 5863 00a8 0ED0     		beq	.L370
 5864              		.loc 1 1949 7 discriminator 5
 5865 00aa 7B68     		ldr	r3, [r7, #4]
 5866 00ac 1B68     		ldr	r3, [r3]
 5867 00ae 154A     		ldr	r2, .L372+4
 5868 00b0 9342     		cmp	r3, r2
 5869 00b2 09D0     		beq	.L370
 5870              		.loc 1 1949 7 discriminator 6
 5871 00b4 7B68     		ldr	r3, [r7, #4]
 5872 00b6 1B68     		ldr	r3, [r3]
 5873 00b8 164A     		ldr	r2, .L372+20
 5874 00ba 9342     		cmp	r3, r2
 5875 00bc 04D0     		beq	.L370
 5876              		.loc 1 1949 7 discriminator 7
 5877 00be 7B68     		ldr	r3, [r7, #4]
 5878 00c0 1B68     		ldr	r3, [r3]
 5879 00c2 154A     		ldr	r2, .L372+24
 5880 00c4 9342     		cmp	r3, r2
 5881 00c6 0CD1     		bne	.L371
 5882              	.L370:
1950:Drivers/STM32F7xx_HAL_Driver/Src/stm32f7xx_hal_tim_ex.c ****   {
1951:Drivers/STM32F7xx_HAL_Driver/Src/stm32f7xx_hal_tim_ex.c ****     /* Reset the MSM Bit */
1952:Drivers/STM32F7xx_HAL_Driver/Src/stm32f7xx_hal_tim_ex.c ****     tmpsmcr &= ~TIM_SMCR_MSM;
 5883              		.loc 1 1952 13 is_stmt 1
 5884 00c8 BB68     		ldr	r3, [r7, #8]
ARM GAS  /tmp/ccOFTjtU.s 			page 140


 5885 00ca 23F08003 		bic	r3, r3, #128
 5886 00ce BB60     		str	r3, [r7, #8]
1953:Drivers/STM32F7xx_HAL_Driver/Src/stm32f7xx_hal_tim_ex.c ****     /* Set master mode */
1954:Drivers/STM32F7xx_HAL_Driver/Src/stm32f7xx_hal_tim_ex.c ****     tmpsmcr |= sMasterConfig->MasterSlaveMode;
 5887              		.loc 1 1954 29
 5888 00d0 3B68     		ldr	r3, [r7]
 5889 00d2 9B68     		ldr	r3, [r3, #8]
 5890              		.loc 1 1954 13
 5891 00d4 BA68     		ldr	r2, [r7, #8]
 5892 00d6 1343     		orrs	r3, r3, r2
 5893 00d8 BB60     		str	r3, [r7, #8]
1955:Drivers/STM32F7xx_HAL_Driver/Src/stm32f7xx_hal_tim_ex.c **** 
1956:Drivers/STM32F7xx_HAL_Driver/Src/stm32f7xx_hal_tim_ex.c ****     /* Update TIMx SMCR */
1957:Drivers/STM32F7xx_HAL_Driver/Src/stm32f7xx_hal_tim_ex.c ****     htim->Instance->SMCR = tmpsmcr;
 5894              		.loc 1 1957 9
 5895 00da 7B68     		ldr	r3, [r7, #4]
 5896 00dc 1B68     		ldr	r3, [r3]
 5897              		.loc 1 1957 26
 5898 00de BA68     		ldr	r2, [r7, #8]
 5899 00e0 9A60     		str	r2, [r3, #8]
 5900              	.L371:
1958:Drivers/STM32F7xx_HAL_Driver/Src/stm32f7xx_hal_tim_ex.c ****   }
1959:Drivers/STM32F7xx_HAL_Driver/Src/stm32f7xx_hal_tim_ex.c **** 
1960:Drivers/STM32F7xx_HAL_Driver/Src/stm32f7xx_hal_tim_ex.c ****   /* Change the htim state */
1961:Drivers/STM32F7xx_HAL_Driver/Src/stm32f7xx_hal_tim_ex.c ****   htim->State = HAL_TIM_STATE_READY;
 5901              		.loc 1 1961 15
 5902 00e2 7B68     		ldr	r3, [r7, #4]
 5903 00e4 0122     		movs	r2, #1
 5904 00e6 83F83D20 		strb	r2, [r3, #61]
1962:Drivers/STM32F7xx_HAL_Driver/Src/stm32f7xx_hal_tim_ex.c **** 
1963:Drivers/STM32F7xx_HAL_Driver/Src/stm32f7xx_hal_tim_ex.c ****   __HAL_UNLOCK(htim);
 5905              		.loc 1 1963 3
 5906 00ea 7B68     		ldr	r3, [r7, #4]
 5907 00ec 0022     		movs	r2, #0
 5908 00ee 83F83C20 		strb	r2, [r3, #60]
1964:Drivers/STM32F7xx_HAL_Driver/Src/stm32f7xx_hal_tim_ex.c **** 
1965:Drivers/STM32F7xx_HAL_Driver/Src/stm32f7xx_hal_tim_ex.c ****   return HAL_OK;
 5909              		.loc 1 1965 10
 5910 00f2 0023     		movs	r3, #0
 5911              	.L367:
1966:Drivers/STM32F7xx_HAL_Driver/Src/stm32f7xx_hal_tim_ex.c **** }
 5912              		.loc 1 1966 1
 5913 00f4 1846     		mov	r0, r3
 5914 00f6 1437     		adds	r7, r7, #20
 5915              	.LCFI153:
 5916              		.cfi_def_cfa_offset 4
 5917 00f8 BD46     		mov	sp, r7
 5918              	.LCFI154:
 5919              		.cfi_def_cfa_register 13
 5920              		@ sp needed
 5921 00fa 5DF8047B 		ldr	r7, [sp], #4
 5922              	.LCFI155:
 5923              		.cfi_restore 7
 5924              		.cfi_def_cfa_offset 0
 5925 00fe 7047     		bx	lr
 5926              	.L373:
 5927              		.align	2
ARM GAS  /tmp/ccOFTjtU.s 			page 141


 5928              	.L372:
 5929 0100 00000140 		.word	1073807360
 5930 0104 00040140 		.word	1073808384
 5931 0108 00040040 		.word	1073742848
 5932 010c 00080040 		.word	1073743872
 5933 0110 000C0040 		.word	1073744896
 5934 0114 00400140 		.word	1073823744
 5935 0118 00180040 		.word	1073747968
 5936              		.cfi_endproc
 5937              	.LFE170:
 5939              		.section	.text.HAL_TIMEx_ConfigBreakDeadTime,"ax",%progbits
 5940              		.align	1
 5941              		.global	HAL_TIMEx_ConfigBreakDeadTime
 5942              		.syntax unified
 5943              		.thumb
 5944              		.thumb_func
 5945              		.fpu fpv5-d16
 5947              	HAL_TIMEx_ConfigBreakDeadTime:
 5948              	.LFB171:
1967:Drivers/STM32F7xx_HAL_Driver/Src/stm32f7xx_hal_tim_ex.c **** 
1968:Drivers/STM32F7xx_HAL_Driver/Src/stm32f7xx_hal_tim_ex.c **** /**
1969:Drivers/STM32F7xx_HAL_Driver/Src/stm32f7xx_hal_tim_ex.c ****   * @brief  Configures the Break feature, dead time, Lock level, OSSI/OSSR State
1970:Drivers/STM32F7xx_HAL_Driver/Src/stm32f7xx_hal_tim_ex.c ****   *         and the AOE(automatic output enable).
1971:Drivers/STM32F7xx_HAL_Driver/Src/stm32f7xx_hal_tim_ex.c ****   * @param  htim TIM handle
1972:Drivers/STM32F7xx_HAL_Driver/Src/stm32f7xx_hal_tim_ex.c ****   * @param  sBreakDeadTimeConfig pointer to a TIM_ConfigBreakDeadConfigTypeDef structure that
1973:Drivers/STM32F7xx_HAL_Driver/Src/stm32f7xx_hal_tim_ex.c ****   *         contains the BDTR Register configuration  information for the TIM peripheral.
1974:Drivers/STM32F7xx_HAL_Driver/Src/stm32f7xx_hal_tim_ex.c ****   * @note   Interrupts can be generated when an active level is detected on the
1975:Drivers/STM32F7xx_HAL_Driver/Src/stm32f7xx_hal_tim_ex.c ****   *         break input, the break 2 input or the system break input. Break
1976:Drivers/STM32F7xx_HAL_Driver/Src/stm32f7xx_hal_tim_ex.c ****   *         interrupt can be enabled by calling the @ref __HAL_TIM_ENABLE_IT macro.
1977:Drivers/STM32F7xx_HAL_Driver/Src/stm32f7xx_hal_tim_ex.c ****   * @retval HAL status
1978:Drivers/STM32F7xx_HAL_Driver/Src/stm32f7xx_hal_tim_ex.c ****   */
1979:Drivers/STM32F7xx_HAL_Driver/Src/stm32f7xx_hal_tim_ex.c **** HAL_StatusTypeDef HAL_TIMEx_ConfigBreakDeadTime(TIM_HandleTypeDef *htim,
1980:Drivers/STM32F7xx_HAL_Driver/Src/stm32f7xx_hal_tim_ex.c ****                                                 TIM_BreakDeadTimeConfigTypeDef *sBreakDeadTimeConfi
1981:Drivers/STM32F7xx_HAL_Driver/Src/stm32f7xx_hal_tim_ex.c **** {
 5949              		.loc 1 1981 1
 5950              		.cfi_startproc
 5951              		@ args = 0, pretend = 0, frame = 16
 5952              		@ frame_needed = 1, uses_anonymous_args = 0
 5953              		@ link register save eliminated.
 5954 0000 80B4     		push	{r7}
 5955              	.LCFI156:
 5956              		.cfi_def_cfa_offset 4
 5957              		.cfi_offset 7, -4
 5958 0002 85B0     		sub	sp, sp, #20
 5959              	.LCFI157:
 5960              		.cfi_def_cfa_offset 24
 5961 0004 00AF     		add	r7, sp, #0
 5962              	.LCFI158:
 5963              		.cfi_def_cfa_register 7
 5964 0006 7860     		str	r0, [r7, #4]
 5965 0008 3960     		str	r1, [r7]
1982:Drivers/STM32F7xx_HAL_Driver/Src/stm32f7xx_hal_tim_ex.c ****   /* Keep this variable initialized to 0 as it is used to configure BDTR register */
1983:Drivers/STM32F7xx_HAL_Driver/Src/stm32f7xx_hal_tim_ex.c ****   uint32_t tmpbdtr = 0U;
 5966              		.loc 1 1983 12
 5967 000a 0023     		movs	r3, #0
 5968 000c FB60     		str	r3, [r7, #12]
1984:Drivers/STM32F7xx_HAL_Driver/Src/stm32f7xx_hal_tim_ex.c **** 
ARM GAS  /tmp/ccOFTjtU.s 			page 142


1985:Drivers/STM32F7xx_HAL_Driver/Src/stm32f7xx_hal_tim_ex.c ****   /* Check the parameters */
1986:Drivers/STM32F7xx_HAL_Driver/Src/stm32f7xx_hal_tim_ex.c ****   assert_param(IS_TIM_BREAK_INSTANCE(htim->Instance));
1987:Drivers/STM32F7xx_HAL_Driver/Src/stm32f7xx_hal_tim_ex.c ****   assert_param(IS_TIM_OSSR_STATE(sBreakDeadTimeConfig->OffStateRunMode));
1988:Drivers/STM32F7xx_HAL_Driver/Src/stm32f7xx_hal_tim_ex.c ****   assert_param(IS_TIM_OSSI_STATE(sBreakDeadTimeConfig->OffStateIDLEMode));
1989:Drivers/STM32F7xx_HAL_Driver/Src/stm32f7xx_hal_tim_ex.c ****   assert_param(IS_TIM_LOCK_LEVEL(sBreakDeadTimeConfig->LockLevel));
1990:Drivers/STM32F7xx_HAL_Driver/Src/stm32f7xx_hal_tim_ex.c ****   assert_param(IS_TIM_DEADTIME(sBreakDeadTimeConfig->DeadTime));
1991:Drivers/STM32F7xx_HAL_Driver/Src/stm32f7xx_hal_tim_ex.c ****   assert_param(IS_TIM_BREAK_STATE(sBreakDeadTimeConfig->BreakState));
1992:Drivers/STM32F7xx_HAL_Driver/Src/stm32f7xx_hal_tim_ex.c ****   assert_param(IS_TIM_BREAK_POLARITY(sBreakDeadTimeConfig->BreakPolarity));
1993:Drivers/STM32F7xx_HAL_Driver/Src/stm32f7xx_hal_tim_ex.c ****   assert_param(IS_TIM_BREAK_FILTER(sBreakDeadTimeConfig->BreakFilter));
1994:Drivers/STM32F7xx_HAL_Driver/Src/stm32f7xx_hal_tim_ex.c ****   assert_param(IS_TIM_AUTOMATIC_OUTPUT_STATE(sBreakDeadTimeConfig->AutomaticOutput));
1995:Drivers/STM32F7xx_HAL_Driver/Src/stm32f7xx_hal_tim_ex.c **** 
1996:Drivers/STM32F7xx_HAL_Driver/Src/stm32f7xx_hal_tim_ex.c ****   /* Check input state */
1997:Drivers/STM32F7xx_HAL_Driver/Src/stm32f7xx_hal_tim_ex.c ****   __HAL_LOCK(htim);
 5969              		.loc 1 1997 3
 5970 000e 7B68     		ldr	r3, [r7, #4]
 5971 0010 93F83C30 		ldrb	r3, [r3, #60]	@ zero_extendqisi2
 5972 0014 012B     		cmp	r3, #1
 5973 0016 01D1     		bne	.L375
 5974              		.loc 1 1997 3 is_stmt 0 discriminator 1
 5975 0018 0223     		movs	r3, #2
 5976 001a 65E0     		b	.L376
 5977              	.L375:
 5978              		.loc 1 1997 3 discriminator 2
 5979 001c 7B68     		ldr	r3, [r7, #4]
 5980 001e 0122     		movs	r2, #1
 5981 0020 83F83C20 		strb	r2, [r3, #60]
1998:Drivers/STM32F7xx_HAL_Driver/Src/stm32f7xx_hal_tim_ex.c **** 
1999:Drivers/STM32F7xx_HAL_Driver/Src/stm32f7xx_hal_tim_ex.c ****   /* Set the Lock level, the Break enable Bit and the Polarity, the OSSR State,
2000:Drivers/STM32F7xx_HAL_Driver/Src/stm32f7xx_hal_tim_ex.c ****      the OSSI State, the dead time value and the Automatic Output Enable Bit */
2001:Drivers/STM32F7xx_HAL_Driver/Src/stm32f7xx_hal_tim_ex.c **** 
2002:Drivers/STM32F7xx_HAL_Driver/Src/stm32f7xx_hal_tim_ex.c ****   /* Set the BDTR bits */
2003:Drivers/STM32F7xx_HAL_Driver/Src/stm32f7xx_hal_tim_ex.c ****   MODIFY_REG(tmpbdtr, TIM_BDTR_DTG, sBreakDeadTimeConfig->DeadTime);
 5982              		.loc 1 2003 3 is_stmt 1 discriminator 2
 5983 0024 FB68     		ldr	r3, [r7, #12]
 5984 0026 23F0FF02 		bic	r2, r3, #255
 5985 002a 3B68     		ldr	r3, [r7]
 5986 002c DB68     		ldr	r3, [r3, #12]
 5987 002e 1343     		orrs	r3, r3, r2
 5988 0030 FB60     		str	r3, [r7, #12]
2004:Drivers/STM32F7xx_HAL_Driver/Src/stm32f7xx_hal_tim_ex.c ****   MODIFY_REG(tmpbdtr, TIM_BDTR_LOCK, sBreakDeadTimeConfig->LockLevel);
 5989              		.loc 1 2004 3 discriminator 2
 5990 0032 FB68     		ldr	r3, [r7, #12]
 5991 0034 23F44072 		bic	r2, r3, #768
 5992 0038 3B68     		ldr	r3, [r7]
 5993 003a 9B68     		ldr	r3, [r3, #8]
 5994 003c 1343     		orrs	r3, r3, r2
 5995 003e FB60     		str	r3, [r7, #12]
2005:Drivers/STM32F7xx_HAL_Driver/Src/stm32f7xx_hal_tim_ex.c ****   MODIFY_REG(tmpbdtr, TIM_BDTR_OSSI, sBreakDeadTimeConfig->OffStateIDLEMode);
 5996              		.loc 1 2005 3 discriminator 2
 5997 0040 FB68     		ldr	r3, [r7, #12]
 5998 0042 23F48062 		bic	r2, r3, #1024
 5999 0046 3B68     		ldr	r3, [r7]
 6000 0048 5B68     		ldr	r3, [r3, #4]
 6001 004a 1343     		orrs	r3, r3, r2
 6002 004c FB60     		str	r3, [r7, #12]
2006:Drivers/STM32F7xx_HAL_Driver/Src/stm32f7xx_hal_tim_ex.c ****   MODIFY_REG(tmpbdtr, TIM_BDTR_OSSR, sBreakDeadTimeConfig->OffStateRunMode);
 6003              		.loc 1 2006 3 discriminator 2
ARM GAS  /tmp/ccOFTjtU.s 			page 143


 6004 004e FB68     		ldr	r3, [r7, #12]
 6005 0050 23F40062 		bic	r2, r3, #2048
 6006 0054 3B68     		ldr	r3, [r7]
 6007 0056 1B68     		ldr	r3, [r3]
 6008 0058 1343     		orrs	r3, r3, r2
 6009 005a FB60     		str	r3, [r7, #12]
2007:Drivers/STM32F7xx_HAL_Driver/Src/stm32f7xx_hal_tim_ex.c ****   MODIFY_REG(tmpbdtr, TIM_BDTR_BKE, sBreakDeadTimeConfig->BreakState);
 6010              		.loc 1 2007 3 discriminator 2
 6011 005c FB68     		ldr	r3, [r7, #12]
 6012 005e 23F48052 		bic	r2, r3, #4096
 6013 0062 3B68     		ldr	r3, [r7]
 6014 0064 1B69     		ldr	r3, [r3, #16]
 6015 0066 1343     		orrs	r3, r3, r2
 6016 0068 FB60     		str	r3, [r7, #12]
2008:Drivers/STM32F7xx_HAL_Driver/Src/stm32f7xx_hal_tim_ex.c ****   MODIFY_REG(tmpbdtr, TIM_BDTR_BKP, sBreakDeadTimeConfig->BreakPolarity);
 6017              		.loc 1 2008 3 discriminator 2
 6018 006a FB68     		ldr	r3, [r7, #12]
 6019 006c 23F40052 		bic	r2, r3, #8192
 6020 0070 3B68     		ldr	r3, [r7]
 6021 0072 5B69     		ldr	r3, [r3, #20]
 6022 0074 1343     		orrs	r3, r3, r2
 6023 0076 FB60     		str	r3, [r7, #12]
2009:Drivers/STM32F7xx_HAL_Driver/Src/stm32f7xx_hal_tim_ex.c ****   MODIFY_REG(tmpbdtr, TIM_BDTR_AOE, sBreakDeadTimeConfig->AutomaticOutput);
 6024              		.loc 1 2009 3 discriminator 2
 6025 0078 FB68     		ldr	r3, [r7, #12]
 6026 007a 23F48042 		bic	r2, r3, #16384
 6027 007e 3B68     		ldr	r3, [r7]
 6028 0080 9B6A     		ldr	r3, [r3, #40]
 6029 0082 1343     		orrs	r3, r3, r2
 6030 0084 FB60     		str	r3, [r7, #12]
2010:Drivers/STM32F7xx_HAL_Driver/Src/stm32f7xx_hal_tim_ex.c ****   MODIFY_REG(tmpbdtr, TIM_BDTR_BKF, (sBreakDeadTimeConfig->BreakFilter << TIM_BDTR_BKF_Pos));
 6031              		.loc 1 2010 3 discriminator 2
 6032 0086 FB68     		ldr	r3, [r7, #12]
 6033 0088 23F47022 		bic	r2, r3, #983040
 6034 008c 3B68     		ldr	r3, [r7]
 6035 008e 9B69     		ldr	r3, [r3, #24]
 6036 0090 1B04     		lsls	r3, r3, #16
 6037 0092 1343     		orrs	r3, r3, r2
 6038 0094 FB60     		str	r3, [r7, #12]
2011:Drivers/STM32F7xx_HAL_Driver/Src/stm32f7xx_hal_tim_ex.c **** 
2012:Drivers/STM32F7xx_HAL_Driver/Src/stm32f7xx_hal_tim_ex.c ****   if (IS_TIM_BKIN2_INSTANCE(htim->Instance))
 6039              		.loc 1 2012 7 discriminator 2
 6040 0096 7B68     		ldr	r3, [r7, #4]
 6041 0098 1B68     		ldr	r3, [r3]
 6042              		.loc 1 2012 6 discriminator 2
 6043 009a 164A     		ldr	r2, .L379
 6044 009c 9342     		cmp	r3, r2
 6045 009e 04D0     		beq	.L377
 6046              		.loc 1 2012 7 discriminator 1
 6047 00a0 7B68     		ldr	r3, [r7, #4]
 6048 00a2 1B68     		ldr	r3, [r3]
 6049 00a4 144A     		ldr	r2, .L379+4
 6050 00a6 9342     		cmp	r3, r2
 6051 00a8 15D1     		bne	.L378
 6052              	.L377:
2013:Drivers/STM32F7xx_HAL_Driver/Src/stm32f7xx_hal_tim_ex.c ****   {
2014:Drivers/STM32F7xx_HAL_Driver/Src/stm32f7xx_hal_tim_ex.c ****     /* Check the parameters */
ARM GAS  /tmp/ccOFTjtU.s 			page 144


2015:Drivers/STM32F7xx_HAL_Driver/Src/stm32f7xx_hal_tim_ex.c ****     assert_param(IS_TIM_BREAK2_STATE(sBreakDeadTimeConfig->Break2State));
2016:Drivers/STM32F7xx_HAL_Driver/Src/stm32f7xx_hal_tim_ex.c ****     assert_param(IS_TIM_BREAK2_POLARITY(sBreakDeadTimeConfig->Break2Polarity));
2017:Drivers/STM32F7xx_HAL_Driver/Src/stm32f7xx_hal_tim_ex.c ****     assert_param(IS_TIM_BREAK_FILTER(sBreakDeadTimeConfig->Break2Filter));
2018:Drivers/STM32F7xx_HAL_Driver/Src/stm32f7xx_hal_tim_ex.c **** 
2019:Drivers/STM32F7xx_HAL_Driver/Src/stm32f7xx_hal_tim_ex.c ****     /* Set the BREAK2 input related BDTR bits */
2020:Drivers/STM32F7xx_HAL_Driver/Src/stm32f7xx_hal_tim_ex.c ****     MODIFY_REG(tmpbdtr, TIM_BDTR_BK2F, (sBreakDeadTimeConfig->Break2Filter << TIM_BDTR_BK2F_Pos));
 6053              		.loc 1 2020 5
 6054 00aa FB68     		ldr	r3, [r7, #12]
 6055 00ac 23F47002 		bic	r2, r3, #15728640
 6056 00b0 3B68     		ldr	r3, [r7]
 6057 00b2 5B6A     		ldr	r3, [r3, #36]
 6058 00b4 1B05     		lsls	r3, r3, #20
 6059 00b6 1343     		orrs	r3, r3, r2
 6060 00b8 FB60     		str	r3, [r7, #12]
2021:Drivers/STM32F7xx_HAL_Driver/Src/stm32f7xx_hal_tim_ex.c ****     MODIFY_REG(tmpbdtr, TIM_BDTR_BK2E, sBreakDeadTimeConfig->Break2State);
 6061              		.loc 1 2021 5
 6062 00ba FB68     		ldr	r3, [r7, #12]
 6063 00bc 23F08072 		bic	r2, r3, #16777216
 6064 00c0 3B68     		ldr	r3, [r7]
 6065 00c2 DB69     		ldr	r3, [r3, #28]
 6066 00c4 1343     		orrs	r3, r3, r2
 6067 00c6 FB60     		str	r3, [r7, #12]
2022:Drivers/STM32F7xx_HAL_Driver/Src/stm32f7xx_hal_tim_ex.c ****     MODIFY_REG(tmpbdtr, TIM_BDTR_BK2P, sBreakDeadTimeConfig->Break2Polarity);
 6068              		.loc 1 2022 5
 6069 00c8 FB68     		ldr	r3, [r7, #12]
 6070 00ca 23F00072 		bic	r2, r3, #33554432
 6071 00ce 3B68     		ldr	r3, [r7]
 6072 00d0 1B6A     		ldr	r3, [r3, #32]
 6073 00d2 1343     		orrs	r3, r3, r2
 6074 00d4 FB60     		str	r3, [r7, #12]
 6075              	.L378:
2023:Drivers/STM32F7xx_HAL_Driver/Src/stm32f7xx_hal_tim_ex.c ****   }
2024:Drivers/STM32F7xx_HAL_Driver/Src/stm32f7xx_hal_tim_ex.c **** 
2025:Drivers/STM32F7xx_HAL_Driver/Src/stm32f7xx_hal_tim_ex.c ****   /* Set TIMx_BDTR */
2026:Drivers/STM32F7xx_HAL_Driver/Src/stm32f7xx_hal_tim_ex.c ****   htim->Instance->BDTR = tmpbdtr;
 6076              		.loc 1 2026 7
 6077 00d6 7B68     		ldr	r3, [r7, #4]
 6078 00d8 1B68     		ldr	r3, [r3]
 6079              		.loc 1 2026 24
 6080 00da FA68     		ldr	r2, [r7, #12]
 6081 00dc 5A64     		str	r2, [r3, #68]
2027:Drivers/STM32F7xx_HAL_Driver/Src/stm32f7xx_hal_tim_ex.c **** 
2028:Drivers/STM32F7xx_HAL_Driver/Src/stm32f7xx_hal_tim_ex.c ****   __HAL_UNLOCK(htim);
 6082              		.loc 1 2028 3
 6083 00de 7B68     		ldr	r3, [r7, #4]
 6084 00e0 0022     		movs	r2, #0
 6085 00e2 83F83C20 		strb	r2, [r3, #60]
2029:Drivers/STM32F7xx_HAL_Driver/Src/stm32f7xx_hal_tim_ex.c **** 
2030:Drivers/STM32F7xx_HAL_Driver/Src/stm32f7xx_hal_tim_ex.c ****   return HAL_OK;
 6086              		.loc 1 2030 10
 6087 00e6 0023     		movs	r3, #0
 6088              	.L376:
2031:Drivers/STM32F7xx_HAL_Driver/Src/stm32f7xx_hal_tim_ex.c **** }
 6089              		.loc 1 2031 1
 6090 00e8 1846     		mov	r0, r3
 6091 00ea 1437     		adds	r7, r7, #20
 6092              	.LCFI159:
ARM GAS  /tmp/ccOFTjtU.s 			page 145


 6093              		.cfi_def_cfa_offset 4
 6094 00ec BD46     		mov	sp, r7
 6095              	.LCFI160:
 6096              		.cfi_def_cfa_register 13
 6097              		@ sp needed
 6098 00ee 5DF8047B 		ldr	r7, [sp], #4
 6099              	.LCFI161:
 6100              		.cfi_restore 7
 6101              		.cfi_def_cfa_offset 0
 6102 00f2 7047     		bx	lr
 6103              	.L380:
 6104              		.align	2
 6105              	.L379:
 6106 00f4 00000140 		.word	1073807360
 6107 00f8 00040140 		.word	1073808384
 6108              		.cfi_endproc
 6109              	.LFE171:
 6111              		.section	.text.HAL_TIMEx_ConfigBreakInput,"ax",%progbits
 6112              		.align	1
 6113              		.global	HAL_TIMEx_ConfigBreakInput
 6114              		.syntax unified
 6115              		.thumb
 6116              		.thumb_func
 6117              		.fpu fpv5-d16
 6119              	HAL_TIMEx_ConfigBreakInput:
 6120              	.LFB172:
2032:Drivers/STM32F7xx_HAL_Driver/Src/stm32f7xx_hal_tim_ex.c **** #if defined(TIM_BREAK_INPUT_SUPPORT)
2033:Drivers/STM32F7xx_HAL_Driver/Src/stm32f7xx_hal_tim_ex.c **** 
2034:Drivers/STM32F7xx_HAL_Driver/Src/stm32f7xx_hal_tim_ex.c **** /**
2035:Drivers/STM32F7xx_HAL_Driver/Src/stm32f7xx_hal_tim_ex.c ****   * @brief  Configures the break input source.
2036:Drivers/STM32F7xx_HAL_Driver/Src/stm32f7xx_hal_tim_ex.c ****   * @param  htim TIM handle.
2037:Drivers/STM32F7xx_HAL_Driver/Src/stm32f7xx_hal_tim_ex.c ****   * @param  BreakInput Break input to configure
2038:Drivers/STM32F7xx_HAL_Driver/Src/stm32f7xx_hal_tim_ex.c ****   *          This parameter can be one of the following values:
2039:Drivers/STM32F7xx_HAL_Driver/Src/stm32f7xx_hal_tim_ex.c ****   *            @arg TIM_BREAKINPUT_BRK: Timer break input
2040:Drivers/STM32F7xx_HAL_Driver/Src/stm32f7xx_hal_tim_ex.c ****   *            @arg TIM_BREAKINPUT_BRK2: Timer break 2 input
2041:Drivers/STM32F7xx_HAL_Driver/Src/stm32f7xx_hal_tim_ex.c ****   * @param  sBreakInputConfig Break input source configuration
2042:Drivers/STM32F7xx_HAL_Driver/Src/stm32f7xx_hal_tim_ex.c ****   * @retval HAL status
2043:Drivers/STM32F7xx_HAL_Driver/Src/stm32f7xx_hal_tim_ex.c ****   */
2044:Drivers/STM32F7xx_HAL_Driver/Src/stm32f7xx_hal_tim_ex.c **** HAL_StatusTypeDef HAL_TIMEx_ConfigBreakInput(TIM_HandleTypeDef *htim,
2045:Drivers/STM32F7xx_HAL_Driver/Src/stm32f7xx_hal_tim_ex.c ****                                              uint32_t BreakInput,
2046:Drivers/STM32F7xx_HAL_Driver/Src/stm32f7xx_hal_tim_ex.c ****                                              TIMEx_BreakInputConfigTypeDef *sBreakInputConfig)
2047:Drivers/STM32F7xx_HAL_Driver/Src/stm32f7xx_hal_tim_ex.c **** 
2048:Drivers/STM32F7xx_HAL_Driver/Src/stm32f7xx_hal_tim_ex.c **** {
 6121              		.loc 1 2048 1
 6122              		.cfi_startproc
 6123              		@ args = 0, pretend = 0, frame = 40
 6124              		@ frame_needed = 1, uses_anonymous_args = 0
 6125              		@ link register save eliminated.
 6126 0000 80B4     		push	{r7}
 6127              	.LCFI162:
 6128              		.cfi_def_cfa_offset 4
 6129              		.cfi_offset 7, -4
 6130 0002 8BB0     		sub	sp, sp, #44
 6131              	.LCFI163:
 6132              		.cfi_def_cfa_offset 48
 6133 0004 00AF     		add	r7, sp, #0
 6134              	.LCFI164:
ARM GAS  /tmp/ccOFTjtU.s 			page 146


 6135              		.cfi_def_cfa_register 7
 6136 0006 F860     		str	r0, [r7, #12]
 6137 0008 B960     		str	r1, [r7, #8]
 6138 000a 7A60     		str	r2, [r7, #4]
2049:Drivers/STM32F7xx_HAL_Driver/Src/stm32f7xx_hal_tim_ex.c ****   uint32_t tmporx;
2050:Drivers/STM32F7xx_HAL_Driver/Src/stm32f7xx_hal_tim_ex.c ****   uint32_t bkin_enable_mask;
2051:Drivers/STM32F7xx_HAL_Driver/Src/stm32f7xx_hal_tim_ex.c ****   uint32_t bkin_polarity_mask;
2052:Drivers/STM32F7xx_HAL_Driver/Src/stm32f7xx_hal_tim_ex.c ****   uint32_t bkin_enable_bitpos;
2053:Drivers/STM32F7xx_HAL_Driver/Src/stm32f7xx_hal_tim_ex.c ****   uint32_t bkin_polarity_bitpos;
2054:Drivers/STM32F7xx_HAL_Driver/Src/stm32f7xx_hal_tim_ex.c **** 
2055:Drivers/STM32F7xx_HAL_Driver/Src/stm32f7xx_hal_tim_ex.c ****   /* Check the parameters */
2056:Drivers/STM32F7xx_HAL_Driver/Src/stm32f7xx_hal_tim_ex.c ****   assert_param(IS_TIM_BREAK_INSTANCE(htim->Instance));
2057:Drivers/STM32F7xx_HAL_Driver/Src/stm32f7xx_hal_tim_ex.c ****   assert_param(IS_TIM_BREAKINPUT(BreakInput));
2058:Drivers/STM32F7xx_HAL_Driver/Src/stm32f7xx_hal_tim_ex.c ****   assert_param(IS_TIM_BREAKINPUTSOURCE(sBreakInputConfig->Source));
2059:Drivers/STM32F7xx_HAL_Driver/Src/stm32f7xx_hal_tim_ex.c ****   assert_param(IS_TIM_BREAKINPUTSOURCE_STATE(sBreakInputConfig->Enable));
2060:Drivers/STM32F7xx_HAL_Driver/Src/stm32f7xx_hal_tim_ex.c **** #if defined(DFSDM1_Channel0)
2061:Drivers/STM32F7xx_HAL_Driver/Src/stm32f7xx_hal_tim_ex.c ****   if (sBreakInputConfig->Source != TIM_BREAKINPUTSOURCE_DFSDM1)
2062:Drivers/STM32F7xx_HAL_Driver/Src/stm32f7xx_hal_tim_ex.c ****   {
2063:Drivers/STM32F7xx_HAL_Driver/Src/stm32f7xx_hal_tim_ex.c ****     assert_param(IS_TIM_BREAKINPUTSOURCE_POLARITY(sBreakInputConfig->Polarity));
2064:Drivers/STM32F7xx_HAL_Driver/Src/stm32f7xx_hal_tim_ex.c ****   }
2065:Drivers/STM32F7xx_HAL_Driver/Src/stm32f7xx_hal_tim_ex.c **** #else
2066:Drivers/STM32F7xx_HAL_Driver/Src/stm32f7xx_hal_tim_ex.c ****   assert_param(IS_TIM_BREAKINPUTSOURCE_POLARITY(sBreakInputConfig->Polarity));
2067:Drivers/STM32F7xx_HAL_Driver/Src/stm32f7xx_hal_tim_ex.c **** #endif /* DFSDM1_Channel0 */
2068:Drivers/STM32F7xx_HAL_Driver/Src/stm32f7xx_hal_tim_ex.c **** 
2069:Drivers/STM32F7xx_HAL_Driver/Src/stm32f7xx_hal_tim_ex.c ****   /* Check input state */
2070:Drivers/STM32F7xx_HAL_Driver/Src/stm32f7xx_hal_tim_ex.c ****   __HAL_LOCK(htim);
 6139              		.loc 1 2070 3
 6140 000c FB68     		ldr	r3, [r7, #12]
 6141 000e 93F83C30 		ldrb	r3, [r3, #60]	@ zero_extendqisi2
 6142 0012 012B     		cmp	r3, #1
 6143 0014 01D1     		bne	.L382
 6144              		.loc 1 2070 3 is_stmt 0 discriminator 1
 6145 0016 0223     		movs	r3, #2
 6146 0018 85E0     		b	.L383
 6147              	.L382:
 6148              		.loc 1 2070 3 discriminator 2
 6149 001a FB68     		ldr	r3, [r7, #12]
 6150 001c 0122     		movs	r2, #1
 6151 001e 83F83C20 		strb	r2, [r3, #60]
2071:Drivers/STM32F7xx_HAL_Driver/Src/stm32f7xx_hal_tim_ex.c **** 
2072:Drivers/STM32F7xx_HAL_Driver/Src/stm32f7xx_hal_tim_ex.c ****   switch (sBreakInputConfig->Source)
 6152              		.loc 1 2072 28 is_stmt 1 discriminator 2
 6153 0022 7B68     		ldr	r3, [r7, #4]
 6154 0024 1B68     		ldr	r3, [r3]
 6155              		.loc 1 2072 3 discriminator 2
 6156 0026 012B     		cmp	r3, #1
 6157 0028 02D0     		beq	.L384
 6158              		.loc 1 2072 3 is_stmt 0
 6159 002a 082B     		cmp	r3, #8
 6160 002c 0AD0     		beq	.L385
 6161 002e 13E0     		b	.L394
 6162              	.L384:
2073:Drivers/STM32F7xx_HAL_Driver/Src/stm32f7xx_hal_tim_ex.c ****   {
2074:Drivers/STM32F7xx_HAL_Driver/Src/stm32f7xx_hal_tim_ex.c ****     case TIM_BREAKINPUTSOURCE_BKIN:
2075:Drivers/STM32F7xx_HAL_Driver/Src/stm32f7xx_hal_tim_ex.c ****     {
2076:Drivers/STM32F7xx_HAL_Driver/Src/stm32f7xx_hal_tim_ex.c ****       bkin_enable_mask = TIM1_AF1_BKINE;
 6163              		.loc 1 2076 24 is_stmt 1
ARM GAS  /tmp/ccOFTjtU.s 			page 147


 6164 0030 0123     		movs	r3, #1
 6165 0032 3B62     		str	r3, [r7, #32]
2077:Drivers/STM32F7xx_HAL_Driver/Src/stm32f7xx_hal_tim_ex.c ****       bkin_enable_bitpos = 0;
 6166              		.loc 1 2077 26
 6167 0034 0023     		movs	r3, #0
 6168 0036 BB61     		str	r3, [r7, #24]
2078:Drivers/STM32F7xx_HAL_Driver/Src/stm32f7xx_hal_tim_ex.c ****       bkin_polarity_mask = TIM1_AF1_BKINP;
 6169              		.loc 1 2078 26
 6170 0038 4FF40073 		mov	r3, #512
 6171 003c FB61     		str	r3, [r7, #28]
2079:Drivers/STM32F7xx_HAL_Driver/Src/stm32f7xx_hal_tim_ex.c ****       bkin_polarity_bitpos = 9;
 6172              		.loc 1 2079 28
 6173 003e 0923     		movs	r3, #9
 6174 0040 7B61     		str	r3, [r7, #20]
2080:Drivers/STM32F7xx_HAL_Driver/Src/stm32f7xx_hal_tim_ex.c ****       break;
 6175              		.loc 1 2080 7
 6176 0042 12E0     		b	.L387
 6177              	.L385:
2081:Drivers/STM32F7xx_HAL_Driver/Src/stm32f7xx_hal_tim_ex.c ****     }
2082:Drivers/STM32F7xx_HAL_Driver/Src/stm32f7xx_hal_tim_ex.c **** 
2083:Drivers/STM32F7xx_HAL_Driver/Src/stm32f7xx_hal_tim_ex.c ****     case TIM_BREAKINPUTSOURCE_DFSDM1:
2084:Drivers/STM32F7xx_HAL_Driver/Src/stm32f7xx_hal_tim_ex.c ****     {
2085:Drivers/STM32F7xx_HAL_Driver/Src/stm32f7xx_hal_tim_ex.c ****       bkin_enable_mask = TIM1_AF1_BKDF1BKE;
 6178              		.loc 1 2085 24
 6179 0044 4FF48073 		mov	r3, #256
 6180 0048 3B62     		str	r3, [r7, #32]
2086:Drivers/STM32F7xx_HAL_Driver/Src/stm32f7xx_hal_tim_ex.c ****       bkin_enable_bitpos = 8;
 6181              		.loc 1 2086 26
 6182 004a 0823     		movs	r3, #8
 6183 004c BB61     		str	r3, [r7, #24]
2087:Drivers/STM32F7xx_HAL_Driver/Src/stm32f7xx_hal_tim_ex.c ****       bkin_polarity_mask = 0U;
 6184              		.loc 1 2087 26
 6185 004e 0023     		movs	r3, #0
 6186 0050 FB61     		str	r3, [r7, #28]
2088:Drivers/STM32F7xx_HAL_Driver/Src/stm32f7xx_hal_tim_ex.c ****       bkin_polarity_bitpos = 0U;
 6187              		.loc 1 2088 28
 6188 0052 0023     		movs	r3, #0
 6189 0054 7B61     		str	r3, [r7, #20]
2089:Drivers/STM32F7xx_HAL_Driver/Src/stm32f7xx_hal_tim_ex.c ****       break;
 6190              		.loc 1 2089 7
 6191 0056 08E0     		b	.L387
 6192              	.L394:
2090:Drivers/STM32F7xx_HAL_Driver/Src/stm32f7xx_hal_tim_ex.c ****     }
2091:Drivers/STM32F7xx_HAL_Driver/Src/stm32f7xx_hal_tim_ex.c **** 
2092:Drivers/STM32F7xx_HAL_Driver/Src/stm32f7xx_hal_tim_ex.c ****     default:
2093:Drivers/STM32F7xx_HAL_Driver/Src/stm32f7xx_hal_tim_ex.c ****     {
2094:Drivers/STM32F7xx_HAL_Driver/Src/stm32f7xx_hal_tim_ex.c ****       bkin_enable_mask = 0U;
 6193              		.loc 1 2094 24
 6194 0058 0023     		movs	r3, #0
 6195 005a 3B62     		str	r3, [r7, #32]
2095:Drivers/STM32F7xx_HAL_Driver/Src/stm32f7xx_hal_tim_ex.c ****       bkin_polarity_mask = 0U;
 6196              		.loc 1 2095 26
 6197 005c 0023     		movs	r3, #0
 6198 005e FB61     		str	r3, [r7, #28]
2096:Drivers/STM32F7xx_HAL_Driver/Src/stm32f7xx_hal_tim_ex.c ****       bkin_enable_bitpos = 0U;
 6199              		.loc 1 2096 26
 6200 0060 0023     		movs	r3, #0
ARM GAS  /tmp/ccOFTjtU.s 			page 148


 6201 0062 BB61     		str	r3, [r7, #24]
2097:Drivers/STM32F7xx_HAL_Driver/Src/stm32f7xx_hal_tim_ex.c ****       bkin_polarity_bitpos = 0U;
 6202              		.loc 1 2097 28
 6203 0064 0023     		movs	r3, #0
 6204 0066 7B61     		str	r3, [r7, #20]
2098:Drivers/STM32F7xx_HAL_Driver/Src/stm32f7xx_hal_tim_ex.c ****       break;
 6205              		.loc 1 2098 7
 6206 0068 00BF     		nop
 6207              	.L387:
2099:Drivers/STM32F7xx_HAL_Driver/Src/stm32f7xx_hal_tim_ex.c ****     }
2100:Drivers/STM32F7xx_HAL_Driver/Src/stm32f7xx_hal_tim_ex.c ****   }
2101:Drivers/STM32F7xx_HAL_Driver/Src/stm32f7xx_hal_tim_ex.c **** 
2102:Drivers/STM32F7xx_HAL_Driver/Src/stm32f7xx_hal_tim_ex.c ****   switch (BreakInput)
 6208              		.loc 1 2102 3
 6209 006a BB68     		ldr	r3, [r7, #8]
 6210 006c 012B     		cmp	r3, #1
 6211 006e 03D0     		beq	.L388
 6212 0070 BB68     		ldr	r3, [r7, #8]
 6213 0072 022B     		cmp	r3, #2
 6214 0074 29D0     		beq	.L389
2103:Drivers/STM32F7xx_HAL_Driver/Src/stm32f7xx_hal_tim_ex.c ****   {
2104:Drivers/STM32F7xx_HAL_Driver/Src/stm32f7xx_hal_tim_ex.c ****     case TIM_BREAKINPUT_BRK:
2105:Drivers/STM32F7xx_HAL_Driver/Src/stm32f7xx_hal_tim_ex.c ****     {
2106:Drivers/STM32F7xx_HAL_Driver/Src/stm32f7xx_hal_tim_ex.c ****       /* Get the TIMx_AF1 register value */
2107:Drivers/STM32F7xx_HAL_Driver/Src/stm32f7xx_hal_tim_ex.c ****       tmporx = htim->Instance->AF1;
2108:Drivers/STM32F7xx_HAL_Driver/Src/stm32f7xx_hal_tim_ex.c **** 
2109:Drivers/STM32F7xx_HAL_Driver/Src/stm32f7xx_hal_tim_ex.c ****       /* Enable the break input */
2110:Drivers/STM32F7xx_HAL_Driver/Src/stm32f7xx_hal_tim_ex.c ****       tmporx &= ~bkin_enable_mask;
2111:Drivers/STM32F7xx_HAL_Driver/Src/stm32f7xx_hal_tim_ex.c ****       tmporx |= (sBreakInputConfig->Enable << bkin_enable_bitpos) & bkin_enable_mask;
2112:Drivers/STM32F7xx_HAL_Driver/Src/stm32f7xx_hal_tim_ex.c **** 
2113:Drivers/STM32F7xx_HAL_Driver/Src/stm32f7xx_hal_tim_ex.c ****       /* Set the break input polarity */
2114:Drivers/STM32F7xx_HAL_Driver/Src/stm32f7xx_hal_tim_ex.c **** #if defined(DFSDM1_Channel0)
2115:Drivers/STM32F7xx_HAL_Driver/Src/stm32f7xx_hal_tim_ex.c ****       if (sBreakInputConfig->Source != TIM_BREAKINPUTSOURCE_DFSDM1)
2116:Drivers/STM32F7xx_HAL_Driver/Src/stm32f7xx_hal_tim_ex.c **** #endif /* DFSDM1_Channel0 */
2117:Drivers/STM32F7xx_HAL_Driver/Src/stm32f7xx_hal_tim_ex.c ****         {
2118:Drivers/STM32F7xx_HAL_Driver/Src/stm32f7xx_hal_tim_ex.c ****           tmporx &= ~bkin_polarity_mask;
2119:Drivers/STM32F7xx_HAL_Driver/Src/stm32f7xx_hal_tim_ex.c ****           tmporx |= (sBreakInputConfig->Polarity << bkin_polarity_bitpos) & bkin_polarity_mask;
2120:Drivers/STM32F7xx_HAL_Driver/Src/stm32f7xx_hal_tim_ex.c ****         }
2121:Drivers/STM32F7xx_HAL_Driver/Src/stm32f7xx_hal_tim_ex.c **** 
2122:Drivers/STM32F7xx_HAL_Driver/Src/stm32f7xx_hal_tim_ex.c ****       /* Set TIMx_AF1 */
2123:Drivers/STM32F7xx_HAL_Driver/Src/stm32f7xx_hal_tim_ex.c ****       htim->Instance->AF1 = tmporx;
2124:Drivers/STM32F7xx_HAL_Driver/Src/stm32f7xx_hal_tim_ex.c ****       break;
2125:Drivers/STM32F7xx_HAL_Driver/Src/stm32f7xx_hal_tim_ex.c ****     }
2126:Drivers/STM32F7xx_HAL_Driver/Src/stm32f7xx_hal_tim_ex.c ****     case TIM_BREAKINPUT_BRK2:
2127:Drivers/STM32F7xx_HAL_Driver/Src/stm32f7xx_hal_tim_ex.c ****     {
2128:Drivers/STM32F7xx_HAL_Driver/Src/stm32f7xx_hal_tim_ex.c ****       /* Get the TIMx_AF2 register value */
2129:Drivers/STM32F7xx_HAL_Driver/Src/stm32f7xx_hal_tim_ex.c ****       tmporx = htim->Instance->AF2;
2130:Drivers/STM32F7xx_HAL_Driver/Src/stm32f7xx_hal_tim_ex.c **** 
2131:Drivers/STM32F7xx_HAL_Driver/Src/stm32f7xx_hal_tim_ex.c ****       /* Enable the break input */
2132:Drivers/STM32F7xx_HAL_Driver/Src/stm32f7xx_hal_tim_ex.c ****       tmporx &= ~bkin_enable_mask;
2133:Drivers/STM32F7xx_HAL_Driver/Src/stm32f7xx_hal_tim_ex.c ****       tmporx |= (sBreakInputConfig->Enable << bkin_enable_bitpos) & bkin_enable_mask;
2134:Drivers/STM32F7xx_HAL_Driver/Src/stm32f7xx_hal_tim_ex.c **** 
2135:Drivers/STM32F7xx_HAL_Driver/Src/stm32f7xx_hal_tim_ex.c ****       /* Set the break input polarity */
2136:Drivers/STM32F7xx_HAL_Driver/Src/stm32f7xx_hal_tim_ex.c **** #if defined(DFSDM1_Channel0)
2137:Drivers/STM32F7xx_HAL_Driver/Src/stm32f7xx_hal_tim_ex.c ****       if (sBreakInputConfig->Source != TIM_BREAKINPUTSOURCE_DFSDM1)
2138:Drivers/STM32F7xx_HAL_Driver/Src/stm32f7xx_hal_tim_ex.c **** #endif /* DFSDM1_Channel0 */
2139:Drivers/STM32F7xx_HAL_Driver/Src/stm32f7xx_hal_tim_ex.c ****         {
ARM GAS  /tmp/ccOFTjtU.s 			page 149


2140:Drivers/STM32F7xx_HAL_Driver/Src/stm32f7xx_hal_tim_ex.c ****           tmporx &= ~bkin_polarity_mask;
2141:Drivers/STM32F7xx_HAL_Driver/Src/stm32f7xx_hal_tim_ex.c ****           tmporx |= (sBreakInputConfig->Polarity << bkin_polarity_bitpos) & bkin_polarity_mask;
2142:Drivers/STM32F7xx_HAL_Driver/Src/stm32f7xx_hal_tim_ex.c ****         }
2143:Drivers/STM32F7xx_HAL_Driver/Src/stm32f7xx_hal_tim_ex.c **** 
2144:Drivers/STM32F7xx_HAL_Driver/Src/stm32f7xx_hal_tim_ex.c ****       /* Set TIMx_AF2 */
2145:Drivers/STM32F7xx_HAL_Driver/Src/stm32f7xx_hal_tim_ex.c ****       htim->Instance->AF2 = tmporx;
2146:Drivers/STM32F7xx_HAL_Driver/Src/stm32f7xx_hal_tim_ex.c ****       break;
2147:Drivers/STM32F7xx_HAL_Driver/Src/stm32f7xx_hal_tim_ex.c ****     }
2148:Drivers/STM32F7xx_HAL_Driver/Src/stm32f7xx_hal_tim_ex.c ****     default:
2149:Drivers/STM32F7xx_HAL_Driver/Src/stm32f7xx_hal_tim_ex.c ****       break;
 6215              		.loc 1 2149 7
 6216 0076 51E0     		b	.L392
 6217              	.L388:
2107:Drivers/STM32F7xx_HAL_Driver/Src/stm32f7xx_hal_tim_ex.c **** 
 6218              		.loc 1 2107 20
 6219 0078 FB68     		ldr	r3, [r7, #12]
 6220 007a 1B68     		ldr	r3, [r3]
2107:Drivers/STM32F7xx_HAL_Driver/Src/stm32f7xx_hal_tim_ex.c **** 
 6221              		.loc 1 2107 14
 6222 007c 1B6E     		ldr	r3, [r3, #96]
 6223 007e 7B62     		str	r3, [r7, #36]
2110:Drivers/STM32F7xx_HAL_Driver/Src/stm32f7xx_hal_tim_ex.c ****       tmporx |= (sBreakInputConfig->Enable << bkin_enable_bitpos) & bkin_enable_mask;
 6224              		.loc 1 2110 17
 6225 0080 3B6A     		ldr	r3, [r7, #32]
 6226 0082 DB43     		mvns	r3, r3
2110:Drivers/STM32F7xx_HAL_Driver/Src/stm32f7xx_hal_tim_ex.c ****       tmporx |= (sBreakInputConfig->Enable << bkin_enable_bitpos) & bkin_enable_mask;
 6227              		.loc 1 2110 14
 6228 0084 7A6A     		ldr	r2, [r7, #36]
 6229 0086 1340     		ands	r3, r3, r2
 6230 0088 7B62     		str	r3, [r7, #36]
2111:Drivers/STM32F7xx_HAL_Driver/Src/stm32f7xx_hal_tim_ex.c **** 
 6231              		.loc 1 2111 35
 6232 008a 7B68     		ldr	r3, [r7, #4]
 6233 008c 5A68     		ldr	r2, [r3, #4]
2111:Drivers/STM32F7xx_HAL_Driver/Src/stm32f7xx_hal_tim_ex.c **** 
 6234              		.loc 1 2111 44
 6235 008e BB69     		ldr	r3, [r7, #24]
 6236 0090 9A40     		lsls	r2, r2, r3
2111:Drivers/STM32F7xx_HAL_Driver/Src/stm32f7xx_hal_tim_ex.c **** 
 6237              		.loc 1 2111 67
 6238 0092 3B6A     		ldr	r3, [r7, #32]
 6239 0094 1340     		ands	r3, r3, r2
2111:Drivers/STM32F7xx_HAL_Driver/Src/stm32f7xx_hal_tim_ex.c **** 
 6240              		.loc 1 2111 14
 6241 0096 7A6A     		ldr	r2, [r7, #36]
 6242 0098 1343     		orrs	r3, r3, r2
 6243 009a 7B62     		str	r3, [r7, #36]
2115:Drivers/STM32F7xx_HAL_Driver/Src/stm32f7xx_hal_tim_ex.c **** #endif /* DFSDM1_Channel0 */
 6244              		.loc 1 2115 28
 6245 009c 7B68     		ldr	r3, [r7, #4]
 6246 009e 1B68     		ldr	r3, [r3]
2115:Drivers/STM32F7xx_HAL_Driver/Src/stm32f7xx_hal_tim_ex.c **** #endif /* DFSDM1_Channel0 */
 6247              		.loc 1 2115 10
 6248 00a0 082B     		cmp	r3, #8
 6249 00a2 0DD0     		beq	.L391
2118:Drivers/STM32F7xx_HAL_Driver/Src/stm32f7xx_hal_tim_ex.c ****           tmporx |= (sBreakInputConfig->Polarity << bkin_polarity_bitpos) & bkin_polarity_mask;
 6250              		.loc 1 2118 21
ARM GAS  /tmp/ccOFTjtU.s 			page 150


 6251 00a4 FB69     		ldr	r3, [r7, #28]
 6252 00a6 DB43     		mvns	r3, r3
2118:Drivers/STM32F7xx_HAL_Driver/Src/stm32f7xx_hal_tim_ex.c ****           tmporx |= (sBreakInputConfig->Polarity << bkin_polarity_bitpos) & bkin_polarity_mask;
 6253              		.loc 1 2118 18
 6254 00a8 7A6A     		ldr	r2, [r7, #36]
 6255 00aa 1340     		ands	r3, r3, r2
 6256 00ac 7B62     		str	r3, [r7, #36]
2119:Drivers/STM32F7xx_HAL_Driver/Src/stm32f7xx_hal_tim_ex.c ****         }
 6257              		.loc 1 2119 39
 6258 00ae 7B68     		ldr	r3, [r7, #4]
 6259 00b0 9A68     		ldr	r2, [r3, #8]
2119:Drivers/STM32F7xx_HAL_Driver/Src/stm32f7xx_hal_tim_ex.c ****         }
 6260              		.loc 1 2119 50
 6261 00b2 7B69     		ldr	r3, [r7, #20]
 6262 00b4 9A40     		lsls	r2, r2, r3
2119:Drivers/STM32F7xx_HAL_Driver/Src/stm32f7xx_hal_tim_ex.c ****         }
 6263              		.loc 1 2119 75
 6264 00b6 FB69     		ldr	r3, [r7, #28]
 6265 00b8 1340     		ands	r3, r3, r2
2119:Drivers/STM32F7xx_HAL_Driver/Src/stm32f7xx_hal_tim_ex.c ****         }
 6266              		.loc 1 2119 18
 6267 00ba 7A6A     		ldr	r2, [r7, #36]
 6268 00bc 1343     		orrs	r3, r3, r2
 6269 00be 7B62     		str	r3, [r7, #36]
 6270              	.L391:
2123:Drivers/STM32F7xx_HAL_Driver/Src/stm32f7xx_hal_tim_ex.c ****       break;
 6271              		.loc 1 2123 11
 6272 00c0 FB68     		ldr	r3, [r7, #12]
 6273 00c2 1B68     		ldr	r3, [r3]
2123:Drivers/STM32F7xx_HAL_Driver/Src/stm32f7xx_hal_tim_ex.c ****       break;
 6274              		.loc 1 2123 27
 6275 00c4 7A6A     		ldr	r2, [r7, #36]
 6276 00c6 1A66     		str	r2, [r3, #96]
2124:Drivers/STM32F7xx_HAL_Driver/Src/stm32f7xx_hal_tim_ex.c ****     }
 6277              		.loc 1 2124 7
 6278 00c8 28E0     		b	.L392
 6279              	.L389:
2129:Drivers/STM32F7xx_HAL_Driver/Src/stm32f7xx_hal_tim_ex.c **** 
 6280              		.loc 1 2129 20
 6281 00ca FB68     		ldr	r3, [r7, #12]
 6282 00cc 1B68     		ldr	r3, [r3]
2129:Drivers/STM32F7xx_HAL_Driver/Src/stm32f7xx_hal_tim_ex.c **** 
 6283              		.loc 1 2129 14
 6284 00ce 5B6E     		ldr	r3, [r3, #100]
 6285 00d0 7B62     		str	r3, [r7, #36]
2132:Drivers/STM32F7xx_HAL_Driver/Src/stm32f7xx_hal_tim_ex.c ****       tmporx |= (sBreakInputConfig->Enable << bkin_enable_bitpos) & bkin_enable_mask;
 6286              		.loc 1 2132 17
 6287 00d2 3B6A     		ldr	r3, [r7, #32]
 6288 00d4 DB43     		mvns	r3, r3
2132:Drivers/STM32F7xx_HAL_Driver/Src/stm32f7xx_hal_tim_ex.c ****       tmporx |= (sBreakInputConfig->Enable << bkin_enable_bitpos) & bkin_enable_mask;
 6289              		.loc 1 2132 14
 6290 00d6 7A6A     		ldr	r2, [r7, #36]
 6291 00d8 1340     		ands	r3, r3, r2
 6292 00da 7B62     		str	r3, [r7, #36]
2133:Drivers/STM32F7xx_HAL_Driver/Src/stm32f7xx_hal_tim_ex.c **** 
 6293              		.loc 1 2133 35
 6294 00dc 7B68     		ldr	r3, [r7, #4]
ARM GAS  /tmp/ccOFTjtU.s 			page 151


 6295 00de 5A68     		ldr	r2, [r3, #4]
2133:Drivers/STM32F7xx_HAL_Driver/Src/stm32f7xx_hal_tim_ex.c **** 
 6296              		.loc 1 2133 44
 6297 00e0 BB69     		ldr	r3, [r7, #24]
 6298 00e2 9A40     		lsls	r2, r2, r3
2133:Drivers/STM32F7xx_HAL_Driver/Src/stm32f7xx_hal_tim_ex.c **** 
 6299              		.loc 1 2133 67
 6300 00e4 3B6A     		ldr	r3, [r7, #32]
 6301 00e6 1340     		ands	r3, r3, r2
2133:Drivers/STM32F7xx_HAL_Driver/Src/stm32f7xx_hal_tim_ex.c **** 
 6302              		.loc 1 2133 14
 6303 00e8 7A6A     		ldr	r2, [r7, #36]
 6304 00ea 1343     		orrs	r3, r3, r2
 6305 00ec 7B62     		str	r3, [r7, #36]
2137:Drivers/STM32F7xx_HAL_Driver/Src/stm32f7xx_hal_tim_ex.c **** #endif /* DFSDM1_Channel0 */
 6306              		.loc 1 2137 28
 6307 00ee 7B68     		ldr	r3, [r7, #4]
 6308 00f0 1B68     		ldr	r3, [r3]
2137:Drivers/STM32F7xx_HAL_Driver/Src/stm32f7xx_hal_tim_ex.c **** #endif /* DFSDM1_Channel0 */
 6309              		.loc 1 2137 10
 6310 00f2 082B     		cmp	r3, #8
 6311 00f4 0DD0     		beq	.L393
2140:Drivers/STM32F7xx_HAL_Driver/Src/stm32f7xx_hal_tim_ex.c ****           tmporx |= (sBreakInputConfig->Polarity << bkin_polarity_bitpos) & bkin_polarity_mask;
 6312              		.loc 1 2140 21
 6313 00f6 FB69     		ldr	r3, [r7, #28]
 6314 00f8 DB43     		mvns	r3, r3
2140:Drivers/STM32F7xx_HAL_Driver/Src/stm32f7xx_hal_tim_ex.c ****           tmporx |= (sBreakInputConfig->Polarity << bkin_polarity_bitpos) & bkin_polarity_mask;
 6315              		.loc 1 2140 18
 6316 00fa 7A6A     		ldr	r2, [r7, #36]
 6317 00fc 1340     		ands	r3, r3, r2
 6318 00fe 7B62     		str	r3, [r7, #36]
2141:Drivers/STM32F7xx_HAL_Driver/Src/stm32f7xx_hal_tim_ex.c ****         }
 6319              		.loc 1 2141 39
 6320 0100 7B68     		ldr	r3, [r7, #4]
 6321 0102 9A68     		ldr	r2, [r3, #8]
2141:Drivers/STM32F7xx_HAL_Driver/Src/stm32f7xx_hal_tim_ex.c ****         }
 6322              		.loc 1 2141 50
 6323 0104 7B69     		ldr	r3, [r7, #20]
 6324 0106 9A40     		lsls	r2, r2, r3
2141:Drivers/STM32F7xx_HAL_Driver/Src/stm32f7xx_hal_tim_ex.c ****         }
 6325              		.loc 1 2141 75
 6326 0108 FB69     		ldr	r3, [r7, #28]
 6327 010a 1340     		ands	r3, r3, r2
2141:Drivers/STM32F7xx_HAL_Driver/Src/stm32f7xx_hal_tim_ex.c ****         }
 6328              		.loc 1 2141 18
 6329 010c 7A6A     		ldr	r2, [r7, #36]
 6330 010e 1343     		orrs	r3, r3, r2
 6331 0110 7B62     		str	r3, [r7, #36]
 6332              	.L393:
2145:Drivers/STM32F7xx_HAL_Driver/Src/stm32f7xx_hal_tim_ex.c ****       break;
 6333              		.loc 1 2145 11
 6334 0112 FB68     		ldr	r3, [r7, #12]
 6335 0114 1B68     		ldr	r3, [r3]
2145:Drivers/STM32F7xx_HAL_Driver/Src/stm32f7xx_hal_tim_ex.c ****       break;
 6336              		.loc 1 2145 27
 6337 0116 7A6A     		ldr	r2, [r7, #36]
 6338 0118 5A66     		str	r2, [r3, #100]
ARM GAS  /tmp/ccOFTjtU.s 			page 152


2146:Drivers/STM32F7xx_HAL_Driver/Src/stm32f7xx_hal_tim_ex.c ****     }
 6339              		.loc 1 2146 7
 6340 011a 00BF     		nop
 6341              	.L392:
2150:Drivers/STM32F7xx_HAL_Driver/Src/stm32f7xx_hal_tim_ex.c ****   }
2151:Drivers/STM32F7xx_HAL_Driver/Src/stm32f7xx_hal_tim_ex.c **** 
2152:Drivers/STM32F7xx_HAL_Driver/Src/stm32f7xx_hal_tim_ex.c ****   __HAL_UNLOCK(htim);
 6342              		.loc 1 2152 3
 6343 011c FB68     		ldr	r3, [r7, #12]
 6344 011e 0022     		movs	r2, #0
 6345 0120 83F83C20 		strb	r2, [r3, #60]
2153:Drivers/STM32F7xx_HAL_Driver/Src/stm32f7xx_hal_tim_ex.c **** 
2154:Drivers/STM32F7xx_HAL_Driver/Src/stm32f7xx_hal_tim_ex.c ****   return HAL_OK;
 6346              		.loc 1 2154 10
 6347 0124 0023     		movs	r3, #0
 6348              	.L383:
2155:Drivers/STM32F7xx_HAL_Driver/Src/stm32f7xx_hal_tim_ex.c **** }
 6349              		.loc 1 2155 1
 6350 0126 1846     		mov	r0, r3
 6351 0128 2C37     		adds	r7, r7, #44
 6352              	.LCFI165:
 6353              		.cfi_def_cfa_offset 4
 6354 012a BD46     		mov	sp, r7
 6355              	.LCFI166:
 6356              		.cfi_def_cfa_register 13
 6357              		@ sp needed
 6358 012c 5DF8047B 		ldr	r7, [sp], #4
 6359              	.LCFI167:
 6360              		.cfi_restore 7
 6361              		.cfi_def_cfa_offset 0
 6362 0130 7047     		bx	lr
 6363              		.cfi_endproc
 6364              	.LFE172:
 6366              		.section	.text.HAL_TIMEx_RemapConfig,"ax",%progbits
 6367              		.align	1
 6368              		.global	HAL_TIMEx_RemapConfig
 6369              		.syntax unified
 6370              		.thumb
 6371              		.thumb_func
 6372              		.fpu fpv5-d16
 6374              	HAL_TIMEx_RemapConfig:
 6375              	.LFB173:
2156:Drivers/STM32F7xx_HAL_Driver/Src/stm32f7xx_hal_tim_ex.c **** #endif /*TIM_BREAK_INPUT_SUPPORT */
2157:Drivers/STM32F7xx_HAL_Driver/Src/stm32f7xx_hal_tim_ex.c **** 
2158:Drivers/STM32F7xx_HAL_Driver/Src/stm32f7xx_hal_tim_ex.c **** /**
2159:Drivers/STM32F7xx_HAL_Driver/Src/stm32f7xx_hal_tim_ex.c ****   * @brief  Configures the TIMx Remapping input capabilities.
2160:Drivers/STM32F7xx_HAL_Driver/Src/stm32f7xx_hal_tim_ex.c ****   * @param  htim TIM handle.
2161:Drivers/STM32F7xx_HAL_Driver/Src/stm32f7xx_hal_tim_ex.c ****   * @param  Remap specifies the TIM remapping source.
2162:Drivers/STM32F7xx_HAL_Driver/Src/stm32f7xx_hal_tim_ex.c ****   *          This parameter can be one of the following values:
2163:Drivers/STM32F7xx_HAL_Driver/Src/stm32f7xx_hal_tim_ex.c ****   *            @arg TIM_TIM2_TIM8_TRGO: TIM2 ITR1 input is connected to TIM8 Trigger output(default
2164:Drivers/STM32F7xx_HAL_Driver/Src/stm32f7xx_hal_tim_ex.c ****   *            @arg TIM_TIM2_ETH_PTP:   TIM2 ITR1 input is connected to ETH PTP trigger output.
2165:Drivers/STM32F7xx_HAL_Driver/Src/stm32f7xx_hal_tim_ex.c ****   *            @arg TIM_TIM2_USBFS_SOF: TIM2 ITR1 input is connected to USB FS SOF.
2166:Drivers/STM32F7xx_HAL_Driver/Src/stm32f7xx_hal_tim_ex.c ****   *            @arg TIM_TIM2_USBHS_SOF: TIM2 ITR1 input is connected to USB HS SOF.
2167:Drivers/STM32F7xx_HAL_Driver/Src/stm32f7xx_hal_tim_ex.c ****   *            @arg TIM_TIM5_GPIO:      TIM5 CH4 input is connected to dedicated Timer pin(default)
2168:Drivers/STM32F7xx_HAL_Driver/Src/stm32f7xx_hal_tim_ex.c ****   *            @arg TIM_TIM5_LSI:       TIM5 CH4 input is connected to LSI clock.
2169:Drivers/STM32F7xx_HAL_Driver/Src/stm32f7xx_hal_tim_ex.c ****   *            @arg TIM_TIM5_LSE:       TIM5 CH4 input is connected to LSE clock.
2170:Drivers/STM32F7xx_HAL_Driver/Src/stm32f7xx_hal_tim_ex.c ****   *            @arg TIM_TIM5_RTC:       TIM5 CH4 input is connected to RTC Output event.
ARM GAS  /tmp/ccOFTjtU.s 			page 153


2171:Drivers/STM32F7xx_HAL_Driver/Src/stm32f7xx_hal_tim_ex.c ****   *            @arg TIM_TIM11_GPIO:     TIM11 CH4 input is connected to dedicated Timer pin(default
2172:Drivers/STM32F7xx_HAL_Driver/Src/stm32f7xx_hal_tim_ex.c ****   *            @arg TIM_TIM11_SPDIF:    SPDIF Frame synchronous
2173:Drivers/STM32F7xx_HAL_Driver/Src/stm32f7xx_hal_tim_ex.c ****   *            @arg TIM_TIM11_HSE:      TIM11 CH4 input is connected to HSE_RTC clock
2174:Drivers/STM32F7xx_HAL_Driver/Src/stm32f7xx_hal_tim_ex.c ****   *                                     (HSE divided by a programmable prescaler)
2175:Drivers/STM32F7xx_HAL_Driver/Src/stm32f7xx_hal_tim_ex.c ****   *            @arg TIM_TIM11_MCO1:     TIM11 CH1 input is connected to MCO1
2176:Drivers/STM32F7xx_HAL_Driver/Src/stm32f7xx_hal_tim_ex.c ****   *
2177:Drivers/STM32F7xx_HAL_Driver/Src/stm32f7xx_hal_tim_ex.c ****   * @retval HAL status
2178:Drivers/STM32F7xx_HAL_Driver/Src/stm32f7xx_hal_tim_ex.c ****   */
2179:Drivers/STM32F7xx_HAL_Driver/Src/stm32f7xx_hal_tim_ex.c **** HAL_StatusTypeDef HAL_TIMEx_RemapConfig(TIM_HandleTypeDef *htim, uint32_t Remap)
2180:Drivers/STM32F7xx_HAL_Driver/Src/stm32f7xx_hal_tim_ex.c **** {
 6376              		.loc 1 2180 1
 6377              		.cfi_startproc
 6378              		@ args = 0, pretend = 0, frame = 8
 6379              		@ frame_needed = 1, uses_anonymous_args = 0
 6380              		@ link register save eliminated.
 6381 0000 80B4     		push	{r7}
 6382              	.LCFI168:
 6383              		.cfi_def_cfa_offset 4
 6384              		.cfi_offset 7, -4
 6385 0002 83B0     		sub	sp, sp, #12
 6386              	.LCFI169:
 6387              		.cfi_def_cfa_offset 16
 6388 0004 00AF     		add	r7, sp, #0
 6389              	.LCFI170:
 6390              		.cfi_def_cfa_register 7
 6391 0006 7860     		str	r0, [r7, #4]
 6392 0008 3960     		str	r1, [r7]
2181:Drivers/STM32F7xx_HAL_Driver/Src/stm32f7xx_hal_tim_ex.c ****   __HAL_LOCK(htim);
 6393              		.loc 1 2181 3
 6394 000a 7B68     		ldr	r3, [r7, #4]
 6395 000c 93F83C30 		ldrb	r3, [r3, #60]	@ zero_extendqisi2
 6396 0010 012B     		cmp	r3, #1
 6397 0012 01D1     		bne	.L396
 6398              		.loc 1 2181 3 is_stmt 0 discriminator 1
 6399 0014 0223     		movs	r3, #2
 6400 0016 10E0     		b	.L397
 6401              	.L396:
 6402              		.loc 1 2181 3 discriminator 2
 6403 0018 7B68     		ldr	r3, [r7, #4]
 6404 001a 0122     		movs	r2, #1
 6405 001c 83F83C20 		strb	r2, [r3, #60]
2182:Drivers/STM32F7xx_HAL_Driver/Src/stm32f7xx_hal_tim_ex.c **** 
2183:Drivers/STM32F7xx_HAL_Driver/Src/stm32f7xx_hal_tim_ex.c ****   /* Check parameters */
2184:Drivers/STM32F7xx_HAL_Driver/Src/stm32f7xx_hal_tim_ex.c ****   assert_param(IS_TIM_REMAP_INSTANCE(htim->Instance));
2185:Drivers/STM32F7xx_HAL_Driver/Src/stm32f7xx_hal_tim_ex.c ****   assert_param(IS_TIM_REMAP(Remap));
2186:Drivers/STM32F7xx_HAL_Driver/Src/stm32f7xx_hal_tim_ex.c **** 
2187:Drivers/STM32F7xx_HAL_Driver/Src/stm32f7xx_hal_tim_ex.c ****   /* Set the Timer remapping configuration */
2188:Drivers/STM32F7xx_HAL_Driver/Src/stm32f7xx_hal_tim_ex.c ****   htim->Instance->OR = Remap;
 6406              		.loc 1 2188 7 is_stmt 1 discriminator 2
 6407 0020 7B68     		ldr	r3, [r7, #4]
 6408 0022 1B68     		ldr	r3, [r3]
 6409              		.loc 1 2188 22 discriminator 2
 6410 0024 3A68     		ldr	r2, [r7]
 6411 0026 1A65     		str	r2, [r3, #80]
2189:Drivers/STM32F7xx_HAL_Driver/Src/stm32f7xx_hal_tim_ex.c **** 
2190:Drivers/STM32F7xx_HAL_Driver/Src/stm32f7xx_hal_tim_ex.c ****   htim->State = HAL_TIM_STATE_READY;
 6412              		.loc 1 2190 15 discriminator 2
ARM GAS  /tmp/ccOFTjtU.s 			page 154


 6413 0028 7B68     		ldr	r3, [r7, #4]
 6414 002a 0122     		movs	r2, #1
 6415 002c 83F83D20 		strb	r2, [r3, #61]
2191:Drivers/STM32F7xx_HAL_Driver/Src/stm32f7xx_hal_tim_ex.c **** 
2192:Drivers/STM32F7xx_HAL_Driver/Src/stm32f7xx_hal_tim_ex.c ****   __HAL_UNLOCK(htim);
 6416              		.loc 1 2192 3 discriminator 2
 6417 0030 7B68     		ldr	r3, [r7, #4]
 6418 0032 0022     		movs	r2, #0
 6419 0034 83F83C20 		strb	r2, [r3, #60]
2193:Drivers/STM32F7xx_HAL_Driver/Src/stm32f7xx_hal_tim_ex.c **** 
2194:Drivers/STM32F7xx_HAL_Driver/Src/stm32f7xx_hal_tim_ex.c ****   return HAL_OK;
 6420              		.loc 1 2194 10 discriminator 2
 6421 0038 0023     		movs	r3, #0
 6422              	.L397:
2195:Drivers/STM32F7xx_HAL_Driver/Src/stm32f7xx_hal_tim_ex.c **** }
 6423              		.loc 1 2195 1
 6424 003a 1846     		mov	r0, r3
 6425 003c 0C37     		adds	r7, r7, #12
 6426              	.LCFI171:
 6427              		.cfi_def_cfa_offset 4
 6428 003e BD46     		mov	sp, r7
 6429              	.LCFI172:
 6430              		.cfi_def_cfa_register 13
 6431              		@ sp needed
 6432 0040 5DF8047B 		ldr	r7, [sp], #4
 6433              	.LCFI173:
 6434              		.cfi_restore 7
 6435              		.cfi_def_cfa_offset 0
 6436 0044 7047     		bx	lr
 6437              		.cfi_endproc
 6438              	.LFE173:
 6440              		.section	.text.HAL_TIMEx_GroupChannel5,"ax",%progbits
 6441              		.align	1
 6442              		.global	HAL_TIMEx_GroupChannel5
 6443              		.syntax unified
 6444              		.thumb
 6445              		.thumb_func
 6446              		.fpu fpv5-d16
 6448              	HAL_TIMEx_GroupChannel5:
 6449              	.LFB174:
2196:Drivers/STM32F7xx_HAL_Driver/Src/stm32f7xx_hal_tim_ex.c **** 
2197:Drivers/STM32F7xx_HAL_Driver/Src/stm32f7xx_hal_tim_ex.c **** /**
2198:Drivers/STM32F7xx_HAL_Driver/Src/stm32f7xx_hal_tim_ex.c ****   * @brief  Group channel 5 and channel 1, 2 or 3
2199:Drivers/STM32F7xx_HAL_Driver/Src/stm32f7xx_hal_tim_ex.c ****   * @param  htim TIM handle.
2200:Drivers/STM32F7xx_HAL_Driver/Src/stm32f7xx_hal_tim_ex.c ****   * @param  Channels specifies the reference signal(s) the OC5REF is combined with.
2201:Drivers/STM32F7xx_HAL_Driver/Src/stm32f7xx_hal_tim_ex.c ****   *         This parameter can be any combination of the following values:
2202:Drivers/STM32F7xx_HAL_Driver/Src/stm32f7xx_hal_tim_ex.c ****   *         TIM_GROUPCH5_NONE: No effect of OC5REF on OC1REFC, OC2REFC and OC3REFC
2203:Drivers/STM32F7xx_HAL_Driver/Src/stm32f7xx_hal_tim_ex.c ****   *         TIM_GROUPCH5_OC1REFC: OC1REFC is the logical AND of OC1REFC and OC5REF
2204:Drivers/STM32F7xx_HAL_Driver/Src/stm32f7xx_hal_tim_ex.c ****   *         TIM_GROUPCH5_OC2REFC: OC2REFC is the logical AND of OC2REFC and OC5REF
2205:Drivers/STM32F7xx_HAL_Driver/Src/stm32f7xx_hal_tim_ex.c ****   *         TIM_GROUPCH5_OC3REFC: OC3REFC is the logical AND of OC3REFC and OC5REF
2206:Drivers/STM32F7xx_HAL_Driver/Src/stm32f7xx_hal_tim_ex.c ****   * @retval HAL status
2207:Drivers/STM32F7xx_HAL_Driver/Src/stm32f7xx_hal_tim_ex.c ****   */
2208:Drivers/STM32F7xx_HAL_Driver/Src/stm32f7xx_hal_tim_ex.c **** HAL_StatusTypeDef HAL_TIMEx_GroupChannel5(TIM_HandleTypeDef *htim, uint32_t Channels)
2209:Drivers/STM32F7xx_HAL_Driver/Src/stm32f7xx_hal_tim_ex.c **** {
 6450              		.loc 1 2209 1
 6451              		.cfi_startproc
 6452              		@ args = 0, pretend = 0, frame = 8
ARM GAS  /tmp/ccOFTjtU.s 			page 155


 6453              		@ frame_needed = 1, uses_anonymous_args = 0
 6454              		@ link register save eliminated.
 6455 0000 80B4     		push	{r7}
 6456              	.LCFI174:
 6457              		.cfi_def_cfa_offset 4
 6458              		.cfi_offset 7, -4
 6459 0002 83B0     		sub	sp, sp, #12
 6460              	.LCFI175:
 6461              		.cfi_def_cfa_offset 16
 6462 0004 00AF     		add	r7, sp, #0
 6463              	.LCFI176:
 6464              		.cfi_def_cfa_register 7
 6465 0006 7860     		str	r0, [r7, #4]
 6466 0008 3960     		str	r1, [r7]
2210:Drivers/STM32F7xx_HAL_Driver/Src/stm32f7xx_hal_tim_ex.c ****   /* Check parameters */
2211:Drivers/STM32F7xx_HAL_Driver/Src/stm32f7xx_hal_tim_ex.c ****   assert_param(IS_TIM_COMBINED3PHASEPWM_INSTANCE(htim->Instance));
2212:Drivers/STM32F7xx_HAL_Driver/Src/stm32f7xx_hal_tim_ex.c ****   assert_param(IS_TIM_GROUPCH5(Channels));
2213:Drivers/STM32F7xx_HAL_Driver/Src/stm32f7xx_hal_tim_ex.c **** 
2214:Drivers/STM32F7xx_HAL_Driver/Src/stm32f7xx_hal_tim_ex.c ****   /* Process Locked */
2215:Drivers/STM32F7xx_HAL_Driver/Src/stm32f7xx_hal_tim_ex.c ****   __HAL_LOCK(htim);
 6467              		.loc 1 2215 3
 6468 000a 7B68     		ldr	r3, [r7, #4]
 6469 000c 93F83C30 		ldrb	r3, [r3, #60]	@ zero_extendqisi2
 6470 0010 012B     		cmp	r3, #1
 6471 0012 01D1     		bne	.L399
 6472              		.loc 1 2215 3 is_stmt 0 discriminator 1
 6473 0014 0223     		movs	r3, #2
 6474 0016 20E0     		b	.L400
 6475              	.L399:
 6476              		.loc 1 2215 3 discriminator 2
 6477 0018 7B68     		ldr	r3, [r7, #4]
 6478 001a 0122     		movs	r2, #1
 6479 001c 83F83C20 		strb	r2, [r3, #60]
2216:Drivers/STM32F7xx_HAL_Driver/Src/stm32f7xx_hal_tim_ex.c **** 
2217:Drivers/STM32F7xx_HAL_Driver/Src/stm32f7xx_hal_tim_ex.c ****   htim->State = HAL_TIM_STATE_BUSY;
 6480              		.loc 1 2217 15 is_stmt 1 discriminator 2
 6481 0020 7B68     		ldr	r3, [r7, #4]
 6482 0022 0222     		movs	r2, #2
 6483 0024 83F83D20 		strb	r2, [r3, #61]
2218:Drivers/STM32F7xx_HAL_Driver/Src/stm32f7xx_hal_tim_ex.c **** 
2219:Drivers/STM32F7xx_HAL_Driver/Src/stm32f7xx_hal_tim_ex.c ****   /* Clear GC5Cx bit fields */
2220:Drivers/STM32F7xx_HAL_Driver/Src/stm32f7xx_hal_tim_ex.c ****   htim->Instance->CCR5 &= ~(TIM_CCR5_GC5C3 | TIM_CCR5_GC5C2 | TIM_CCR5_GC5C1);
 6484              		.loc 1 2220 7 discriminator 2
 6485 0028 7B68     		ldr	r3, [r7, #4]
 6486 002a 1B68     		ldr	r3, [r3]
 6487              		.loc 1 2220 24 discriminator 2
 6488 002c 9A6D     		ldr	r2, [r3, #88]
 6489              		.loc 1 2220 7 discriminator 2
 6490 002e 7B68     		ldr	r3, [r7, #4]
 6491 0030 1B68     		ldr	r3, [r3]
 6492              		.loc 1 2220 24 discriminator 2
 6493 0032 22F06042 		bic	r2, r2, #-536870912
 6494 0036 9A65     		str	r2, [r3, #88]
2221:Drivers/STM32F7xx_HAL_Driver/Src/stm32f7xx_hal_tim_ex.c **** 
2222:Drivers/STM32F7xx_HAL_Driver/Src/stm32f7xx_hal_tim_ex.c ****   /* Set GC5Cx bit fields */
2223:Drivers/STM32F7xx_HAL_Driver/Src/stm32f7xx_hal_tim_ex.c ****   htim->Instance->CCR5 |= Channels;
 6495              		.loc 1 2223 7 discriminator 2
ARM GAS  /tmp/ccOFTjtU.s 			page 156


 6496 0038 7B68     		ldr	r3, [r7, #4]
 6497 003a 1B68     		ldr	r3, [r3]
 6498              		.loc 1 2223 24 discriminator 2
 6499 003c 996D     		ldr	r1, [r3, #88]
 6500              		.loc 1 2223 7 discriminator 2
 6501 003e 7B68     		ldr	r3, [r7, #4]
 6502 0040 1B68     		ldr	r3, [r3]
 6503              		.loc 1 2223 24 discriminator 2
 6504 0042 3A68     		ldr	r2, [r7]
 6505 0044 0A43     		orrs	r2, r2, r1
 6506 0046 9A65     		str	r2, [r3, #88]
2224:Drivers/STM32F7xx_HAL_Driver/Src/stm32f7xx_hal_tim_ex.c **** 
2225:Drivers/STM32F7xx_HAL_Driver/Src/stm32f7xx_hal_tim_ex.c ****   /* Change the htim state */
2226:Drivers/STM32F7xx_HAL_Driver/Src/stm32f7xx_hal_tim_ex.c ****   htim->State = HAL_TIM_STATE_READY;
 6507              		.loc 1 2226 15 discriminator 2
 6508 0048 7B68     		ldr	r3, [r7, #4]
 6509 004a 0122     		movs	r2, #1
 6510 004c 83F83D20 		strb	r2, [r3, #61]
2227:Drivers/STM32F7xx_HAL_Driver/Src/stm32f7xx_hal_tim_ex.c **** 
2228:Drivers/STM32F7xx_HAL_Driver/Src/stm32f7xx_hal_tim_ex.c ****   __HAL_UNLOCK(htim);
 6511              		.loc 1 2228 3 discriminator 2
 6512 0050 7B68     		ldr	r3, [r7, #4]
 6513 0052 0022     		movs	r2, #0
 6514 0054 83F83C20 		strb	r2, [r3, #60]
2229:Drivers/STM32F7xx_HAL_Driver/Src/stm32f7xx_hal_tim_ex.c **** 
2230:Drivers/STM32F7xx_HAL_Driver/Src/stm32f7xx_hal_tim_ex.c ****   return HAL_OK;
 6515              		.loc 1 2230 10 discriminator 2
 6516 0058 0023     		movs	r3, #0
 6517              	.L400:
2231:Drivers/STM32F7xx_HAL_Driver/Src/stm32f7xx_hal_tim_ex.c **** }
 6518              		.loc 1 2231 1
 6519 005a 1846     		mov	r0, r3
 6520 005c 0C37     		adds	r7, r7, #12
 6521              	.LCFI177:
 6522              		.cfi_def_cfa_offset 4
 6523 005e BD46     		mov	sp, r7
 6524              	.LCFI178:
 6525              		.cfi_def_cfa_register 13
 6526              		@ sp needed
 6527 0060 5DF8047B 		ldr	r7, [sp], #4
 6528              	.LCFI179:
 6529              		.cfi_restore 7
 6530              		.cfi_def_cfa_offset 0
 6531 0064 7047     		bx	lr
 6532              		.cfi_endproc
 6533              	.LFE174:
 6535              		.section	.text.HAL_TIMEx_CommutCallback,"ax",%progbits
 6536              		.align	1
 6537              		.weak	HAL_TIMEx_CommutCallback
 6538              		.syntax unified
 6539              		.thumb
 6540              		.thumb_func
 6541              		.fpu fpv5-d16
 6543              	HAL_TIMEx_CommutCallback:
 6544              	.LFB175:
2232:Drivers/STM32F7xx_HAL_Driver/Src/stm32f7xx_hal_tim_ex.c **** 
2233:Drivers/STM32F7xx_HAL_Driver/Src/stm32f7xx_hal_tim_ex.c **** /**
ARM GAS  /tmp/ccOFTjtU.s 			page 157


2234:Drivers/STM32F7xx_HAL_Driver/Src/stm32f7xx_hal_tim_ex.c ****   * @}
2235:Drivers/STM32F7xx_HAL_Driver/Src/stm32f7xx_hal_tim_ex.c ****   */
2236:Drivers/STM32F7xx_HAL_Driver/Src/stm32f7xx_hal_tim_ex.c **** 
2237:Drivers/STM32F7xx_HAL_Driver/Src/stm32f7xx_hal_tim_ex.c **** /** @defgroup TIMEx_Exported_Functions_Group6 Extended Callbacks functions
2238:Drivers/STM32F7xx_HAL_Driver/Src/stm32f7xx_hal_tim_ex.c ****   * @brief    Extended Callbacks functions
2239:Drivers/STM32F7xx_HAL_Driver/Src/stm32f7xx_hal_tim_ex.c ****   *
2240:Drivers/STM32F7xx_HAL_Driver/Src/stm32f7xx_hal_tim_ex.c **** @verbatim
2241:Drivers/STM32F7xx_HAL_Driver/Src/stm32f7xx_hal_tim_ex.c ****   ==============================================================================
2242:Drivers/STM32F7xx_HAL_Driver/Src/stm32f7xx_hal_tim_ex.c ****                     ##### Extended Callbacks functions #####
2243:Drivers/STM32F7xx_HAL_Driver/Src/stm32f7xx_hal_tim_ex.c ****   ==============================================================================
2244:Drivers/STM32F7xx_HAL_Driver/Src/stm32f7xx_hal_tim_ex.c ****   [..]
2245:Drivers/STM32F7xx_HAL_Driver/Src/stm32f7xx_hal_tim_ex.c ****     This section provides Extended TIM callback functions:
2246:Drivers/STM32F7xx_HAL_Driver/Src/stm32f7xx_hal_tim_ex.c ****     (+) Timer Commutation callback
2247:Drivers/STM32F7xx_HAL_Driver/Src/stm32f7xx_hal_tim_ex.c ****     (+) Timer Break callback
2248:Drivers/STM32F7xx_HAL_Driver/Src/stm32f7xx_hal_tim_ex.c **** 
2249:Drivers/STM32F7xx_HAL_Driver/Src/stm32f7xx_hal_tim_ex.c **** @endverbatim
2250:Drivers/STM32F7xx_HAL_Driver/Src/stm32f7xx_hal_tim_ex.c ****   * @{
2251:Drivers/STM32F7xx_HAL_Driver/Src/stm32f7xx_hal_tim_ex.c ****   */
2252:Drivers/STM32F7xx_HAL_Driver/Src/stm32f7xx_hal_tim_ex.c **** 
2253:Drivers/STM32F7xx_HAL_Driver/Src/stm32f7xx_hal_tim_ex.c **** /**
2254:Drivers/STM32F7xx_HAL_Driver/Src/stm32f7xx_hal_tim_ex.c ****   * @brief  Hall commutation changed callback in non-blocking mode
2255:Drivers/STM32F7xx_HAL_Driver/Src/stm32f7xx_hal_tim_ex.c ****   * @param  htim TIM handle
2256:Drivers/STM32F7xx_HAL_Driver/Src/stm32f7xx_hal_tim_ex.c ****   * @retval None
2257:Drivers/STM32F7xx_HAL_Driver/Src/stm32f7xx_hal_tim_ex.c ****   */
2258:Drivers/STM32F7xx_HAL_Driver/Src/stm32f7xx_hal_tim_ex.c **** __weak void HAL_TIMEx_CommutCallback(TIM_HandleTypeDef *htim)
2259:Drivers/STM32F7xx_HAL_Driver/Src/stm32f7xx_hal_tim_ex.c **** {
 6545              		.loc 1 2259 1
 6546              		.cfi_startproc
 6547              		@ args = 0, pretend = 0, frame = 8
 6548              		@ frame_needed = 1, uses_anonymous_args = 0
 6549              		@ link register save eliminated.
 6550 0000 80B4     		push	{r7}
 6551              	.LCFI180:
 6552              		.cfi_def_cfa_offset 4
 6553              		.cfi_offset 7, -4
 6554 0002 83B0     		sub	sp, sp, #12
 6555              	.LCFI181:
 6556              		.cfi_def_cfa_offset 16
 6557 0004 00AF     		add	r7, sp, #0
 6558              	.LCFI182:
 6559              		.cfi_def_cfa_register 7
 6560 0006 7860     		str	r0, [r7, #4]
2260:Drivers/STM32F7xx_HAL_Driver/Src/stm32f7xx_hal_tim_ex.c ****   /* Prevent unused argument(s) compilation warning */
2261:Drivers/STM32F7xx_HAL_Driver/Src/stm32f7xx_hal_tim_ex.c ****   UNUSED(htim);
2262:Drivers/STM32F7xx_HAL_Driver/Src/stm32f7xx_hal_tim_ex.c **** 
2263:Drivers/STM32F7xx_HAL_Driver/Src/stm32f7xx_hal_tim_ex.c ****   /* NOTE : This function should not be modified, when the callback is needed,
2264:Drivers/STM32F7xx_HAL_Driver/Src/stm32f7xx_hal_tim_ex.c ****             the HAL_TIMEx_CommutCallback could be implemented in the user file
2265:Drivers/STM32F7xx_HAL_Driver/Src/stm32f7xx_hal_tim_ex.c ****    */
2266:Drivers/STM32F7xx_HAL_Driver/Src/stm32f7xx_hal_tim_ex.c **** }
 6561              		.loc 1 2266 1
 6562 0008 00BF     		nop
 6563 000a 0C37     		adds	r7, r7, #12
 6564              	.LCFI183:
 6565              		.cfi_def_cfa_offset 4
 6566 000c BD46     		mov	sp, r7
 6567              	.LCFI184:
 6568              		.cfi_def_cfa_register 13
ARM GAS  /tmp/ccOFTjtU.s 			page 158


 6569              		@ sp needed
 6570 000e 5DF8047B 		ldr	r7, [sp], #4
 6571              	.LCFI185:
 6572              		.cfi_restore 7
 6573              		.cfi_def_cfa_offset 0
 6574 0012 7047     		bx	lr
 6575              		.cfi_endproc
 6576              	.LFE175:
 6578              		.section	.text.HAL_TIMEx_CommutHalfCpltCallback,"ax",%progbits
 6579              		.align	1
 6580              		.weak	HAL_TIMEx_CommutHalfCpltCallback
 6581              		.syntax unified
 6582              		.thumb
 6583              		.thumb_func
 6584              		.fpu fpv5-d16
 6586              	HAL_TIMEx_CommutHalfCpltCallback:
 6587              	.LFB176:
2267:Drivers/STM32F7xx_HAL_Driver/Src/stm32f7xx_hal_tim_ex.c **** /**
2268:Drivers/STM32F7xx_HAL_Driver/Src/stm32f7xx_hal_tim_ex.c ****   * @brief  Hall commutation changed half complete callback in non-blocking mode
2269:Drivers/STM32F7xx_HAL_Driver/Src/stm32f7xx_hal_tim_ex.c ****   * @param  htim TIM handle
2270:Drivers/STM32F7xx_HAL_Driver/Src/stm32f7xx_hal_tim_ex.c ****   * @retval None
2271:Drivers/STM32F7xx_HAL_Driver/Src/stm32f7xx_hal_tim_ex.c ****   */
2272:Drivers/STM32F7xx_HAL_Driver/Src/stm32f7xx_hal_tim_ex.c **** __weak void HAL_TIMEx_CommutHalfCpltCallback(TIM_HandleTypeDef *htim)
2273:Drivers/STM32F7xx_HAL_Driver/Src/stm32f7xx_hal_tim_ex.c **** {
 6588              		.loc 1 2273 1
 6589              		.cfi_startproc
 6590              		@ args = 0, pretend = 0, frame = 8
 6591              		@ frame_needed = 1, uses_anonymous_args = 0
 6592              		@ link register save eliminated.
 6593 0000 80B4     		push	{r7}
 6594              	.LCFI186:
 6595              		.cfi_def_cfa_offset 4
 6596              		.cfi_offset 7, -4
 6597 0002 83B0     		sub	sp, sp, #12
 6598              	.LCFI187:
 6599              		.cfi_def_cfa_offset 16
 6600 0004 00AF     		add	r7, sp, #0
 6601              	.LCFI188:
 6602              		.cfi_def_cfa_register 7
 6603 0006 7860     		str	r0, [r7, #4]
2274:Drivers/STM32F7xx_HAL_Driver/Src/stm32f7xx_hal_tim_ex.c ****   /* Prevent unused argument(s) compilation warning */
2275:Drivers/STM32F7xx_HAL_Driver/Src/stm32f7xx_hal_tim_ex.c ****   UNUSED(htim);
2276:Drivers/STM32F7xx_HAL_Driver/Src/stm32f7xx_hal_tim_ex.c **** 
2277:Drivers/STM32F7xx_HAL_Driver/Src/stm32f7xx_hal_tim_ex.c ****   /* NOTE : This function should not be modified, when the callback is needed,
2278:Drivers/STM32F7xx_HAL_Driver/Src/stm32f7xx_hal_tim_ex.c ****             the HAL_TIMEx_CommutHalfCpltCallback could be implemented in the user file
2279:Drivers/STM32F7xx_HAL_Driver/Src/stm32f7xx_hal_tim_ex.c ****    */
2280:Drivers/STM32F7xx_HAL_Driver/Src/stm32f7xx_hal_tim_ex.c **** }
 6604              		.loc 1 2280 1
 6605 0008 00BF     		nop
 6606 000a 0C37     		adds	r7, r7, #12
 6607              	.LCFI189:
 6608              		.cfi_def_cfa_offset 4
 6609 000c BD46     		mov	sp, r7
 6610              	.LCFI190:
 6611              		.cfi_def_cfa_register 13
 6612              		@ sp needed
 6613 000e 5DF8047B 		ldr	r7, [sp], #4
ARM GAS  /tmp/ccOFTjtU.s 			page 159


 6614              	.LCFI191:
 6615              		.cfi_restore 7
 6616              		.cfi_def_cfa_offset 0
 6617 0012 7047     		bx	lr
 6618              		.cfi_endproc
 6619              	.LFE176:
 6621              		.section	.text.HAL_TIMEx_BreakCallback,"ax",%progbits
 6622              		.align	1
 6623              		.weak	HAL_TIMEx_BreakCallback
 6624              		.syntax unified
 6625              		.thumb
 6626              		.thumb_func
 6627              		.fpu fpv5-d16
 6629              	HAL_TIMEx_BreakCallback:
 6630              	.LFB177:
2281:Drivers/STM32F7xx_HAL_Driver/Src/stm32f7xx_hal_tim_ex.c **** 
2282:Drivers/STM32F7xx_HAL_Driver/Src/stm32f7xx_hal_tim_ex.c **** /**
2283:Drivers/STM32F7xx_HAL_Driver/Src/stm32f7xx_hal_tim_ex.c ****   * @brief  Hall Break detection callback in non-blocking mode
2284:Drivers/STM32F7xx_HAL_Driver/Src/stm32f7xx_hal_tim_ex.c ****   * @param  htim TIM handle
2285:Drivers/STM32F7xx_HAL_Driver/Src/stm32f7xx_hal_tim_ex.c ****   * @retval None
2286:Drivers/STM32F7xx_HAL_Driver/Src/stm32f7xx_hal_tim_ex.c ****   */
2287:Drivers/STM32F7xx_HAL_Driver/Src/stm32f7xx_hal_tim_ex.c **** __weak void HAL_TIMEx_BreakCallback(TIM_HandleTypeDef *htim)
2288:Drivers/STM32F7xx_HAL_Driver/Src/stm32f7xx_hal_tim_ex.c **** {
 6631              		.loc 1 2288 1
 6632              		.cfi_startproc
 6633              		@ args = 0, pretend = 0, frame = 8
 6634              		@ frame_needed = 1, uses_anonymous_args = 0
 6635              		@ link register save eliminated.
 6636 0000 80B4     		push	{r7}
 6637              	.LCFI192:
 6638              		.cfi_def_cfa_offset 4
 6639              		.cfi_offset 7, -4
 6640 0002 83B0     		sub	sp, sp, #12
 6641              	.LCFI193:
 6642              		.cfi_def_cfa_offset 16
 6643 0004 00AF     		add	r7, sp, #0
 6644              	.LCFI194:
 6645              		.cfi_def_cfa_register 7
 6646 0006 7860     		str	r0, [r7, #4]
2289:Drivers/STM32F7xx_HAL_Driver/Src/stm32f7xx_hal_tim_ex.c ****   /* Prevent unused argument(s) compilation warning */
2290:Drivers/STM32F7xx_HAL_Driver/Src/stm32f7xx_hal_tim_ex.c ****   UNUSED(htim);
2291:Drivers/STM32F7xx_HAL_Driver/Src/stm32f7xx_hal_tim_ex.c **** 
2292:Drivers/STM32F7xx_HAL_Driver/Src/stm32f7xx_hal_tim_ex.c ****   /* NOTE : This function should not be modified, when the callback is needed,
2293:Drivers/STM32F7xx_HAL_Driver/Src/stm32f7xx_hal_tim_ex.c ****             the HAL_TIMEx_BreakCallback could be implemented in the user file
2294:Drivers/STM32F7xx_HAL_Driver/Src/stm32f7xx_hal_tim_ex.c ****    */
2295:Drivers/STM32F7xx_HAL_Driver/Src/stm32f7xx_hal_tim_ex.c **** }
 6647              		.loc 1 2295 1
 6648 0008 00BF     		nop
 6649 000a 0C37     		adds	r7, r7, #12
 6650              	.LCFI195:
 6651              		.cfi_def_cfa_offset 4
 6652 000c BD46     		mov	sp, r7
 6653              	.LCFI196:
 6654              		.cfi_def_cfa_register 13
 6655              		@ sp needed
 6656 000e 5DF8047B 		ldr	r7, [sp], #4
 6657              	.LCFI197:
ARM GAS  /tmp/ccOFTjtU.s 			page 160


 6658              		.cfi_restore 7
 6659              		.cfi_def_cfa_offset 0
 6660 0012 7047     		bx	lr
 6661              		.cfi_endproc
 6662              	.LFE177:
 6664              		.section	.text.HAL_TIMEx_Break2Callback,"ax",%progbits
 6665              		.align	1
 6666              		.weak	HAL_TIMEx_Break2Callback
 6667              		.syntax unified
 6668              		.thumb
 6669              		.thumb_func
 6670              		.fpu fpv5-d16
 6672              	HAL_TIMEx_Break2Callback:
 6673              	.LFB178:
2296:Drivers/STM32F7xx_HAL_Driver/Src/stm32f7xx_hal_tim_ex.c **** 
2297:Drivers/STM32F7xx_HAL_Driver/Src/stm32f7xx_hal_tim_ex.c **** /**
2298:Drivers/STM32F7xx_HAL_Driver/Src/stm32f7xx_hal_tim_ex.c ****   * @brief  Hall Break2 detection callback in non blocking mode
2299:Drivers/STM32F7xx_HAL_Driver/Src/stm32f7xx_hal_tim_ex.c ****   * @param  htim: TIM handle
2300:Drivers/STM32F7xx_HAL_Driver/Src/stm32f7xx_hal_tim_ex.c ****   * @retval None
2301:Drivers/STM32F7xx_HAL_Driver/Src/stm32f7xx_hal_tim_ex.c ****   */
2302:Drivers/STM32F7xx_HAL_Driver/Src/stm32f7xx_hal_tim_ex.c **** __weak void HAL_TIMEx_Break2Callback(TIM_HandleTypeDef *htim)
2303:Drivers/STM32F7xx_HAL_Driver/Src/stm32f7xx_hal_tim_ex.c **** {
 6674              		.loc 1 2303 1
 6675              		.cfi_startproc
 6676              		@ args = 0, pretend = 0, frame = 8
 6677              		@ frame_needed = 1, uses_anonymous_args = 0
 6678              		@ link register save eliminated.
 6679 0000 80B4     		push	{r7}
 6680              	.LCFI198:
 6681              		.cfi_def_cfa_offset 4
 6682              		.cfi_offset 7, -4
 6683 0002 83B0     		sub	sp, sp, #12
 6684              	.LCFI199:
 6685              		.cfi_def_cfa_offset 16
 6686 0004 00AF     		add	r7, sp, #0
 6687              	.LCFI200:
 6688              		.cfi_def_cfa_register 7
 6689 0006 7860     		str	r0, [r7, #4]
2304:Drivers/STM32F7xx_HAL_Driver/Src/stm32f7xx_hal_tim_ex.c ****   /* Prevent unused argument(s) compilation warning */
2305:Drivers/STM32F7xx_HAL_Driver/Src/stm32f7xx_hal_tim_ex.c ****   UNUSED(htim);
2306:Drivers/STM32F7xx_HAL_Driver/Src/stm32f7xx_hal_tim_ex.c **** 
2307:Drivers/STM32F7xx_HAL_Driver/Src/stm32f7xx_hal_tim_ex.c ****   /* NOTE : This function Should not be modified, when the callback is needed,
2308:Drivers/STM32F7xx_HAL_Driver/Src/stm32f7xx_hal_tim_ex.c ****             the HAL_TIMEx_Break2Callback could be implemented in the user file
2309:Drivers/STM32F7xx_HAL_Driver/Src/stm32f7xx_hal_tim_ex.c ****    */
2310:Drivers/STM32F7xx_HAL_Driver/Src/stm32f7xx_hal_tim_ex.c **** }
 6690              		.loc 1 2310 1
 6691 0008 00BF     		nop
 6692 000a 0C37     		adds	r7, r7, #12
 6693              	.LCFI201:
 6694              		.cfi_def_cfa_offset 4
 6695 000c BD46     		mov	sp, r7
 6696              	.LCFI202:
 6697              		.cfi_def_cfa_register 13
 6698              		@ sp needed
 6699 000e 5DF8047B 		ldr	r7, [sp], #4
 6700              	.LCFI203:
 6701              		.cfi_restore 7
ARM GAS  /tmp/ccOFTjtU.s 			page 161


 6702              		.cfi_def_cfa_offset 0
 6703 0012 7047     		bx	lr
 6704              		.cfi_endproc
 6705              	.LFE178:
 6707              		.section	.text.HAL_TIMEx_HallSensor_GetState,"ax",%progbits
 6708              		.align	1
 6709              		.global	HAL_TIMEx_HallSensor_GetState
 6710              		.syntax unified
 6711              		.thumb
 6712              		.thumb_func
 6713              		.fpu fpv5-d16
 6715              	HAL_TIMEx_HallSensor_GetState:
 6716              	.LFB179:
2311:Drivers/STM32F7xx_HAL_Driver/Src/stm32f7xx_hal_tim_ex.c **** /**
2312:Drivers/STM32F7xx_HAL_Driver/Src/stm32f7xx_hal_tim_ex.c ****   * @}
2313:Drivers/STM32F7xx_HAL_Driver/Src/stm32f7xx_hal_tim_ex.c ****   */
2314:Drivers/STM32F7xx_HAL_Driver/Src/stm32f7xx_hal_tim_ex.c **** 
2315:Drivers/STM32F7xx_HAL_Driver/Src/stm32f7xx_hal_tim_ex.c **** /** @defgroup TIMEx_Exported_Functions_Group7 Extended Peripheral State functions
2316:Drivers/STM32F7xx_HAL_Driver/Src/stm32f7xx_hal_tim_ex.c ****   * @brief    Extended Peripheral State functions
2317:Drivers/STM32F7xx_HAL_Driver/Src/stm32f7xx_hal_tim_ex.c ****   *
2318:Drivers/STM32F7xx_HAL_Driver/Src/stm32f7xx_hal_tim_ex.c **** @verbatim
2319:Drivers/STM32F7xx_HAL_Driver/Src/stm32f7xx_hal_tim_ex.c ****   ==============================================================================
2320:Drivers/STM32F7xx_HAL_Driver/Src/stm32f7xx_hal_tim_ex.c ****                 ##### Extended Peripheral State functions #####
2321:Drivers/STM32F7xx_HAL_Driver/Src/stm32f7xx_hal_tim_ex.c ****   ==============================================================================
2322:Drivers/STM32F7xx_HAL_Driver/Src/stm32f7xx_hal_tim_ex.c ****   [..]
2323:Drivers/STM32F7xx_HAL_Driver/Src/stm32f7xx_hal_tim_ex.c ****     This subsection permits to get in run-time the status of the peripheral
2324:Drivers/STM32F7xx_HAL_Driver/Src/stm32f7xx_hal_tim_ex.c ****     and the data flow.
2325:Drivers/STM32F7xx_HAL_Driver/Src/stm32f7xx_hal_tim_ex.c **** 
2326:Drivers/STM32F7xx_HAL_Driver/Src/stm32f7xx_hal_tim_ex.c **** @endverbatim
2327:Drivers/STM32F7xx_HAL_Driver/Src/stm32f7xx_hal_tim_ex.c ****   * @{
2328:Drivers/STM32F7xx_HAL_Driver/Src/stm32f7xx_hal_tim_ex.c ****   */
2329:Drivers/STM32F7xx_HAL_Driver/Src/stm32f7xx_hal_tim_ex.c **** 
2330:Drivers/STM32F7xx_HAL_Driver/Src/stm32f7xx_hal_tim_ex.c **** /**
2331:Drivers/STM32F7xx_HAL_Driver/Src/stm32f7xx_hal_tim_ex.c ****   * @brief  Return the TIM Hall Sensor interface handle state.
2332:Drivers/STM32F7xx_HAL_Driver/Src/stm32f7xx_hal_tim_ex.c ****   * @param  htim TIM Hall Sensor handle
2333:Drivers/STM32F7xx_HAL_Driver/Src/stm32f7xx_hal_tim_ex.c ****   * @retval HAL state
2334:Drivers/STM32F7xx_HAL_Driver/Src/stm32f7xx_hal_tim_ex.c ****   */
2335:Drivers/STM32F7xx_HAL_Driver/Src/stm32f7xx_hal_tim_ex.c **** HAL_TIM_StateTypeDef HAL_TIMEx_HallSensor_GetState(TIM_HandleTypeDef *htim)
2336:Drivers/STM32F7xx_HAL_Driver/Src/stm32f7xx_hal_tim_ex.c **** {
 6717              		.loc 1 2336 1
 6718              		.cfi_startproc
 6719              		@ args = 0, pretend = 0, frame = 8
 6720              		@ frame_needed = 1, uses_anonymous_args = 0
 6721              		@ link register save eliminated.
 6722 0000 80B4     		push	{r7}
 6723              	.LCFI204:
 6724              		.cfi_def_cfa_offset 4
 6725              		.cfi_offset 7, -4
 6726 0002 83B0     		sub	sp, sp, #12
 6727              	.LCFI205:
 6728              		.cfi_def_cfa_offset 16
 6729 0004 00AF     		add	r7, sp, #0
 6730              	.LCFI206:
 6731              		.cfi_def_cfa_register 7
 6732 0006 7860     		str	r0, [r7, #4]
2337:Drivers/STM32F7xx_HAL_Driver/Src/stm32f7xx_hal_tim_ex.c ****   return htim->State;
 6733              		.loc 1 2337 14
ARM GAS  /tmp/ccOFTjtU.s 			page 162


 6734 0008 7B68     		ldr	r3, [r7, #4]
 6735 000a 93F83D30 		ldrb	r3, [r3, #61]
 6736 000e DBB2     		uxtb	r3, r3
2338:Drivers/STM32F7xx_HAL_Driver/Src/stm32f7xx_hal_tim_ex.c **** }
 6737              		.loc 1 2338 1
 6738 0010 1846     		mov	r0, r3
 6739 0012 0C37     		adds	r7, r7, #12
 6740              	.LCFI207:
 6741              		.cfi_def_cfa_offset 4
 6742 0014 BD46     		mov	sp, r7
 6743              	.LCFI208:
 6744              		.cfi_def_cfa_register 13
 6745              		@ sp needed
 6746 0016 5DF8047B 		ldr	r7, [sp], #4
 6747              	.LCFI209:
 6748              		.cfi_restore 7
 6749              		.cfi_def_cfa_offset 0
 6750 001a 7047     		bx	lr
 6751              		.cfi_endproc
 6752              	.LFE179:
 6754              		.section	.text.HAL_TIMEx_GetChannelNState,"ax",%progbits
 6755              		.align	1
 6756              		.global	HAL_TIMEx_GetChannelNState
 6757              		.syntax unified
 6758              		.thumb
 6759              		.thumb_func
 6760              		.fpu fpv5-d16
 6762              	HAL_TIMEx_GetChannelNState:
 6763              	.LFB180:
2339:Drivers/STM32F7xx_HAL_Driver/Src/stm32f7xx_hal_tim_ex.c **** 
2340:Drivers/STM32F7xx_HAL_Driver/Src/stm32f7xx_hal_tim_ex.c **** /**
2341:Drivers/STM32F7xx_HAL_Driver/Src/stm32f7xx_hal_tim_ex.c ****   * @brief  Return actual state of the TIM complementary channel.
2342:Drivers/STM32F7xx_HAL_Driver/Src/stm32f7xx_hal_tim_ex.c ****   * @param  htim TIM handle
2343:Drivers/STM32F7xx_HAL_Driver/Src/stm32f7xx_hal_tim_ex.c ****   * @param  ChannelN TIM Complementary channel
2344:Drivers/STM32F7xx_HAL_Driver/Src/stm32f7xx_hal_tim_ex.c ****   *          This parameter can be one of the following values:
2345:Drivers/STM32F7xx_HAL_Driver/Src/stm32f7xx_hal_tim_ex.c ****   *            @arg TIM_CHANNEL_1: TIM Channel 1
2346:Drivers/STM32F7xx_HAL_Driver/Src/stm32f7xx_hal_tim_ex.c ****   *            @arg TIM_CHANNEL_2: TIM Channel 2
2347:Drivers/STM32F7xx_HAL_Driver/Src/stm32f7xx_hal_tim_ex.c ****   *            @arg TIM_CHANNEL_3: TIM Channel 3
2348:Drivers/STM32F7xx_HAL_Driver/Src/stm32f7xx_hal_tim_ex.c ****   * @retval TIM Complementary channel state
2349:Drivers/STM32F7xx_HAL_Driver/Src/stm32f7xx_hal_tim_ex.c ****   */
2350:Drivers/STM32F7xx_HAL_Driver/Src/stm32f7xx_hal_tim_ex.c **** HAL_TIM_ChannelStateTypeDef HAL_TIMEx_GetChannelNState(TIM_HandleTypeDef *htim,  uint32_t ChannelN)
2351:Drivers/STM32F7xx_HAL_Driver/Src/stm32f7xx_hal_tim_ex.c **** {
 6764              		.loc 1 2351 1
 6765              		.cfi_startproc
 6766              		@ args = 0, pretend = 0, frame = 16
 6767              		@ frame_needed = 1, uses_anonymous_args = 0
 6768              		@ link register save eliminated.
 6769 0000 80B4     		push	{r7}
 6770              	.LCFI210:
 6771              		.cfi_def_cfa_offset 4
 6772              		.cfi_offset 7, -4
 6773 0002 85B0     		sub	sp, sp, #20
 6774              	.LCFI211:
 6775              		.cfi_def_cfa_offset 24
 6776 0004 00AF     		add	r7, sp, #0
 6777              	.LCFI212:
 6778              		.cfi_def_cfa_register 7
ARM GAS  /tmp/ccOFTjtU.s 			page 163


 6779 0006 7860     		str	r0, [r7, #4]
 6780 0008 3960     		str	r1, [r7]
2352:Drivers/STM32F7xx_HAL_Driver/Src/stm32f7xx_hal_tim_ex.c ****   HAL_TIM_ChannelStateTypeDef channel_state;
2353:Drivers/STM32F7xx_HAL_Driver/Src/stm32f7xx_hal_tim_ex.c **** 
2354:Drivers/STM32F7xx_HAL_Driver/Src/stm32f7xx_hal_tim_ex.c ****   /* Check the parameters */
2355:Drivers/STM32F7xx_HAL_Driver/Src/stm32f7xx_hal_tim_ex.c ****   assert_param(IS_TIM_CCXN_INSTANCE(htim->Instance, ChannelN));
2356:Drivers/STM32F7xx_HAL_Driver/Src/stm32f7xx_hal_tim_ex.c **** 
2357:Drivers/STM32F7xx_HAL_Driver/Src/stm32f7xx_hal_tim_ex.c ****   channel_state = TIM_CHANNEL_N_STATE_GET(htim, ChannelN);
 6781              		.loc 1 2357 19
 6782 000a 3B68     		ldr	r3, [r7]
 6783 000c 002B     		cmp	r3, #0
 6784 000e 04D1     		bne	.L408
 6785              		.loc 1 2357 19 is_stmt 0 discriminator 1
 6786 0010 7B68     		ldr	r3, [r7, #4]
 6787 0012 93F84430 		ldrb	r3, [r3, #68]
 6788 0016 DBB2     		uxtb	r3, r3
 6789 0018 13E0     		b	.L409
 6790              	.L408:
 6791              		.loc 1 2357 19 discriminator 2
 6792 001a 3B68     		ldr	r3, [r7]
 6793 001c 042B     		cmp	r3, #4
 6794 001e 04D1     		bne	.L410
 6795              		.loc 1 2357 19 discriminator 4
 6796 0020 7B68     		ldr	r3, [r7, #4]
 6797 0022 93F84530 		ldrb	r3, [r3, #69]
 6798 0026 DBB2     		uxtb	r3, r3
 6799 0028 0BE0     		b	.L409
 6800              	.L410:
 6801              		.loc 1 2357 19 discriminator 5
 6802 002a 3B68     		ldr	r3, [r7]
 6803 002c 082B     		cmp	r3, #8
 6804 002e 04D1     		bne	.L412
 6805              		.loc 1 2357 19 discriminator 7
 6806 0030 7B68     		ldr	r3, [r7, #4]
 6807 0032 93F84630 		ldrb	r3, [r3, #70]
 6808 0036 DBB2     		uxtb	r3, r3
 6809 0038 03E0     		b	.L409
 6810              	.L412:
 6811              		.loc 1 2357 19 discriminator 8
 6812 003a 7B68     		ldr	r3, [r7, #4]
 6813 003c 93F84730 		ldrb	r3, [r3, #71]
 6814 0040 DBB2     		uxtb	r3, r3
 6815              	.L409:
 6816              		.loc 1 2357 17 is_stmt 1 discriminator 12
 6817 0042 FB73     		strb	r3, [r7, #15]
2358:Drivers/STM32F7xx_HAL_Driver/Src/stm32f7xx_hal_tim_ex.c **** 
2359:Drivers/STM32F7xx_HAL_Driver/Src/stm32f7xx_hal_tim_ex.c ****   return channel_state;
 6818              		.loc 1 2359 10 discriminator 12
 6819 0044 FB7B     		ldrb	r3, [r7, #15]	@ zero_extendqisi2
2360:Drivers/STM32F7xx_HAL_Driver/Src/stm32f7xx_hal_tim_ex.c **** }
 6820              		.loc 1 2360 1 discriminator 12
 6821 0046 1846     		mov	r0, r3
 6822 0048 1437     		adds	r7, r7, #20
 6823              	.LCFI213:
 6824              		.cfi_def_cfa_offset 4
 6825 004a BD46     		mov	sp, r7
 6826              	.LCFI214:
ARM GAS  /tmp/ccOFTjtU.s 			page 164


 6827              		.cfi_def_cfa_register 13
 6828              		@ sp needed
 6829 004c 5DF8047B 		ldr	r7, [sp], #4
 6830              	.LCFI215:
 6831              		.cfi_restore 7
 6832              		.cfi_def_cfa_offset 0
 6833 0050 7047     		bx	lr
 6834              		.cfi_endproc
 6835              	.LFE180:
 6837              		.section	.text.TIMEx_DMACommutationCplt,"ax",%progbits
 6838              		.align	1
 6839              		.global	TIMEx_DMACommutationCplt
 6840              		.syntax unified
 6841              		.thumb
 6842              		.thumb_func
 6843              		.fpu fpv5-d16
 6845              	TIMEx_DMACommutationCplt:
 6846              	.LFB181:
2361:Drivers/STM32F7xx_HAL_Driver/Src/stm32f7xx_hal_tim_ex.c **** /**
2362:Drivers/STM32F7xx_HAL_Driver/Src/stm32f7xx_hal_tim_ex.c ****   * @}
2363:Drivers/STM32F7xx_HAL_Driver/Src/stm32f7xx_hal_tim_ex.c ****   */
2364:Drivers/STM32F7xx_HAL_Driver/Src/stm32f7xx_hal_tim_ex.c **** 
2365:Drivers/STM32F7xx_HAL_Driver/Src/stm32f7xx_hal_tim_ex.c **** /**
2366:Drivers/STM32F7xx_HAL_Driver/Src/stm32f7xx_hal_tim_ex.c ****   * @}
2367:Drivers/STM32F7xx_HAL_Driver/Src/stm32f7xx_hal_tim_ex.c ****   */
2368:Drivers/STM32F7xx_HAL_Driver/Src/stm32f7xx_hal_tim_ex.c **** 
2369:Drivers/STM32F7xx_HAL_Driver/Src/stm32f7xx_hal_tim_ex.c **** /* Private functions ---------------------------------------------------------*/
2370:Drivers/STM32F7xx_HAL_Driver/Src/stm32f7xx_hal_tim_ex.c **** /** @defgroup TIMEx_Private_Functions TIMEx Private Functions
2371:Drivers/STM32F7xx_HAL_Driver/Src/stm32f7xx_hal_tim_ex.c ****   * @{
2372:Drivers/STM32F7xx_HAL_Driver/Src/stm32f7xx_hal_tim_ex.c ****   */
2373:Drivers/STM32F7xx_HAL_Driver/Src/stm32f7xx_hal_tim_ex.c **** 
2374:Drivers/STM32F7xx_HAL_Driver/Src/stm32f7xx_hal_tim_ex.c **** /**
2375:Drivers/STM32F7xx_HAL_Driver/Src/stm32f7xx_hal_tim_ex.c ****   * @brief  TIM DMA Commutation callback.
2376:Drivers/STM32F7xx_HAL_Driver/Src/stm32f7xx_hal_tim_ex.c ****   * @param  hdma pointer to DMA handle.
2377:Drivers/STM32F7xx_HAL_Driver/Src/stm32f7xx_hal_tim_ex.c ****   * @retval None
2378:Drivers/STM32F7xx_HAL_Driver/Src/stm32f7xx_hal_tim_ex.c ****   */
2379:Drivers/STM32F7xx_HAL_Driver/Src/stm32f7xx_hal_tim_ex.c **** void TIMEx_DMACommutationCplt(DMA_HandleTypeDef *hdma)
2380:Drivers/STM32F7xx_HAL_Driver/Src/stm32f7xx_hal_tim_ex.c **** {
 6847              		.loc 1 2380 1
 6848              		.cfi_startproc
 6849              		@ args = 0, pretend = 0, frame = 16
 6850              		@ frame_needed = 1, uses_anonymous_args = 0
 6851 0000 80B5     		push	{r7, lr}
 6852              	.LCFI216:
 6853              		.cfi_def_cfa_offset 8
 6854              		.cfi_offset 7, -8
 6855              		.cfi_offset 14, -4
 6856 0002 84B0     		sub	sp, sp, #16
 6857              	.LCFI217:
 6858              		.cfi_def_cfa_offset 24
 6859 0004 00AF     		add	r7, sp, #0
 6860              	.LCFI218:
 6861              		.cfi_def_cfa_register 7
 6862 0006 7860     		str	r0, [r7, #4]
2381:Drivers/STM32F7xx_HAL_Driver/Src/stm32f7xx_hal_tim_ex.c ****   TIM_HandleTypeDef *htim = (TIM_HandleTypeDef *)((DMA_HandleTypeDef *)hdma)->Parent;
 6863              		.loc 1 2381 22
 6864 0008 7B68     		ldr	r3, [r7, #4]
ARM GAS  /tmp/ccOFTjtU.s 			page 165


 6865 000a 9B6B     		ldr	r3, [r3, #56]
 6866 000c FB60     		str	r3, [r7, #12]
2382:Drivers/STM32F7xx_HAL_Driver/Src/stm32f7xx_hal_tim_ex.c **** 
2383:Drivers/STM32F7xx_HAL_Driver/Src/stm32f7xx_hal_tim_ex.c ****   /* Change the htim state */
2384:Drivers/STM32F7xx_HAL_Driver/Src/stm32f7xx_hal_tim_ex.c ****   htim->State = HAL_TIM_STATE_READY;
 6867              		.loc 1 2384 15
 6868 000e FB68     		ldr	r3, [r7, #12]
 6869 0010 0122     		movs	r2, #1
 6870 0012 83F83D20 		strb	r2, [r3, #61]
2385:Drivers/STM32F7xx_HAL_Driver/Src/stm32f7xx_hal_tim_ex.c **** 
2386:Drivers/STM32F7xx_HAL_Driver/Src/stm32f7xx_hal_tim_ex.c **** #if (USE_HAL_TIM_REGISTER_CALLBACKS == 1)
2387:Drivers/STM32F7xx_HAL_Driver/Src/stm32f7xx_hal_tim_ex.c ****   htim->CommutationCallback(htim);
2388:Drivers/STM32F7xx_HAL_Driver/Src/stm32f7xx_hal_tim_ex.c **** #else
2389:Drivers/STM32F7xx_HAL_Driver/Src/stm32f7xx_hal_tim_ex.c ****   HAL_TIMEx_CommutCallback(htim);
 6871              		.loc 1 2389 3
 6872 0016 F868     		ldr	r0, [r7, #12]
 6873 0018 FFF7FEFF 		bl	HAL_TIMEx_CommutCallback
2390:Drivers/STM32F7xx_HAL_Driver/Src/stm32f7xx_hal_tim_ex.c **** #endif /* USE_HAL_TIM_REGISTER_CALLBACKS */
2391:Drivers/STM32F7xx_HAL_Driver/Src/stm32f7xx_hal_tim_ex.c **** }
 6874              		.loc 1 2391 1
 6875 001c 00BF     		nop
 6876 001e 1037     		adds	r7, r7, #16
 6877              	.LCFI219:
 6878              		.cfi_def_cfa_offset 8
 6879 0020 BD46     		mov	sp, r7
 6880              	.LCFI220:
 6881              		.cfi_def_cfa_register 13
 6882              		@ sp needed
 6883 0022 80BD     		pop	{r7, pc}
 6884              		.cfi_endproc
 6885              	.LFE181:
 6887              		.section	.text.TIMEx_DMACommutationHalfCplt,"ax",%progbits
 6888              		.align	1
 6889              		.global	TIMEx_DMACommutationHalfCplt
 6890              		.syntax unified
 6891              		.thumb
 6892              		.thumb_func
 6893              		.fpu fpv5-d16
 6895              	TIMEx_DMACommutationHalfCplt:
 6896              	.LFB182:
2392:Drivers/STM32F7xx_HAL_Driver/Src/stm32f7xx_hal_tim_ex.c **** 
2393:Drivers/STM32F7xx_HAL_Driver/Src/stm32f7xx_hal_tim_ex.c **** /**
2394:Drivers/STM32F7xx_HAL_Driver/Src/stm32f7xx_hal_tim_ex.c ****   * @brief  TIM DMA Commutation half complete callback.
2395:Drivers/STM32F7xx_HAL_Driver/Src/stm32f7xx_hal_tim_ex.c ****   * @param  hdma pointer to DMA handle.
2396:Drivers/STM32F7xx_HAL_Driver/Src/stm32f7xx_hal_tim_ex.c ****   * @retval None
2397:Drivers/STM32F7xx_HAL_Driver/Src/stm32f7xx_hal_tim_ex.c ****   */
2398:Drivers/STM32F7xx_HAL_Driver/Src/stm32f7xx_hal_tim_ex.c **** void TIMEx_DMACommutationHalfCplt(DMA_HandleTypeDef *hdma)
2399:Drivers/STM32F7xx_HAL_Driver/Src/stm32f7xx_hal_tim_ex.c **** {
 6897              		.loc 1 2399 1
 6898              		.cfi_startproc
 6899              		@ args = 0, pretend = 0, frame = 16
 6900              		@ frame_needed = 1, uses_anonymous_args = 0
 6901 0000 80B5     		push	{r7, lr}
 6902              	.LCFI221:
 6903              		.cfi_def_cfa_offset 8
 6904              		.cfi_offset 7, -8
 6905              		.cfi_offset 14, -4
ARM GAS  /tmp/ccOFTjtU.s 			page 166


 6906 0002 84B0     		sub	sp, sp, #16
 6907              	.LCFI222:
 6908              		.cfi_def_cfa_offset 24
 6909 0004 00AF     		add	r7, sp, #0
 6910              	.LCFI223:
 6911              		.cfi_def_cfa_register 7
 6912 0006 7860     		str	r0, [r7, #4]
2400:Drivers/STM32F7xx_HAL_Driver/Src/stm32f7xx_hal_tim_ex.c ****   TIM_HandleTypeDef *htim = (TIM_HandleTypeDef *)((DMA_HandleTypeDef *)hdma)->Parent;
 6913              		.loc 1 2400 22
 6914 0008 7B68     		ldr	r3, [r7, #4]
 6915 000a 9B6B     		ldr	r3, [r3, #56]
 6916 000c FB60     		str	r3, [r7, #12]
2401:Drivers/STM32F7xx_HAL_Driver/Src/stm32f7xx_hal_tim_ex.c **** 
2402:Drivers/STM32F7xx_HAL_Driver/Src/stm32f7xx_hal_tim_ex.c ****   /* Change the htim state */
2403:Drivers/STM32F7xx_HAL_Driver/Src/stm32f7xx_hal_tim_ex.c ****   htim->State = HAL_TIM_STATE_READY;
 6917              		.loc 1 2403 15
 6918 000e FB68     		ldr	r3, [r7, #12]
 6919 0010 0122     		movs	r2, #1
 6920 0012 83F83D20 		strb	r2, [r3, #61]
2404:Drivers/STM32F7xx_HAL_Driver/Src/stm32f7xx_hal_tim_ex.c **** 
2405:Drivers/STM32F7xx_HAL_Driver/Src/stm32f7xx_hal_tim_ex.c **** #if (USE_HAL_TIM_REGISTER_CALLBACKS == 1)
2406:Drivers/STM32F7xx_HAL_Driver/Src/stm32f7xx_hal_tim_ex.c ****   htim->CommutationHalfCpltCallback(htim);
2407:Drivers/STM32F7xx_HAL_Driver/Src/stm32f7xx_hal_tim_ex.c **** #else
2408:Drivers/STM32F7xx_HAL_Driver/Src/stm32f7xx_hal_tim_ex.c ****   HAL_TIMEx_CommutHalfCpltCallback(htim);
 6921              		.loc 1 2408 3
 6922 0016 F868     		ldr	r0, [r7, #12]
 6923 0018 FFF7FEFF 		bl	HAL_TIMEx_CommutHalfCpltCallback
2409:Drivers/STM32F7xx_HAL_Driver/Src/stm32f7xx_hal_tim_ex.c **** #endif /* USE_HAL_TIM_REGISTER_CALLBACKS */
2410:Drivers/STM32F7xx_HAL_Driver/Src/stm32f7xx_hal_tim_ex.c **** }
 6924              		.loc 1 2410 1
 6925 001c 00BF     		nop
 6926 001e 1037     		adds	r7, r7, #16
 6927              	.LCFI224:
 6928              		.cfi_def_cfa_offset 8
 6929 0020 BD46     		mov	sp, r7
 6930              	.LCFI225:
 6931              		.cfi_def_cfa_register 13
 6932              		@ sp needed
 6933 0022 80BD     		pop	{r7, pc}
 6934              		.cfi_endproc
 6935              	.LFE182:
 6937              		.section	.text.TIM_DMADelayPulseNCplt,"ax",%progbits
 6938              		.align	1
 6939              		.syntax unified
 6940              		.thumb
 6941              		.thumb_func
 6942              		.fpu fpv5-d16
 6944              	TIM_DMADelayPulseNCplt:
 6945              	.LFB183:
2411:Drivers/STM32F7xx_HAL_Driver/Src/stm32f7xx_hal_tim_ex.c **** 
2412:Drivers/STM32F7xx_HAL_Driver/Src/stm32f7xx_hal_tim_ex.c **** 
2413:Drivers/STM32F7xx_HAL_Driver/Src/stm32f7xx_hal_tim_ex.c **** /**
2414:Drivers/STM32F7xx_HAL_Driver/Src/stm32f7xx_hal_tim_ex.c ****   * @brief  TIM DMA Delay Pulse complete callback (complementary channel).
2415:Drivers/STM32F7xx_HAL_Driver/Src/stm32f7xx_hal_tim_ex.c ****   * @param  hdma pointer to DMA handle.
2416:Drivers/STM32F7xx_HAL_Driver/Src/stm32f7xx_hal_tim_ex.c ****   * @retval None
2417:Drivers/STM32F7xx_HAL_Driver/Src/stm32f7xx_hal_tim_ex.c ****   */
2418:Drivers/STM32F7xx_HAL_Driver/Src/stm32f7xx_hal_tim_ex.c **** static void TIM_DMADelayPulseNCplt(DMA_HandleTypeDef *hdma)
ARM GAS  /tmp/ccOFTjtU.s 			page 167


2419:Drivers/STM32F7xx_HAL_Driver/Src/stm32f7xx_hal_tim_ex.c **** {
 6946              		.loc 1 2419 1
 6947              		.cfi_startproc
 6948              		@ args = 0, pretend = 0, frame = 16
 6949              		@ frame_needed = 1, uses_anonymous_args = 0
 6950 0000 80B5     		push	{r7, lr}
 6951              	.LCFI226:
 6952              		.cfi_def_cfa_offset 8
 6953              		.cfi_offset 7, -8
 6954              		.cfi_offset 14, -4
 6955 0002 84B0     		sub	sp, sp, #16
 6956              	.LCFI227:
 6957              		.cfi_def_cfa_offset 24
 6958 0004 00AF     		add	r7, sp, #0
 6959              	.LCFI228:
 6960              		.cfi_def_cfa_register 7
 6961 0006 7860     		str	r0, [r7, #4]
2420:Drivers/STM32F7xx_HAL_Driver/Src/stm32f7xx_hal_tim_ex.c ****   TIM_HandleTypeDef *htim = (TIM_HandleTypeDef *)((DMA_HandleTypeDef *)hdma)->Parent;
 6962              		.loc 1 2420 22
 6963 0008 7B68     		ldr	r3, [r7, #4]
 6964 000a 9B6B     		ldr	r3, [r3, #56]
 6965 000c FB60     		str	r3, [r7, #12]
2421:Drivers/STM32F7xx_HAL_Driver/Src/stm32f7xx_hal_tim_ex.c **** 
2422:Drivers/STM32F7xx_HAL_Driver/Src/stm32f7xx_hal_tim_ex.c ****   if (hdma == htim->hdma[TIM_DMA_ID_CC1])
 6966              		.loc 1 2422 25
 6967 000e FB68     		ldr	r3, [r7, #12]
 6968 0010 5B6A     		ldr	r3, [r3, #36]
 6969              		.loc 1 2422 6
 6970 0012 7A68     		ldr	r2, [r7, #4]
 6971 0014 9A42     		cmp	r2, r3
 6972 0016 0BD1     		bne	.L418
2423:Drivers/STM32F7xx_HAL_Driver/Src/stm32f7xx_hal_tim_ex.c ****   {
2424:Drivers/STM32F7xx_HAL_Driver/Src/stm32f7xx_hal_tim_ex.c ****     htim->Channel = HAL_TIM_ACTIVE_CHANNEL_1;
 6973              		.loc 1 2424 19
 6974 0018 FB68     		ldr	r3, [r7, #12]
 6975 001a 0122     		movs	r2, #1
 6976 001c 1A77     		strb	r2, [r3, #28]
2425:Drivers/STM32F7xx_HAL_Driver/Src/stm32f7xx_hal_tim_ex.c **** 
2426:Drivers/STM32F7xx_HAL_Driver/Src/stm32f7xx_hal_tim_ex.c ****     if (hdma->Init.Mode == DMA_NORMAL)
 6977              		.loc 1 2426 19
 6978 001e 7B68     		ldr	r3, [r7, #4]
 6979 0020 DB69     		ldr	r3, [r3, #28]
 6980              		.loc 1 2426 8
 6981 0022 002B     		cmp	r3, #0
 6982 0024 36D1     		bne	.L419
2427:Drivers/STM32F7xx_HAL_Driver/Src/stm32f7xx_hal_tim_ex.c ****     {
2428:Drivers/STM32F7xx_HAL_Driver/Src/stm32f7xx_hal_tim_ex.c ****       TIM_CHANNEL_N_STATE_SET(htim, TIM_CHANNEL_1, HAL_TIM_CHANNEL_STATE_READY);
 6983              		.loc 1 2428 7
 6984 0026 FB68     		ldr	r3, [r7, #12]
 6985 0028 0122     		movs	r2, #1
 6986 002a 83F84420 		strb	r2, [r3, #68]
 6987 002e 31E0     		b	.L419
 6988              	.L418:
2429:Drivers/STM32F7xx_HAL_Driver/Src/stm32f7xx_hal_tim_ex.c ****     }
2430:Drivers/STM32F7xx_HAL_Driver/Src/stm32f7xx_hal_tim_ex.c ****   }
2431:Drivers/STM32F7xx_HAL_Driver/Src/stm32f7xx_hal_tim_ex.c ****   else if (hdma == htim->hdma[TIM_DMA_ID_CC2])
 6989              		.loc 1 2431 30
ARM GAS  /tmp/ccOFTjtU.s 			page 168


 6990 0030 FB68     		ldr	r3, [r7, #12]
 6991 0032 9B6A     		ldr	r3, [r3, #40]
 6992              		.loc 1 2431 11
 6993 0034 7A68     		ldr	r2, [r7, #4]
 6994 0036 9A42     		cmp	r2, r3
 6995 0038 0BD1     		bne	.L420
2432:Drivers/STM32F7xx_HAL_Driver/Src/stm32f7xx_hal_tim_ex.c ****   {
2433:Drivers/STM32F7xx_HAL_Driver/Src/stm32f7xx_hal_tim_ex.c ****     htim->Channel = HAL_TIM_ACTIVE_CHANNEL_2;
 6996              		.loc 1 2433 19
 6997 003a FB68     		ldr	r3, [r7, #12]
 6998 003c 0222     		movs	r2, #2
 6999 003e 1A77     		strb	r2, [r3, #28]
2434:Drivers/STM32F7xx_HAL_Driver/Src/stm32f7xx_hal_tim_ex.c **** 
2435:Drivers/STM32F7xx_HAL_Driver/Src/stm32f7xx_hal_tim_ex.c ****     if (hdma->Init.Mode == DMA_NORMAL)
 7000              		.loc 1 2435 19
 7001 0040 7B68     		ldr	r3, [r7, #4]
 7002 0042 DB69     		ldr	r3, [r3, #28]
 7003              		.loc 1 2435 8
 7004 0044 002B     		cmp	r3, #0
 7005 0046 25D1     		bne	.L419
2436:Drivers/STM32F7xx_HAL_Driver/Src/stm32f7xx_hal_tim_ex.c ****     {
2437:Drivers/STM32F7xx_HAL_Driver/Src/stm32f7xx_hal_tim_ex.c ****       TIM_CHANNEL_N_STATE_SET(htim, TIM_CHANNEL_2, HAL_TIM_CHANNEL_STATE_READY);
 7006              		.loc 1 2437 7
 7007 0048 FB68     		ldr	r3, [r7, #12]
 7008 004a 0122     		movs	r2, #1
 7009 004c 83F84520 		strb	r2, [r3, #69]
 7010 0050 20E0     		b	.L419
 7011              	.L420:
2438:Drivers/STM32F7xx_HAL_Driver/Src/stm32f7xx_hal_tim_ex.c ****     }
2439:Drivers/STM32F7xx_HAL_Driver/Src/stm32f7xx_hal_tim_ex.c ****   }
2440:Drivers/STM32F7xx_HAL_Driver/Src/stm32f7xx_hal_tim_ex.c ****   else if (hdma == htim->hdma[TIM_DMA_ID_CC3])
 7012              		.loc 1 2440 30
 7013 0052 FB68     		ldr	r3, [r7, #12]
 7014 0054 DB6A     		ldr	r3, [r3, #44]
 7015              		.loc 1 2440 11
 7016 0056 7A68     		ldr	r2, [r7, #4]
 7017 0058 9A42     		cmp	r2, r3
 7018 005a 0BD1     		bne	.L421
2441:Drivers/STM32F7xx_HAL_Driver/Src/stm32f7xx_hal_tim_ex.c ****   {
2442:Drivers/STM32F7xx_HAL_Driver/Src/stm32f7xx_hal_tim_ex.c ****     htim->Channel = HAL_TIM_ACTIVE_CHANNEL_3;
 7019              		.loc 1 2442 19
 7020 005c FB68     		ldr	r3, [r7, #12]
 7021 005e 0422     		movs	r2, #4
 7022 0060 1A77     		strb	r2, [r3, #28]
2443:Drivers/STM32F7xx_HAL_Driver/Src/stm32f7xx_hal_tim_ex.c **** 
2444:Drivers/STM32F7xx_HAL_Driver/Src/stm32f7xx_hal_tim_ex.c ****     if (hdma->Init.Mode == DMA_NORMAL)
 7023              		.loc 1 2444 19
 7024 0062 7B68     		ldr	r3, [r7, #4]
 7025 0064 DB69     		ldr	r3, [r3, #28]
 7026              		.loc 1 2444 8
 7027 0066 002B     		cmp	r3, #0
 7028 0068 14D1     		bne	.L419
2445:Drivers/STM32F7xx_HAL_Driver/Src/stm32f7xx_hal_tim_ex.c ****     {
2446:Drivers/STM32F7xx_HAL_Driver/Src/stm32f7xx_hal_tim_ex.c ****       TIM_CHANNEL_N_STATE_SET(htim, TIM_CHANNEL_3, HAL_TIM_CHANNEL_STATE_READY);
 7029              		.loc 1 2446 7
 7030 006a FB68     		ldr	r3, [r7, #12]
 7031 006c 0122     		movs	r2, #1
ARM GAS  /tmp/ccOFTjtU.s 			page 169


 7032 006e 83F84620 		strb	r2, [r3, #70]
 7033 0072 0FE0     		b	.L419
 7034              	.L421:
2447:Drivers/STM32F7xx_HAL_Driver/Src/stm32f7xx_hal_tim_ex.c ****     }
2448:Drivers/STM32F7xx_HAL_Driver/Src/stm32f7xx_hal_tim_ex.c ****   }
2449:Drivers/STM32F7xx_HAL_Driver/Src/stm32f7xx_hal_tim_ex.c ****   else if (hdma == htim->hdma[TIM_DMA_ID_CC4])
 7035              		.loc 1 2449 30
 7036 0074 FB68     		ldr	r3, [r7, #12]
 7037 0076 1B6B     		ldr	r3, [r3, #48]
 7038              		.loc 1 2449 11
 7039 0078 7A68     		ldr	r2, [r7, #4]
 7040 007a 9A42     		cmp	r2, r3
 7041 007c 0AD1     		bne	.L419
2450:Drivers/STM32F7xx_HAL_Driver/Src/stm32f7xx_hal_tim_ex.c ****   {
2451:Drivers/STM32F7xx_HAL_Driver/Src/stm32f7xx_hal_tim_ex.c ****     htim->Channel = HAL_TIM_ACTIVE_CHANNEL_4;
 7042              		.loc 1 2451 19
 7043 007e FB68     		ldr	r3, [r7, #12]
 7044 0080 0822     		movs	r2, #8
 7045 0082 1A77     		strb	r2, [r3, #28]
2452:Drivers/STM32F7xx_HAL_Driver/Src/stm32f7xx_hal_tim_ex.c **** 
2453:Drivers/STM32F7xx_HAL_Driver/Src/stm32f7xx_hal_tim_ex.c ****     if (hdma->Init.Mode == DMA_NORMAL)
 7046              		.loc 1 2453 19
 7047 0084 7B68     		ldr	r3, [r7, #4]
 7048 0086 DB69     		ldr	r3, [r3, #28]
 7049              		.loc 1 2453 8
 7050 0088 002B     		cmp	r3, #0
 7051 008a 03D1     		bne	.L419
2454:Drivers/STM32F7xx_HAL_Driver/Src/stm32f7xx_hal_tim_ex.c ****     {
2455:Drivers/STM32F7xx_HAL_Driver/Src/stm32f7xx_hal_tim_ex.c ****       TIM_CHANNEL_N_STATE_SET(htim, TIM_CHANNEL_4, HAL_TIM_CHANNEL_STATE_READY);
 7052              		.loc 1 2455 7
 7053 008c FB68     		ldr	r3, [r7, #12]
 7054 008e 0122     		movs	r2, #1
 7055 0090 83F84720 		strb	r2, [r3, #71]
 7056              	.L419:
2456:Drivers/STM32F7xx_HAL_Driver/Src/stm32f7xx_hal_tim_ex.c ****     }
2457:Drivers/STM32F7xx_HAL_Driver/Src/stm32f7xx_hal_tim_ex.c ****   }
2458:Drivers/STM32F7xx_HAL_Driver/Src/stm32f7xx_hal_tim_ex.c ****   else
2459:Drivers/STM32F7xx_HAL_Driver/Src/stm32f7xx_hal_tim_ex.c ****   {
2460:Drivers/STM32F7xx_HAL_Driver/Src/stm32f7xx_hal_tim_ex.c ****     /* nothing to do */
2461:Drivers/STM32F7xx_HAL_Driver/Src/stm32f7xx_hal_tim_ex.c ****   }
2462:Drivers/STM32F7xx_HAL_Driver/Src/stm32f7xx_hal_tim_ex.c **** 
2463:Drivers/STM32F7xx_HAL_Driver/Src/stm32f7xx_hal_tim_ex.c **** #if (USE_HAL_TIM_REGISTER_CALLBACKS == 1)
2464:Drivers/STM32F7xx_HAL_Driver/Src/stm32f7xx_hal_tim_ex.c ****   htim->PWM_PulseFinishedCallback(htim);
2465:Drivers/STM32F7xx_HAL_Driver/Src/stm32f7xx_hal_tim_ex.c **** #else
2466:Drivers/STM32F7xx_HAL_Driver/Src/stm32f7xx_hal_tim_ex.c ****   HAL_TIM_PWM_PulseFinishedCallback(htim);
 7057              		.loc 1 2466 3
 7058 0094 F868     		ldr	r0, [r7, #12]
 7059 0096 FFF7FEFF 		bl	HAL_TIM_PWM_PulseFinishedCallback
2467:Drivers/STM32F7xx_HAL_Driver/Src/stm32f7xx_hal_tim_ex.c **** #endif /* USE_HAL_TIM_REGISTER_CALLBACKS */
2468:Drivers/STM32F7xx_HAL_Driver/Src/stm32f7xx_hal_tim_ex.c **** 
2469:Drivers/STM32F7xx_HAL_Driver/Src/stm32f7xx_hal_tim_ex.c ****   htim->Channel = HAL_TIM_ACTIVE_CHANNEL_CLEARED;
 7060              		.loc 1 2469 17
 7061 009a FB68     		ldr	r3, [r7, #12]
 7062 009c 0022     		movs	r2, #0
 7063 009e 1A77     		strb	r2, [r3, #28]
2470:Drivers/STM32F7xx_HAL_Driver/Src/stm32f7xx_hal_tim_ex.c **** }
 7064              		.loc 1 2470 1
ARM GAS  /tmp/ccOFTjtU.s 			page 170


 7065 00a0 00BF     		nop
 7066 00a2 1037     		adds	r7, r7, #16
 7067              	.LCFI229:
 7068              		.cfi_def_cfa_offset 8
 7069 00a4 BD46     		mov	sp, r7
 7070              	.LCFI230:
 7071              		.cfi_def_cfa_register 13
 7072              		@ sp needed
 7073 00a6 80BD     		pop	{r7, pc}
 7074              		.cfi_endproc
 7075              	.LFE183:
 7077              		.section	.text.TIM_DMAErrorCCxN,"ax",%progbits
 7078              		.align	1
 7079              		.syntax unified
 7080              		.thumb
 7081              		.thumb_func
 7082              		.fpu fpv5-d16
 7084              	TIM_DMAErrorCCxN:
 7085              	.LFB184:
2471:Drivers/STM32F7xx_HAL_Driver/Src/stm32f7xx_hal_tim_ex.c **** 
2472:Drivers/STM32F7xx_HAL_Driver/Src/stm32f7xx_hal_tim_ex.c **** /**
2473:Drivers/STM32F7xx_HAL_Driver/Src/stm32f7xx_hal_tim_ex.c ****   * @brief  TIM DMA error callback (complementary channel)
2474:Drivers/STM32F7xx_HAL_Driver/Src/stm32f7xx_hal_tim_ex.c ****   * @param  hdma pointer to DMA handle.
2475:Drivers/STM32F7xx_HAL_Driver/Src/stm32f7xx_hal_tim_ex.c ****   * @retval None
2476:Drivers/STM32F7xx_HAL_Driver/Src/stm32f7xx_hal_tim_ex.c ****   */
2477:Drivers/STM32F7xx_HAL_Driver/Src/stm32f7xx_hal_tim_ex.c **** static void TIM_DMAErrorCCxN(DMA_HandleTypeDef *hdma)
2478:Drivers/STM32F7xx_HAL_Driver/Src/stm32f7xx_hal_tim_ex.c **** {
 7086              		.loc 1 2478 1
 7087              		.cfi_startproc
 7088              		@ args = 0, pretend = 0, frame = 16
 7089              		@ frame_needed = 1, uses_anonymous_args = 0
 7090 0000 80B5     		push	{r7, lr}
 7091              	.LCFI231:
 7092              		.cfi_def_cfa_offset 8
 7093              		.cfi_offset 7, -8
 7094              		.cfi_offset 14, -4
 7095 0002 84B0     		sub	sp, sp, #16
 7096              	.LCFI232:
 7097              		.cfi_def_cfa_offset 24
 7098 0004 00AF     		add	r7, sp, #0
 7099              	.LCFI233:
 7100              		.cfi_def_cfa_register 7
 7101 0006 7860     		str	r0, [r7, #4]
2479:Drivers/STM32F7xx_HAL_Driver/Src/stm32f7xx_hal_tim_ex.c ****   TIM_HandleTypeDef *htim = (TIM_HandleTypeDef *)((DMA_HandleTypeDef *)hdma)->Parent;
 7102              		.loc 1 2479 22
 7103 0008 7B68     		ldr	r3, [r7, #4]
 7104 000a 9B6B     		ldr	r3, [r3, #56]
 7105 000c FB60     		str	r3, [r7, #12]
2480:Drivers/STM32F7xx_HAL_Driver/Src/stm32f7xx_hal_tim_ex.c **** 
2481:Drivers/STM32F7xx_HAL_Driver/Src/stm32f7xx_hal_tim_ex.c ****   if (hdma == htim->hdma[TIM_DMA_ID_CC1])
 7106              		.loc 1 2481 25
 7107 000e FB68     		ldr	r3, [r7, #12]
 7108 0010 5B6A     		ldr	r3, [r3, #36]
 7109              		.loc 1 2481 6
 7110 0012 7A68     		ldr	r2, [r7, #4]
 7111 0014 9A42     		cmp	r2, r3
 7112 0016 07D1     		bne	.L423
ARM GAS  /tmp/ccOFTjtU.s 			page 171


2482:Drivers/STM32F7xx_HAL_Driver/Src/stm32f7xx_hal_tim_ex.c ****   {
2483:Drivers/STM32F7xx_HAL_Driver/Src/stm32f7xx_hal_tim_ex.c ****     htim->Channel = HAL_TIM_ACTIVE_CHANNEL_1;
 7113              		.loc 1 2483 19
 7114 0018 FB68     		ldr	r3, [r7, #12]
 7115 001a 0122     		movs	r2, #1
 7116 001c 1A77     		strb	r2, [r3, #28]
2484:Drivers/STM32F7xx_HAL_Driver/Src/stm32f7xx_hal_tim_ex.c ****     TIM_CHANNEL_N_STATE_SET(htim, TIM_CHANNEL_1, HAL_TIM_CHANNEL_STATE_READY);
 7117              		.loc 1 2484 5
 7118 001e FB68     		ldr	r3, [r7, #12]
 7119 0020 0122     		movs	r2, #1
 7120 0022 83F84420 		strb	r2, [r3, #68]
 7121 0026 18E0     		b	.L424
 7122              	.L423:
2485:Drivers/STM32F7xx_HAL_Driver/Src/stm32f7xx_hal_tim_ex.c ****   }
2486:Drivers/STM32F7xx_HAL_Driver/Src/stm32f7xx_hal_tim_ex.c ****   else if (hdma == htim->hdma[TIM_DMA_ID_CC2])
 7123              		.loc 1 2486 30
 7124 0028 FB68     		ldr	r3, [r7, #12]
 7125 002a 9B6A     		ldr	r3, [r3, #40]
 7126              		.loc 1 2486 11
 7127 002c 7A68     		ldr	r2, [r7, #4]
 7128 002e 9A42     		cmp	r2, r3
 7129 0030 07D1     		bne	.L425
2487:Drivers/STM32F7xx_HAL_Driver/Src/stm32f7xx_hal_tim_ex.c ****   {
2488:Drivers/STM32F7xx_HAL_Driver/Src/stm32f7xx_hal_tim_ex.c ****     htim->Channel = HAL_TIM_ACTIVE_CHANNEL_2;
 7130              		.loc 1 2488 19
 7131 0032 FB68     		ldr	r3, [r7, #12]
 7132 0034 0222     		movs	r2, #2
 7133 0036 1A77     		strb	r2, [r3, #28]
2489:Drivers/STM32F7xx_HAL_Driver/Src/stm32f7xx_hal_tim_ex.c ****     TIM_CHANNEL_N_STATE_SET(htim, TIM_CHANNEL_2, HAL_TIM_CHANNEL_STATE_READY);
 7134              		.loc 1 2489 5
 7135 0038 FB68     		ldr	r3, [r7, #12]
 7136 003a 0122     		movs	r2, #1
 7137 003c 83F84520 		strb	r2, [r3, #69]
 7138 0040 0BE0     		b	.L424
 7139              	.L425:
2490:Drivers/STM32F7xx_HAL_Driver/Src/stm32f7xx_hal_tim_ex.c ****   }
2491:Drivers/STM32F7xx_HAL_Driver/Src/stm32f7xx_hal_tim_ex.c ****   else if (hdma == htim->hdma[TIM_DMA_ID_CC3])
 7140              		.loc 1 2491 30
 7141 0042 FB68     		ldr	r3, [r7, #12]
 7142 0044 DB6A     		ldr	r3, [r3, #44]
 7143              		.loc 1 2491 11
 7144 0046 7A68     		ldr	r2, [r7, #4]
 7145 0048 9A42     		cmp	r2, r3
 7146 004a 06D1     		bne	.L424
2492:Drivers/STM32F7xx_HAL_Driver/Src/stm32f7xx_hal_tim_ex.c ****   {
2493:Drivers/STM32F7xx_HAL_Driver/Src/stm32f7xx_hal_tim_ex.c ****     htim->Channel = HAL_TIM_ACTIVE_CHANNEL_3;
 7147              		.loc 1 2493 19
 7148 004c FB68     		ldr	r3, [r7, #12]
 7149 004e 0422     		movs	r2, #4
 7150 0050 1A77     		strb	r2, [r3, #28]
2494:Drivers/STM32F7xx_HAL_Driver/Src/stm32f7xx_hal_tim_ex.c ****     TIM_CHANNEL_N_STATE_SET(htim, TIM_CHANNEL_3, HAL_TIM_CHANNEL_STATE_READY);
 7151              		.loc 1 2494 5
 7152 0052 FB68     		ldr	r3, [r7, #12]
 7153 0054 0122     		movs	r2, #1
 7154 0056 83F84620 		strb	r2, [r3, #70]
 7155              	.L424:
2495:Drivers/STM32F7xx_HAL_Driver/Src/stm32f7xx_hal_tim_ex.c ****   }
ARM GAS  /tmp/ccOFTjtU.s 			page 172


2496:Drivers/STM32F7xx_HAL_Driver/Src/stm32f7xx_hal_tim_ex.c ****   else
2497:Drivers/STM32F7xx_HAL_Driver/Src/stm32f7xx_hal_tim_ex.c ****   {
2498:Drivers/STM32F7xx_HAL_Driver/Src/stm32f7xx_hal_tim_ex.c ****     /* nothing to do */
2499:Drivers/STM32F7xx_HAL_Driver/Src/stm32f7xx_hal_tim_ex.c ****   }
2500:Drivers/STM32F7xx_HAL_Driver/Src/stm32f7xx_hal_tim_ex.c **** 
2501:Drivers/STM32F7xx_HAL_Driver/Src/stm32f7xx_hal_tim_ex.c **** #if (USE_HAL_TIM_REGISTER_CALLBACKS == 1)
2502:Drivers/STM32F7xx_HAL_Driver/Src/stm32f7xx_hal_tim_ex.c ****   htim->ErrorCallback(htim);
2503:Drivers/STM32F7xx_HAL_Driver/Src/stm32f7xx_hal_tim_ex.c **** #else
2504:Drivers/STM32F7xx_HAL_Driver/Src/stm32f7xx_hal_tim_ex.c ****   HAL_TIM_ErrorCallback(htim);
 7156              		.loc 1 2504 3
 7157 005a F868     		ldr	r0, [r7, #12]
 7158 005c FFF7FEFF 		bl	HAL_TIM_ErrorCallback
2505:Drivers/STM32F7xx_HAL_Driver/Src/stm32f7xx_hal_tim_ex.c **** #endif /* USE_HAL_TIM_REGISTER_CALLBACKS */
2506:Drivers/STM32F7xx_HAL_Driver/Src/stm32f7xx_hal_tim_ex.c **** 
2507:Drivers/STM32F7xx_HAL_Driver/Src/stm32f7xx_hal_tim_ex.c ****   htim->Channel = HAL_TIM_ACTIVE_CHANNEL_CLEARED;
 7159              		.loc 1 2507 17
 7160 0060 FB68     		ldr	r3, [r7, #12]
 7161 0062 0022     		movs	r2, #0
 7162 0064 1A77     		strb	r2, [r3, #28]
2508:Drivers/STM32F7xx_HAL_Driver/Src/stm32f7xx_hal_tim_ex.c **** }
 7163              		.loc 1 2508 1
 7164 0066 00BF     		nop
 7165 0068 1037     		adds	r7, r7, #16
 7166              	.LCFI234:
 7167              		.cfi_def_cfa_offset 8
 7168 006a BD46     		mov	sp, r7
 7169              	.LCFI235:
 7170              		.cfi_def_cfa_register 13
 7171              		@ sp needed
 7172 006c 80BD     		pop	{r7, pc}
 7173              		.cfi_endproc
 7174              	.LFE184:
 7176              		.section	.text.TIM_CCxNChannelCmd,"ax",%progbits
 7177              		.align	1
 7178              		.syntax unified
 7179              		.thumb
 7180              		.thumb_func
 7181              		.fpu fpv5-d16
 7183              	TIM_CCxNChannelCmd:
 7184              	.LFB185:
2509:Drivers/STM32F7xx_HAL_Driver/Src/stm32f7xx_hal_tim_ex.c **** 
2510:Drivers/STM32F7xx_HAL_Driver/Src/stm32f7xx_hal_tim_ex.c **** /**
2511:Drivers/STM32F7xx_HAL_Driver/Src/stm32f7xx_hal_tim_ex.c ****   * @brief  Enables or disables the TIM Capture Compare Channel xN.
2512:Drivers/STM32F7xx_HAL_Driver/Src/stm32f7xx_hal_tim_ex.c ****   * @param  TIMx to select the TIM peripheral
2513:Drivers/STM32F7xx_HAL_Driver/Src/stm32f7xx_hal_tim_ex.c ****   * @param  Channel specifies the TIM Channel
2514:Drivers/STM32F7xx_HAL_Driver/Src/stm32f7xx_hal_tim_ex.c ****   *          This parameter can be one of the following values:
2515:Drivers/STM32F7xx_HAL_Driver/Src/stm32f7xx_hal_tim_ex.c ****   *            @arg TIM_CHANNEL_1: TIM Channel 1
2516:Drivers/STM32F7xx_HAL_Driver/Src/stm32f7xx_hal_tim_ex.c ****   *            @arg TIM_CHANNEL_2: TIM Channel 2
2517:Drivers/STM32F7xx_HAL_Driver/Src/stm32f7xx_hal_tim_ex.c ****   *            @arg TIM_CHANNEL_3: TIM Channel 3
2518:Drivers/STM32F7xx_HAL_Driver/Src/stm32f7xx_hal_tim_ex.c ****   * @param  ChannelNState specifies the TIM Channel CCxNE bit new state.
2519:Drivers/STM32F7xx_HAL_Driver/Src/stm32f7xx_hal_tim_ex.c ****   *          This parameter can be: TIM_CCxN_ENABLE or TIM_CCxN_Disable.
2520:Drivers/STM32F7xx_HAL_Driver/Src/stm32f7xx_hal_tim_ex.c ****   * @retval None
2521:Drivers/STM32F7xx_HAL_Driver/Src/stm32f7xx_hal_tim_ex.c ****   */
2522:Drivers/STM32F7xx_HAL_Driver/Src/stm32f7xx_hal_tim_ex.c **** static void TIM_CCxNChannelCmd(TIM_TypeDef *TIMx, uint32_t Channel, uint32_t ChannelNState)
2523:Drivers/STM32F7xx_HAL_Driver/Src/stm32f7xx_hal_tim_ex.c **** {
 7185              		.loc 1 2523 1
 7186              		.cfi_startproc
ARM GAS  /tmp/ccOFTjtU.s 			page 173


 7187              		@ args = 0, pretend = 0, frame = 24
 7188              		@ frame_needed = 1, uses_anonymous_args = 0
 7189              		@ link register save eliminated.
 7190 0000 80B4     		push	{r7}
 7191              	.LCFI236:
 7192              		.cfi_def_cfa_offset 4
 7193              		.cfi_offset 7, -4
 7194 0002 87B0     		sub	sp, sp, #28
 7195              	.LCFI237:
 7196              		.cfi_def_cfa_offset 32
 7197 0004 00AF     		add	r7, sp, #0
 7198              	.LCFI238:
 7199              		.cfi_def_cfa_register 7
 7200 0006 F860     		str	r0, [r7, #12]
 7201 0008 B960     		str	r1, [r7, #8]
 7202 000a 7A60     		str	r2, [r7, #4]
2524:Drivers/STM32F7xx_HAL_Driver/Src/stm32f7xx_hal_tim_ex.c ****   uint32_t tmp;
2525:Drivers/STM32F7xx_HAL_Driver/Src/stm32f7xx_hal_tim_ex.c **** 
2526:Drivers/STM32F7xx_HAL_Driver/Src/stm32f7xx_hal_tim_ex.c ****   tmp = TIM_CCER_CC1NE << (Channel & 0x1FU); /* 0x1FU = 31 bits max shift */
 7203              		.loc 1 2526 36
 7204 000c BB68     		ldr	r3, [r7, #8]
 7205 000e 03F01F03 		and	r3, r3, #31
 7206              		.loc 1 2526 7
 7207 0012 0422     		movs	r2, #4
 7208 0014 02FA03F3 		lsl	r3, r2, r3
 7209 0018 7B61     		str	r3, [r7, #20]
2527:Drivers/STM32F7xx_HAL_Driver/Src/stm32f7xx_hal_tim_ex.c **** 
2528:Drivers/STM32F7xx_HAL_Driver/Src/stm32f7xx_hal_tim_ex.c ****   /* Reset the CCxNE Bit */
2529:Drivers/STM32F7xx_HAL_Driver/Src/stm32f7xx_hal_tim_ex.c ****   TIMx->CCER &=  ~tmp;
 7210              		.loc 1 2529 14
 7211 001a FB68     		ldr	r3, [r7, #12]
 7212 001c 1A6A     		ldr	r2, [r3, #32]
 7213              		.loc 1 2529 18
 7214 001e 7B69     		ldr	r3, [r7, #20]
 7215 0020 DB43     		mvns	r3, r3
 7216              		.loc 1 2529 14
 7217 0022 1A40     		ands	r2, r2, r3
 7218 0024 FB68     		ldr	r3, [r7, #12]
 7219 0026 1A62     		str	r2, [r3, #32]
2530:Drivers/STM32F7xx_HAL_Driver/Src/stm32f7xx_hal_tim_ex.c **** 
2531:Drivers/STM32F7xx_HAL_Driver/Src/stm32f7xx_hal_tim_ex.c ****   /* Set or reset the CCxNE Bit */
2532:Drivers/STM32F7xx_HAL_Driver/Src/stm32f7xx_hal_tim_ex.c ****   TIMx->CCER |= (uint32_t)(ChannelNState << (Channel & 0x1FU)); /* 0x1FU = 31 bits max shift */
 7220              		.loc 1 2532 14
 7221 0028 FB68     		ldr	r3, [r7, #12]
 7222 002a 1A6A     		ldr	r2, [r3, #32]
 7223              		.loc 1 2532 54
 7224 002c BB68     		ldr	r3, [r7, #8]
 7225 002e 03F01F03 		and	r3, r3, #31
 7226              		.loc 1 2532 42
 7227 0032 7968     		ldr	r1, [r7, #4]
 7228 0034 01FA03F3 		lsl	r3, r1, r3
 7229              		.loc 1 2532 14
 7230 0038 1A43     		orrs	r2, r2, r3
 7231 003a FB68     		ldr	r3, [r7, #12]
 7232 003c 1A62     		str	r2, [r3, #32]
2533:Drivers/STM32F7xx_HAL_Driver/Src/stm32f7xx_hal_tim_ex.c **** }
 7233              		.loc 1 2533 1
ARM GAS  /tmp/ccOFTjtU.s 			page 174


 7234 003e 00BF     		nop
 7235 0040 1C37     		adds	r7, r7, #28
 7236              	.LCFI239:
 7237              		.cfi_def_cfa_offset 4
 7238 0042 BD46     		mov	sp, r7
 7239              	.LCFI240:
 7240              		.cfi_def_cfa_register 13
 7241              		@ sp needed
 7242 0044 5DF8047B 		ldr	r7, [sp], #4
 7243              	.LCFI241:
 7244              		.cfi_restore 7
 7245              		.cfi_def_cfa_offset 0
 7246 0048 7047     		bx	lr
 7247              		.cfi_endproc
 7248              	.LFE185:
 7250              		.text
 7251              	.Letext0:
 7252              		.file 2 "/usr/lib/gcc/arm-none-eabi/9.2.1/include/stdint.h"
 7253              		.file 3 "Drivers/CMSIS/Include/core_cm7.h"
 7254              		.file 4 "Drivers/CMSIS/Device/ST/STM32F7xx/Include/system_stm32f7xx.h"
 7255              		.file 5 "Drivers/CMSIS/Device/ST/STM32F7xx/Include/stm32f765xx.h"
 7256              		.file 6 "Drivers/CMSIS/Device/ST/STM32F7xx/Include/stm32f7xx.h"
 7257              		.file 7 "Drivers/STM32F7xx_HAL_Driver/Inc/stm32f7xx_hal_def.h"
 7258              		.file 8 "Drivers/STM32F7xx_HAL_Driver/Inc/stm32f7xx_hal_dma.h"
 7259              		.file 9 "Drivers/STM32F7xx_HAL_Driver/Inc/stm32f7xx_hal_tim.h"
 7260              		.file 10 "Drivers/STM32F7xx_HAL_Driver/Inc/stm32f7xx_hal_tim_ex.h"
 7261              		.file 11 "Drivers/STM32F7xx_HAL_Driver/Inc/stm32f7xx_hal.h"
ARM GAS  /tmp/ccOFTjtU.s 			page 175


DEFINED SYMBOLS
                            *ABS*:0000000000000000 stm32f7xx_hal_tim_ex.c
     /tmp/ccOFTjtU.s:17     .text.HAL_TIMEx_HallSensor_Init:0000000000000000 $t
     /tmp/ccOFTjtU.s:25     .text.HAL_TIMEx_HallSensor_Init:0000000000000000 HAL_TIMEx_HallSensor_Init
     /tmp/ccOFTjtU.s:375    .text.HAL_TIMEx_HallSensor_MspInit:0000000000000000 HAL_TIMEx_HallSensor_MspInit
     /tmp/ccOFTjtU.s:262    .text.HAL_TIMEx_HallSensor_Init:0000000000000154 $d
     /tmp/ccOFTjtU.s:267    .text.HAL_TIMEx_HallSensor_DeInit:0000000000000000 $t
     /tmp/ccOFTjtU.s:274    .text.HAL_TIMEx_HallSensor_DeInit:0000000000000000 HAL_TIMEx_HallSensor_DeInit
     /tmp/ccOFTjtU.s:418    .text.HAL_TIMEx_HallSensor_MspDeInit:0000000000000000 HAL_TIMEx_HallSensor_MspDeInit
     /tmp/ccOFTjtU.s:368    .text.HAL_TIMEx_HallSensor_MspInit:0000000000000000 $t
     /tmp/ccOFTjtU.s:411    .text.HAL_TIMEx_HallSensor_MspDeInit:0000000000000000 $t
     /tmp/ccOFTjtU.s:454    .text.HAL_TIMEx_HallSensor_Start:0000000000000000 $t
     /tmp/ccOFTjtU.s:461    .text.HAL_TIMEx_HallSensor_Start:0000000000000000 HAL_TIMEx_HallSensor_Start
     /tmp/ccOFTjtU.s:645    .text.HAL_TIMEx_HallSensor_Start:000000000000010c $d
     /tmp/ccOFTjtU.s:657    .text.HAL_TIMEx_HallSensor_Stop:0000000000000000 $t
     /tmp/ccOFTjtU.s:664    .text.HAL_TIMEx_HallSensor_Stop:0000000000000000 HAL_TIMEx_HallSensor_Stop
     /tmp/ccOFTjtU.s:746    .text.HAL_TIMEx_HallSensor_Start_IT:0000000000000000 $t
     /tmp/ccOFTjtU.s:753    .text.HAL_TIMEx_HallSensor_Start_IT:0000000000000000 HAL_TIMEx_HallSensor_Start_IT
     /tmp/ccOFTjtU.s:945    .text.HAL_TIMEx_HallSensor_Start_IT:000000000000011c $d
     /tmp/ccOFTjtU.s:957    .text.HAL_TIMEx_HallSensor_Stop_IT:0000000000000000 $t
     /tmp/ccOFTjtU.s:964    .text.HAL_TIMEx_HallSensor_Stop_IT:0000000000000000 HAL_TIMEx_HallSensor_Stop_IT
     /tmp/ccOFTjtU.s:1054   .text.HAL_TIMEx_HallSensor_Start_DMA:0000000000000000 $t
     /tmp/ccOFTjtU.s:1061   .text.HAL_TIMEx_HallSensor_Start_DMA:0000000000000000 HAL_TIMEx_HallSensor_Start_DMA
     /tmp/ccOFTjtU.s:1299   .text.HAL_TIMEx_HallSensor_Start_DMA:0000000000000150 $d
     /tmp/ccOFTjtU.s:1314   .text.HAL_TIMEx_HallSensor_Stop_DMA:0000000000000000 $t
     /tmp/ccOFTjtU.s:1321   .text.HAL_TIMEx_HallSensor_Stop_DMA:0000000000000000 HAL_TIMEx_HallSensor_Stop_DMA
     /tmp/ccOFTjtU.s:1408   .text.HAL_TIMEx_OCN_Start:0000000000000000 $t
     /tmp/ccOFTjtU.s:1415   .text.HAL_TIMEx_OCN_Start:0000000000000000 HAL_TIMEx_OCN_Start
     /tmp/ccOFTjtU.s:7183   .text.TIM_CCxNChannelCmd:0000000000000000 TIM_CCxNChannelCmd
     /tmp/ccOFTjtU.s:1656   .text.HAL_TIMEx_OCN_Start:0000000000000164 $d
     /tmp/ccOFTjtU.s:1668   .text.HAL_TIMEx_OCN_Stop:0000000000000000 $t
     /tmp/ccOFTjtU.s:1675   .text.HAL_TIMEx_OCN_Stop:0000000000000000 HAL_TIMEx_OCN_Stop
     /tmp/ccOFTjtU.s:1802   .text.HAL_TIMEx_OCN_Start_IT:0000000000000000 $t
     /tmp/ccOFTjtU.s:1809   .text.HAL_TIMEx_OCN_Start_IT:0000000000000000 HAL_TIMEx_OCN_Start_IT
     /tmp/ccOFTjtU.s:2110   .text.HAL_TIMEx_OCN_Start_IT:00000000000001c4 $d
     /tmp/ccOFTjtU.s:2122   .text.HAL_TIMEx_OCN_Stop_IT:0000000000000000 $t
     /tmp/ccOFTjtU.s:2129   .text.HAL_TIMEx_OCN_Stop_IT:0000000000000000 HAL_TIMEx_OCN_Stop_IT
     /tmp/ccOFTjtU.s:2330   .text.HAL_TIMEx_OCN_Start_DMA:0000000000000000 $t
     /tmp/ccOFTjtU.s:2337   .text.HAL_TIMEx_OCN_Start_DMA:0000000000000000 HAL_TIMEx_OCN_Start_DMA
     /tmp/ccOFTjtU.s:2828   .text.HAL_TIMEx_OCN_Start_DMA:00000000000002d4 $d
     /tmp/ccOFTjtU.s:6944   .text.TIM_DMADelayPulseNCplt:0000000000000000 TIM_DMADelayPulseNCplt
     /tmp/ccOFTjtU.s:7084   .text.TIM_DMAErrorCCxN:0000000000000000 TIM_DMAErrorCCxN
     /tmp/ccOFTjtU.s:2843   .text.HAL_TIMEx_OCN_Stop_DMA:0000000000000000 $t
     /tmp/ccOFTjtU.s:2850   .text.HAL_TIMEx_OCN_Stop_DMA:0000000000000000 HAL_TIMEx_OCN_Stop_DMA
     /tmp/ccOFTjtU.s:3044   .text.HAL_TIMEx_PWMN_Start:0000000000000000 $t
     /tmp/ccOFTjtU.s:3051   .text.HAL_TIMEx_PWMN_Start:0000000000000000 HAL_TIMEx_PWMN_Start
     /tmp/ccOFTjtU.s:3292   .text.HAL_TIMEx_PWMN_Start:0000000000000164 $d
     /tmp/ccOFTjtU.s:3304   .text.HAL_TIMEx_PWMN_Stop:0000000000000000 $t
     /tmp/ccOFTjtU.s:3311   .text.HAL_TIMEx_PWMN_Stop:0000000000000000 HAL_TIMEx_PWMN_Stop
     /tmp/ccOFTjtU.s:3438   .text.HAL_TIMEx_PWMN_Start_IT:0000000000000000 $t
     /tmp/ccOFTjtU.s:3445   .text.HAL_TIMEx_PWMN_Start_IT:0000000000000000 HAL_TIMEx_PWMN_Start_IT
     /tmp/ccOFTjtU.s:3746   .text.HAL_TIMEx_PWMN_Start_IT:00000000000001c4 $d
     /tmp/ccOFTjtU.s:3758   .text.HAL_TIMEx_PWMN_Stop_IT:0000000000000000 $t
     /tmp/ccOFTjtU.s:3765   .text.HAL_TIMEx_PWMN_Stop_IT:0000000000000000 HAL_TIMEx_PWMN_Stop_IT
     /tmp/ccOFTjtU.s:3966   .text.HAL_TIMEx_PWMN_Start_DMA:0000000000000000 $t
     /tmp/ccOFTjtU.s:3973   .text.HAL_TIMEx_PWMN_Start_DMA:0000000000000000 HAL_TIMEx_PWMN_Start_DMA
     /tmp/ccOFTjtU.s:4464   .text.HAL_TIMEx_PWMN_Start_DMA:00000000000002d4 $d
ARM GAS  /tmp/ccOFTjtU.s 			page 176


     /tmp/ccOFTjtU.s:4479   .text.HAL_TIMEx_PWMN_Stop_DMA:0000000000000000 $t
     /tmp/ccOFTjtU.s:4486   .text.HAL_TIMEx_PWMN_Stop_DMA:0000000000000000 HAL_TIMEx_PWMN_Stop_DMA
     /tmp/ccOFTjtU.s:4680   .text.HAL_TIMEx_OnePulseN_Start:0000000000000000 $t
     /tmp/ccOFTjtU.s:4687   .text.HAL_TIMEx_OnePulseN_Start:0000000000000000 HAL_TIMEx_OnePulseN_Start
     /tmp/ccOFTjtU.s:4811   .text.HAL_TIMEx_OnePulseN_Stop:0000000000000000 $t
     /tmp/ccOFTjtU.s:4818   .text.HAL_TIMEx_OnePulseN_Stop:0000000000000000 HAL_TIMEx_OnePulseN_Stop
     /tmp/ccOFTjtU.s:4946   .text.HAL_TIMEx_OnePulseN_Start_IT:0000000000000000 $t
     /tmp/ccOFTjtU.s:4953   .text.HAL_TIMEx_OnePulseN_Start_IT:0000000000000000 HAL_TIMEx_OnePulseN_Start_IT
     /tmp/ccOFTjtU.s:5093   .text.HAL_TIMEx_OnePulseN_Stop_IT:0000000000000000 $t
     /tmp/ccOFTjtU.s:5100   .text.HAL_TIMEx_OnePulseN_Stop_IT:0000000000000000 HAL_TIMEx_OnePulseN_Stop_IT
     /tmp/ccOFTjtU.s:5244   .text.HAL_TIMEx_ConfigCommutEvent:0000000000000000 $t
     /tmp/ccOFTjtU.s:5251   .text.HAL_TIMEx_ConfigCommutEvent:0000000000000000 HAL_TIMEx_ConfigCommutEvent
     /tmp/ccOFTjtU.s:5400   .text.HAL_TIMEx_ConfigCommutEvent_IT:0000000000000000 $t
     /tmp/ccOFTjtU.s:5407   .text.HAL_TIMEx_ConfigCommutEvent_IT:0000000000000000 HAL_TIMEx_ConfigCommutEvent_IT
     /tmp/ccOFTjtU.s:5556   .text.HAL_TIMEx_ConfigCommutEvent_DMA:0000000000000000 $t
     /tmp/ccOFTjtU.s:5563   .text.HAL_TIMEx_ConfigCommutEvent_DMA:0000000000000000 HAL_TIMEx_ConfigCommutEvent_DMA
     /tmp/ccOFTjtU.s:5729   .text.HAL_TIMEx_ConfigCommutEvent_DMA:00000000000000d8 $d
     /tmp/ccOFTjtU.s:6845   .text.TIMEx_DMACommutationCplt:0000000000000000 TIMEx_DMACommutationCplt
     /tmp/ccOFTjtU.s:6895   .text.TIMEx_DMACommutationHalfCplt:0000000000000000 TIMEx_DMACommutationHalfCplt
     /tmp/ccOFTjtU.s:5736   .text.HAL_TIMEx_MasterConfigSynchronization:0000000000000000 $t
     /tmp/ccOFTjtU.s:5743   .text.HAL_TIMEx_MasterConfigSynchronization:0000000000000000 HAL_TIMEx_MasterConfigSynchronization
     /tmp/ccOFTjtU.s:5929   .text.HAL_TIMEx_MasterConfigSynchronization:0000000000000100 $d
     /tmp/ccOFTjtU.s:5940   .text.HAL_TIMEx_ConfigBreakDeadTime:0000000000000000 $t
     /tmp/ccOFTjtU.s:5947   .text.HAL_TIMEx_ConfigBreakDeadTime:0000000000000000 HAL_TIMEx_ConfigBreakDeadTime
     /tmp/ccOFTjtU.s:6106   .text.HAL_TIMEx_ConfigBreakDeadTime:00000000000000f4 $d
     /tmp/ccOFTjtU.s:6112   .text.HAL_TIMEx_ConfigBreakInput:0000000000000000 $t
     /tmp/ccOFTjtU.s:6119   .text.HAL_TIMEx_ConfigBreakInput:0000000000000000 HAL_TIMEx_ConfigBreakInput
     /tmp/ccOFTjtU.s:6367   .text.HAL_TIMEx_RemapConfig:0000000000000000 $t
     /tmp/ccOFTjtU.s:6374   .text.HAL_TIMEx_RemapConfig:0000000000000000 HAL_TIMEx_RemapConfig
     /tmp/ccOFTjtU.s:6441   .text.HAL_TIMEx_GroupChannel5:0000000000000000 $t
     /tmp/ccOFTjtU.s:6448   .text.HAL_TIMEx_GroupChannel5:0000000000000000 HAL_TIMEx_GroupChannel5
     /tmp/ccOFTjtU.s:6536   .text.HAL_TIMEx_CommutCallback:0000000000000000 $t
     /tmp/ccOFTjtU.s:6543   .text.HAL_TIMEx_CommutCallback:0000000000000000 HAL_TIMEx_CommutCallback
     /tmp/ccOFTjtU.s:6579   .text.HAL_TIMEx_CommutHalfCpltCallback:0000000000000000 $t
     /tmp/ccOFTjtU.s:6586   .text.HAL_TIMEx_CommutHalfCpltCallback:0000000000000000 HAL_TIMEx_CommutHalfCpltCallback
     /tmp/ccOFTjtU.s:6622   .text.HAL_TIMEx_BreakCallback:0000000000000000 $t
     /tmp/ccOFTjtU.s:6629   .text.HAL_TIMEx_BreakCallback:0000000000000000 HAL_TIMEx_BreakCallback
     /tmp/ccOFTjtU.s:6665   .text.HAL_TIMEx_Break2Callback:0000000000000000 $t
     /tmp/ccOFTjtU.s:6672   .text.HAL_TIMEx_Break2Callback:0000000000000000 HAL_TIMEx_Break2Callback
     /tmp/ccOFTjtU.s:6708   .text.HAL_TIMEx_HallSensor_GetState:0000000000000000 $t
     /tmp/ccOFTjtU.s:6715   .text.HAL_TIMEx_HallSensor_GetState:0000000000000000 HAL_TIMEx_HallSensor_GetState
     /tmp/ccOFTjtU.s:6755   .text.HAL_TIMEx_GetChannelNState:0000000000000000 $t
     /tmp/ccOFTjtU.s:6762   .text.HAL_TIMEx_GetChannelNState:0000000000000000 HAL_TIMEx_GetChannelNState
     /tmp/ccOFTjtU.s:6838   .text.TIMEx_DMACommutationCplt:0000000000000000 $t
     /tmp/ccOFTjtU.s:6888   .text.TIMEx_DMACommutationHalfCplt:0000000000000000 $t
     /tmp/ccOFTjtU.s:6938   .text.TIM_DMADelayPulseNCplt:0000000000000000 $t
     /tmp/ccOFTjtU.s:7078   .text.TIM_DMAErrorCCxN:0000000000000000 $t
     /tmp/ccOFTjtU.s:7177   .text.TIM_CCxNChannelCmd:0000000000000000 $t

UNDEFINED SYMBOLS
TIM_Base_SetConfig
TIM_TI1_SetConfig
TIM_OC2_SetConfig
TIM_CCxChannelCmd
HAL_DMA_Start_IT
TIM_DMACaptureCplt
TIM_DMACaptureHalfCplt
ARM GAS  /tmp/ccOFTjtU.s 			page 177


TIM_DMAError
HAL_DMA_Abort_IT
TIM_DMADelayPulseHalfCplt
HAL_TIM_PWM_PulseFinishedCallback
HAL_TIM_ErrorCallback
