ARM GAS  /tmp/ccCiGuAf.s 			page 1


   1              		.cpu cortex-m7
   2              		.eabi_attribute 28, 1
   3              		.eabi_attribute 20, 1
   4              		.eabi_attribute 21, 1
   5              		.eabi_attribute 23, 3
   6              		.eabi_attribute 24, 1
   7              		.eabi_attribute 25, 1
   8              		.eabi_attribute 26, 1
   9              		.eabi_attribute 30, 6
  10              		.eabi_attribute 34, 1
  11              		.eabi_attribute 18, 4
  12              		.file	"stm32f7xx_hal_flash.c"
  13              		.text
  14              	.Ltext0:
  15              		.cfi_sections	.debug_frame
  16              		.comm	pFlash,28,4
  17              		.section	.text.HAL_FLASH_Program,"ax",%progbits
  18              		.align	1
  19              		.global	HAL_FLASH_Program
  20              		.arch armv7e-m
  21              		.syntax unified
  22              		.thumb
  23              		.thumb_func
  24              		.fpu fpv5-d16
  26              	HAL_FLASH_Program:
  27              	.LFB141:
  28              		.file 1 "Drivers/STM32F7xx_HAL_Driver/Src/stm32f7xx_hal_flash.c"
   1:Drivers/STM32F7xx_HAL_Driver/Src/stm32f7xx_hal_flash.c **** /**
   2:Drivers/STM32F7xx_HAL_Driver/Src/stm32f7xx_hal_flash.c ****   ******************************************************************************
   3:Drivers/STM32F7xx_HAL_Driver/Src/stm32f7xx_hal_flash.c ****   * @file    stm32f7xx_hal_flash.c
   4:Drivers/STM32F7xx_HAL_Driver/Src/stm32f7xx_hal_flash.c ****   * @author  MCD Application Team
   5:Drivers/STM32F7xx_HAL_Driver/Src/stm32f7xx_hal_flash.c ****   * @brief   FLASH HAL module driver.
   6:Drivers/STM32F7xx_HAL_Driver/Src/stm32f7xx_hal_flash.c ****   *          This file provides firmware functions to manage the following 
   7:Drivers/STM32F7xx_HAL_Driver/Src/stm32f7xx_hal_flash.c ****   *          functionalities of the internal FLASH memory:
   8:Drivers/STM32F7xx_HAL_Driver/Src/stm32f7xx_hal_flash.c ****   *           + Program operations functions
   9:Drivers/STM32F7xx_HAL_Driver/Src/stm32f7xx_hal_flash.c ****   *           + Memory Control functions 
  10:Drivers/STM32F7xx_HAL_Driver/Src/stm32f7xx_hal_flash.c ****   *           + Peripheral Errors functions
  11:Drivers/STM32F7xx_HAL_Driver/Src/stm32f7xx_hal_flash.c ****   *         
  12:Drivers/STM32F7xx_HAL_Driver/Src/stm32f7xx_hal_flash.c ****   @verbatim
  13:Drivers/STM32F7xx_HAL_Driver/Src/stm32f7xx_hal_flash.c ****   ==============================================================================
  14:Drivers/STM32F7xx_HAL_Driver/Src/stm32f7xx_hal_flash.c ****                         ##### FLASH peripheral features #####
  15:Drivers/STM32F7xx_HAL_Driver/Src/stm32f7xx_hal_flash.c ****   ==============================================================================
  16:Drivers/STM32F7xx_HAL_Driver/Src/stm32f7xx_hal_flash.c ****            
  17:Drivers/STM32F7xx_HAL_Driver/Src/stm32f7xx_hal_flash.c ****   [..] The Flash memory interface manages CPU AHB I-Code and D-Code accesses 
  18:Drivers/STM32F7xx_HAL_Driver/Src/stm32f7xx_hal_flash.c ****        to the Flash memory. It implements the erase and program Flash memory operations 
  19:Drivers/STM32F7xx_HAL_Driver/Src/stm32f7xx_hal_flash.c ****        and the read and write protection mechanisms.
  20:Drivers/STM32F7xx_HAL_Driver/Src/stm32f7xx_hal_flash.c ****       
  21:Drivers/STM32F7xx_HAL_Driver/Src/stm32f7xx_hal_flash.c ****   [..] The Flash memory interface accelerates code execution with a system of instruction
  22:Drivers/STM32F7xx_HAL_Driver/Src/stm32f7xx_hal_flash.c ****        prefetch and cache lines. 
  23:Drivers/STM32F7xx_HAL_Driver/Src/stm32f7xx_hal_flash.c **** 
  24:Drivers/STM32F7xx_HAL_Driver/Src/stm32f7xx_hal_flash.c ****   [..] The FLASH main features are:
  25:Drivers/STM32F7xx_HAL_Driver/Src/stm32f7xx_hal_flash.c ****       (+) Flash memory read operations
  26:Drivers/STM32F7xx_HAL_Driver/Src/stm32f7xx_hal_flash.c ****       (+) Flash memory program/erase operations
  27:Drivers/STM32F7xx_HAL_Driver/Src/stm32f7xx_hal_flash.c ****       (+) Read / write protections
  28:Drivers/STM32F7xx_HAL_Driver/Src/stm32f7xx_hal_flash.c ****       (+) Prefetch on I-Code
  29:Drivers/STM32F7xx_HAL_Driver/Src/stm32f7xx_hal_flash.c ****       (+) 64 cache lines of 128 bits on I-Code
  30:Drivers/STM32F7xx_HAL_Driver/Src/stm32f7xx_hal_flash.c ****       (+) 8 cache lines of 128 bits on D-Code
ARM GAS  /tmp/ccCiGuAf.s 			page 2


  31:Drivers/STM32F7xx_HAL_Driver/Src/stm32f7xx_hal_flash.c ****       
  32:Drivers/STM32F7xx_HAL_Driver/Src/stm32f7xx_hal_flash.c ****                      ##### How to use this driver #####
  33:Drivers/STM32F7xx_HAL_Driver/Src/stm32f7xx_hal_flash.c ****   ==============================================================================
  34:Drivers/STM32F7xx_HAL_Driver/Src/stm32f7xx_hal_flash.c ****     [..]                             
  35:Drivers/STM32F7xx_HAL_Driver/Src/stm32f7xx_hal_flash.c ****       This driver provides functions and macros to configure and program the FLASH 
  36:Drivers/STM32F7xx_HAL_Driver/Src/stm32f7xx_hal_flash.c ****       memory of all STM32F7xx devices.
  37:Drivers/STM32F7xx_HAL_Driver/Src/stm32f7xx_hal_flash.c ****     
  38:Drivers/STM32F7xx_HAL_Driver/Src/stm32f7xx_hal_flash.c ****       (#) FLASH Memory IO Programming functions: 
  39:Drivers/STM32F7xx_HAL_Driver/Src/stm32f7xx_hal_flash.c ****            (++) Lock and Unlock the FLASH interface using HAL_FLASH_Unlock() and 
  40:Drivers/STM32F7xx_HAL_Driver/Src/stm32f7xx_hal_flash.c ****                 HAL_FLASH_Lock() functions
  41:Drivers/STM32F7xx_HAL_Driver/Src/stm32f7xx_hal_flash.c ****            (++) Program functions: byte, half word, word and double word
  42:Drivers/STM32F7xx_HAL_Driver/Src/stm32f7xx_hal_flash.c ****            (++) There Two modes of programming :
  43:Drivers/STM32F7xx_HAL_Driver/Src/stm32f7xx_hal_flash.c ****             (+++) Polling mode using HAL_FLASH_Program() function
  44:Drivers/STM32F7xx_HAL_Driver/Src/stm32f7xx_hal_flash.c ****             (+++) Interrupt mode using HAL_FLASH_Program_IT() function
  45:Drivers/STM32F7xx_HAL_Driver/Src/stm32f7xx_hal_flash.c ****     
  46:Drivers/STM32F7xx_HAL_Driver/Src/stm32f7xx_hal_flash.c ****       (#) Interrupts and flags management functions : 
  47:Drivers/STM32F7xx_HAL_Driver/Src/stm32f7xx_hal_flash.c ****            (++) Handle FLASH interrupts by calling HAL_FLASH_IRQHandler()
  48:Drivers/STM32F7xx_HAL_Driver/Src/stm32f7xx_hal_flash.c ****            (++) Wait for last FLASH operation according to its status
  49:Drivers/STM32F7xx_HAL_Driver/Src/stm32f7xx_hal_flash.c ****            (++) Get error flag status by calling HAL_SetErrorCode()          
  50:Drivers/STM32F7xx_HAL_Driver/Src/stm32f7xx_hal_flash.c ****     [..] 
  51:Drivers/STM32F7xx_HAL_Driver/Src/stm32f7xx_hal_flash.c ****       In addition to these functions, this driver includes a set of macros allowing
  52:Drivers/STM32F7xx_HAL_Driver/Src/stm32f7xx_hal_flash.c ****       to handle the following operations:
  53:Drivers/STM32F7xx_HAL_Driver/Src/stm32f7xx_hal_flash.c ****        (+) Set the latency
  54:Drivers/STM32F7xx_HAL_Driver/Src/stm32f7xx_hal_flash.c ****        (+) Enable/Disable the prefetch buffer
  55:Drivers/STM32F7xx_HAL_Driver/Src/stm32f7xx_hal_flash.c ****        (+) Enable/Disable the Instruction cache and the Data cache
  56:Drivers/STM32F7xx_HAL_Driver/Src/stm32f7xx_hal_flash.c ****        (+) Reset the Instruction cache and the Data cache
  57:Drivers/STM32F7xx_HAL_Driver/Src/stm32f7xx_hal_flash.c ****        (+) Enable/Disable the FLASH interrupts
  58:Drivers/STM32F7xx_HAL_Driver/Src/stm32f7xx_hal_flash.c ****        (+) Monitor the FLASH flags status
  59:Drivers/STM32F7xx_HAL_Driver/Src/stm32f7xx_hal_flash.c ****     [..]	   
  60:Drivers/STM32F7xx_HAL_Driver/Src/stm32f7xx_hal_flash.c **** 	(@) For any Flash memory program operation (erase or program), the CPU clock frequency
  61:Drivers/STM32F7xx_HAL_Driver/Src/stm32f7xx_hal_flash.c ****         (HCLK) must be at least 1MHz. 
  62:Drivers/STM32F7xx_HAL_Driver/Src/stm32f7xx_hal_flash.c **** 	(@) The contents of the Flash memory are not guaranteed if a device reset occurs during 
  63:Drivers/STM32F7xx_HAL_Driver/Src/stm32f7xx_hal_flash.c **** 	    a Flash memory operation.
  64:Drivers/STM32F7xx_HAL_Driver/Src/stm32f7xx_hal_flash.c ****     (@) Any attempt to read the Flash memory while it is being written or erased, causes the 
  65:Drivers/STM32F7xx_HAL_Driver/Src/stm32f7xx_hal_flash.c **** 	    bus to stall. Read operations are processed correctly once the program operation has 
  66:Drivers/STM32F7xx_HAL_Driver/Src/stm32f7xx_hal_flash.c **** 		completed. This means that code or data fetches cannot be performed while a write/erase 
  67:Drivers/STM32F7xx_HAL_Driver/Src/stm32f7xx_hal_flash.c **** 		operation is ongoing.
  68:Drivers/STM32F7xx_HAL_Driver/Src/stm32f7xx_hal_flash.c ****           
  69:Drivers/STM32F7xx_HAL_Driver/Src/stm32f7xx_hal_flash.c ****   @endverbatim
  70:Drivers/STM32F7xx_HAL_Driver/Src/stm32f7xx_hal_flash.c ****   ******************************************************************************
  71:Drivers/STM32F7xx_HAL_Driver/Src/stm32f7xx_hal_flash.c ****   * @attention
  72:Drivers/STM32F7xx_HAL_Driver/Src/stm32f7xx_hal_flash.c ****   *
  73:Drivers/STM32F7xx_HAL_Driver/Src/stm32f7xx_hal_flash.c ****   * <h2><center>&copy; Copyright (c) 2017 STMicroelectronics.
  74:Drivers/STM32F7xx_HAL_Driver/Src/stm32f7xx_hal_flash.c ****   * All rights reserved.</center></h2>
  75:Drivers/STM32F7xx_HAL_Driver/Src/stm32f7xx_hal_flash.c ****   *
  76:Drivers/STM32F7xx_HAL_Driver/Src/stm32f7xx_hal_flash.c ****   * This software component is licensed by ST under BSD 3-Clause license,
  77:Drivers/STM32F7xx_HAL_Driver/Src/stm32f7xx_hal_flash.c ****   * the "License"; You may not use this file except in compliance with the
  78:Drivers/STM32F7xx_HAL_Driver/Src/stm32f7xx_hal_flash.c ****   * License. You may obtain a copy of the License at:
  79:Drivers/STM32F7xx_HAL_Driver/Src/stm32f7xx_hal_flash.c ****   *                        opensource.org/licenses/BSD-3-Clause
  80:Drivers/STM32F7xx_HAL_Driver/Src/stm32f7xx_hal_flash.c ****   *
  81:Drivers/STM32F7xx_HAL_Driver/Src/stm32f7xx_hal_flash.c ****   ******************************************************************************
  82:Drivers/STM32F7xx_HAL_Driver/Src/stm32f7xx_hal_flash.c ****   */ 
  83:Drivers/STM32F7xx_HAL_Driver/Src/stm32f7xx_hal_flash.c **** 
  84:Drivers/STM32F7xx_HAL_Driver/Src/stm32f7xx_hal_flash.c **** /* Includes ------------------------------------------------------------------*/
  85:Drivers/STM32F7xx_HAL_Driver/Src/stm32f7xx_hal_flash.c **** #include "stm32f7xx_hal.h"
  86:Drivers/STM32F7xx_HAL_Driver/Src/stm32f7xx_hal_flash.c **** 
  87:Drivers/STM32F7xx_HAL_Driver/Src/stm32f7xx_hal_flash.c **** /** @addtogroup STM32F7xx_HAL_Driver
ARM GAS  /tmp/ccCiGuAf.s 			page 3


  88:Drivers/STM32F7xx_HAL_Driver/Src/stm32f7xx_hal_flash.c ****   * @{
  89:Drivers/STM32F7xx_HAL_Driver/Src/stm32f7xx_hal_flash.c ****   */
  90:Drivers/STM32F7xx_HAL_Driver/Src/stm32f7xx_hal_flash.c **** 
  91:Drivers/STM32F7xx_HAL_Driver/Src/stm32f7xx_hal_flash.c **** /** @defgroup FLASH FLASH
  92:Drivers/STM32F7xx_HAL_Driver/Src/stm32f7xx_hal_flash.c ****   * @brief FLASH HAL module driver
  93:Drivers/STM32F7xx_HAL_Driver/Src/stm32f7xx_hal_flash.c ****   * @{
  94:Drivers/STM32F7xx_HAL_Driver/Src/stm32f7xx_hal_flash.c ****   */
  95:Drivers/STM32F7xx_HAL_Driver/Src/stm32f7xx_hal_flash.c **** 
  96:Drivers/STM32F7xx_HAL_Driver/Src/stm32f7xx_hal_flash.c **** #ifdef HAL_FLASH_MODULE_ENABLED
  97:Drivers/STM32F7xx_HAL_Driver/Src/stm32f7xx_hal_flash.c **** 
  98:Drivers/STM32F7xx_HAL_Driver/Src/stm32f7xx_hal_flash.c **** /* Private typedef -----------------------------------------------------------*/
  99:Drivers/STM32F7xx_HAL_Driver/Src/stm32f7xx_hal_flash.c **** /* Private define ------------------------------------------------------------*/
 100:Drivers/STM32F7xx_HAL_Driver/Src/stm32f7xx_hal_flash.c **** /** @addtogroup FLASH_Private_Constants
 101:Drivers/STM32F7xx_HAL_Driver/Src/stm32f7xx_hal_flash.c ****   * @{
 102:Drivers/STM32F7xx_HAL_Driver/Src/stm32f7xx_hal_flash.c ****   */
 103:Drivers/STM32F7xx_HAL_Driver/Src/stm32f7xx_hal_flash.c **** #define SECTOR_MASK               ((uint32_t)0xFFFFFF07U)
 104:Drivers/STM32F7xx_HAL_Driver/Src/stm32f7xx_hal_flash.c **** #define FLASH_TIMEOUT_VALUE       ((uint32_t)50000U)/* 50 s */
 105:Drivers/STM32F7xx_HAL_Driver/Src/stm32f7xx_hal_flash.c **** /**
 106:Drivers/STM32F7xx_HAL_Driver/Src/stm32f7xx_hal_flash.c ****   * @}
 107:Drivers/STM32F7xx_HAL_Driver/Src/stm32f7xx_hal_flash.c ****   */         
 108:Drivers/STM32F7xx_HAL_Driver/Src/stm32f7xx_hal_flash.c **** /* Private macro -------------------------------------------------------------*/
 109:Drivers/STM32F7xx_HAL_Driver/Src/stm32f7xx_hal_flash.c **** /* Private variables ---------------------------------------------------------*/
 110:Drivers/STM32F7xx_HAL_Driver/Src/stm32f7xx_hal_flash.c **** /** @addtogroup FLASH_Private_Variables
 111:Drivers/STM32F7xx_HAL_Driver/Src/stm32f7xx_hal_flash.c ****   * @{
 112:Drivers/STM32F7xx_HAL_Driver/Src/stm32f7xx_hal_flash.c ****   */
 113:Drivers/STM32F7xx_HAL_Driver/Src/stm32f7xx_hal_flash.c **** /* Variable used for Erase sectors under interruption */
 114:Drivers/STM32F7xx_HAL_Driver/Src/stm32f7xx_hal_flash.c **** FLASH_ProcessTypeDef pFlash;
 115:Drivers/STM32F7xx_HAL_Driver/Src/stm32f7xx_hal_flash.c **** /**
 116:Drivers/STM32F7xx_HAL_Driver/Src/stm32f7xx_hal_flash.c ****   * @}
 117:Drivers/STM32F7xx_HAL_Driver/Src/stm32f7xx_hal_flash.c ****   */
 118:Drivers/STM32F7xx_HAL_Driver/Src/stm32f7xx_hal_flash.c **** 
 119:Drivers/STM32F7xx_HAL_Driver/Src/stm32f7xx_hal_flash.c **** /* Private function prototypes -----------------------------------------------*/
 120:Drivers/STM32F7xx_HAL_Driver/Src/stm32f7xx_hal_flash.c **** /** @addtogroup FLASH_Private_Functions
 121:Drivers/STM32F7xx_HAL_Driver/Src/stm32f7xx_hal_flash.c ****   * @{
 122:Drivers/STM32F7xx_HAL_Driver/Src/stm32f7xx_hal_flash.c ****   */
 123:Drivers/STM32F7xx_HAL_Driver/Src/stm32f7xx_hal_flash.c **** /* Program operations */
 124:Drivers/STM32F7xx_HAL_Driver/Src/stm32f7xx_hal_flash.c **** static void   FLASH_Program_DoubleWord(uint32_t Address, uint64_t Data);
 125:Drivers/STM32F7xx_HAL_Driver/Src/stm32f7xx_hal_flash.c **** static void   FLASH_Program_Word(uint32_t Address, uint32_t Data);
 126:Drivers/STM32F7xx_HAL_Driver/Src/stm32f7xx_hal_flash.c **** static void   FLASH_Program_HalfWord(uint32_t Address, uint16_t Data);
 127:Drivers/STM32F7xx_HAL_Driver/Src/stm32f7xx_hal_flash.c **** static void   FLASH_Program_Byte(uint32_t Address, uint8_t Data);
 128:Drivers/STM32F7xx_HAL_Driver/Src/stm32f7xx_hal_flash.c **** static void   FLASH_SetErrorCode(void);
 129:Drivers/STM32F7xx_HAL_Driver/Src/stm32f7xx_hal_flash.c **** 
 130:Drivers/STM32F7xx_HAL_Driver/Src/stm32f7xx_hal_flash.c **** HAL_StatusTypeDef FLASH_WaitForLastOperation(uint32_t Timeout);
 131:Drivers/STM32F7xx_HAL_Driver/Src/stm32f7xx_hal_flash.c **** /**
 132:Drivers/STM32F7xx_HAL_Driver/Src/stm32f7xx_hal_flash.c ****   * @}
 133:Drivers/STM32F7xx_HAL_Driver/Src/stm32f7xx_hal_flash.c ****   */
 134:Drivers/STM32F7xx_HAL_Driver/Src/stm32f7xx_hal_flash.c **** 
 135:Drivers/STM32F7xx_HAL_Driver/Src/stm32f7xx_hal_flash.c **** /* Exported functions --------------------------------------------------------*/
 136:Drivers/STM32F7xx_HAL_Driver/Src/stm32f7xx_hal_flash.c **** /** @defgroup FLASH_Exported_Functions FLASH Exported Functions
 137:Drivers/STM32F7xx_HAL_Driver/Src/stm32f7xx_hal_flash.c ****   * @{
 138:Drivers/STM32F7xx_HAL_Driver/Src/stm32f7xx_hal_flash.c ****   */
 139:Drivers/STM32F7xx_HAL_Driver/Src/stm32f7xx_hal_flash.c ****   
 140:Drivers/STM32F7xx_HAL_Driver/Src/stm32f7xx_hal_flash.c **** /** @defgroup FLASH_Exported_Functions_Group1 Programming operation functions 
 141:Drivers/STM32F7xx_HAL_Driver/Src/stm32f7xx_hal_flash.c ****  *  @brief   Programming operation functions 
 142:Drivers/STM32F7xx_HAL_Driver/Src/stm32f7xx_hal_flash.c ****  *
 143:Drivers/STM32F7xx_HAL_Driver/Src/stm32f7xx_hal_flash.c **** @verbatim   
 144:Drivers/STM32F7xx_HAL_Driver/Src/stm32f7xx_hal_flash.c ****  ===============================================================================
ARM GAS  /tmp/ccCiGuAf.s 			page 4


 145:Drivers/STM32F7xx_HAL_Driver/Src/stm32f7xx_hal_flash.c ****                   ##### Programming operation functions #####
 146:Drivers/STM32F7xx_HAL_Driver/Src/stm32f7xx_hal_flash.c ****  ===============================================================================  
 147:Drivers/STM32F7xx_HAL_Driver/Src/stm32f7xx_hal_flash.c ****     [..]
 148:Drivers/STM32F7xx_HAL_Driver/Src/stm32f7xx_hal_flash.c ****     This subsection provides a set of functions allowing to manage the FLASH 
 149:Drivers/STM32F7xx_HAL_Driver/Src/stm32f7xx_hal_flash.c ****     program operations.
 150:Drivers/STM32F7xx_HAL_Driver/Src/stm32f7xx_hal_flash.c **** 
 151:Drivers/STM32F7xx_HAL_Driver/Src/stm32f7xx_hal_flash.c **** @endverbatim
 152:Drivers/STM32F7xx_HAL_Driver/Src/stm32f7xx_hal_flash.c ****   * @{
 153:Drivers/STM32F7xx_HAL_Driver/Src/stm32f7xx_hal_flash.c ****   */
 154:Drivers/STM32F7xx_HAL_Driver/Src/stm32f7xx_hal_flash.c **** 
 155:Drivers/STM32F7xx_HAL_Driver/Src/stm32f7xx_hal_flash.c **** /**
 156:Drivers/STM32F7xx_HAL_Driver/Src/stm32f7xx_hal_flash.c ****   * @brief  Program byte, halfword, word or double word at a specified address
 157:Drivers/STM32F7xx_HAL_Driver/Src/stm32f7xx_hal_flash.c ****   * @param  TypeProgram  Indicate the way to program at a specified address.
 158:Drivers/STM32F7xx_HAL_Driver/Src/stm32f7xx_hal_flash.c ****   *                           This parameter can be a value of @ref FLASH_Type_Program
 159:Drivers/STM32F7xx_HAL_Driver/Src/stm32f7xx_hal_flash.c ****   * @param  Address  specifies the address to be programmed.
 160:Drivers/STM32F7xx_HAL_Driver/Src/stm32f7xx_hal_flash.c ****   * @param  Data specifies the data to be programmed
 161:Drivers/STM32F7xx_HAL_Driver/Src/stm32f7xx_hal_flash.c ****   * 
 162:Drivers/STM32F7xx_HAL_Driver/Src/stm32f7xx_hal_flash.c ****   * @retval HAL_StatusTypeDef HAL Status
 163:Drivers/STM32F7xx_HAL_Driver/Src/stm32f7xx_hal_flash.c ****   */
 164:Drivers/STM32F7xx_HAL_Driver/Src/stm32f7xx_hal_flash.c **** HAL_StatusTypeDef HAL_FLASH_Program(uint32_t TypeProgram, uint32_t Address, uint64_t Data)
 165:Drivers/STM32F7xx_HAL_Driver/Src/stm32f7xx_hal_flash.c **** {
  29              		.loc 1 165 1
  30              		.cfi_startproc
  31              		@ args = 0, pretend = 0, frame = 24
  32              		@ frame_needed = 1, uses_anonymous_args = 0
  33 0000 80B5     		push	{r7, lr}
  34              	.LCFI0:
  35              		.cfi_def_cfa_offset 8
  36              		.cfi_offset 7, -8
  37              		.cfi_offset 14, -4
  38 0002 86B0     		sub	sp, sp, #24
  39              	.LCFI1:
  40              		.cfi_def_cfa_offset 32
  41 0004 00AF     		add	r7, sp, #0
  42              	.LCFI2:
  43              		.cfi_def_cfa_register 7
  44 0006 F860     		str	r0, [r7, #12]
  45 0008 B960     		str	r1, [r7, #8]
  46 000a C7E90023 		strd	r2, [r7]
 166:Drivers/STM32F7xx_HAL_Driver/Src/stm32f7xx_hal_flash.c ****   HAL_StatusTypeDef status = HAL_ERROR;
  47              		.loc 1 166 21
  48 000e 0123     		movs	r3, #1
  49 0010 FB75     		strb	r3, [r7, #23]
 167:Drivers/STM32F7xx_HAL_Driver/Src/stm32f7xx_hal_flash.c ****   
 168:Drivers/STM32F7xx_HAL_Driver/Src/stm32f7xx_hal_flash.c ****   /* Process Locked */
 169:Drivers/STM32F7xx_HAL_Driver/Src/stm32f7xx_hal_flash.c ****   __HAL_LOCK(&pFlash);
  50              		.loc 1 169 3
  51 0012 274B     		ldr	r3, .L13
  52 0014 1B7D     		ldrb	r3, [r3, #20]	@ zero_extendqisi2
  53 0016 012B     		cmp	r3, #1
  54 0018 01D1     		bne	.L2
  55              		.loc 1 169 3 is_stmt 0 discriminator 1
  56 001a 0223     		movs	r3, #2
  57 001c 43E0     		b	.L3
  58              	.L2:
  59              		.loc 1 169 3 discriminator 2
  60 001e 244B     		ldr	r3, .L13
ARM GAS  /tmp/ccCiGuAf.s 			page 5


  61 0020 0122     		movs	r2, #1
  62 0022 1A75     		strb	r2, [r3, #20]
 170:Drivers/STM32F7xx_HAL_Driver/Src/stm32f7xx_hal_flash.c **** 
 171:Drivers/STM32F7xx_HAL_Driver/Src/stm32f7xx_hal_flash.c ****   /* Check the parameters */
 172:Drivers/STM32F7xx_HAL_Driver/Src/stm32f7xx_hal_flash.c ****   assert_param(IS_FLASH_TYPEPROGRAM(TypeProgram));
 173:Drivers/STM32F7xx_HAL_Driver/Src/stm32f7xx_hal_flash.c **** 
 174:Drivers/STM32F7xx_HAL_Driver/Src/stm32f7xx_hal_flash.c ****   /* Wait for last operation to be completed */
 175:Drivers/STM32F7xx_HAL_Driver/Src/stm32f7xx_hal_flash.c ****   status = FLASH_WaitForLastOperation((uint32_t)FLASH_TIMEOUT_VALUE);
  63              		.loc 1 175 12 is_stmt 1 discriminator 2
  64 0024 4CF25030 		movw	r0, #50000
  65 0028 FFF7FEFF 		bl	FLASH_WaitForLastOperation
  66 002c 0346     		mov	r3, r0
  67 002e FB75     		strb	r3, [r7, #23]
 176:Drivers/STM32F7xx_HAL_Driver/Src/stm32f7xx_hal_flash.c ****   
 177:Drivers/STM32F7xx_HAL_Driver/Src/stm32f7xx_hal_flash.c ****   if(status == HAL_OK)
  68              		.loc 1 177 5 discriminator 2
  69 0030 FB7D     		ldrb	r3, [r7, #23]	@ zero_extendqisi2
  70 0032 002B     		cmp	r3, #0
  71 0034 33D1     		bne	.L4
  72 0036 FB68     		ldr	r3, [r7, #12]
  73 0038 032B     		cmp	r3, #3
  74 003a 23D8     		bhi	.L12
  75 003c 01A2     		adr	r2, .L7
  76 003e 52F823F0 		ldr	pc, [r2, r3, lsl #2]
  77 0042 00BF     		.p2align 2
  78              	.L7:
  79 0044 55000000 		.word	.L10+1
  80 0048 61000000 		.word	.L9+1
  81 004c 6D000000 		.word	.L8+1
  82 0050 79000000 		.word	.L6+1
  83              		.p2align 1
  84              	.L10:
 178:Drivers/STM32F7xx_HAL_Driver/Src/stm32f7xx_hal_flash.c ****   {
 179:Drivers/STM32F7xx_HAL_Driver/Src/stm32f7xx_hal_flash.c ****     switch(TypeProgram)
 180:Drivers/STM32F7xx_HAL_Driver/Src/stm32f7xx_hal_flash.c ****     {
 181:Drivers/STM32F7xx_HAL_Driver/Src/stm32f7xx_hal_flash.c ****       case FLASH_TYPEPROGRAM_BYTE :
 182:Drivers/STM32F7xx_HAL_Driver/Src/stm32f7xx_hal_flash.c ****       {
 183:Drivers/STM32F7xx_HAL_Driver/Src/stm32f7xx_hal_flash.c ****         /*Program byte (8-bit) at a specified address.*/
 184:Drivers/STM32F7xx_HAL_Driver/Src/stm32f7xx_hal_flash.c ****         FLASH_Program_Byte(Address, (uint8_t) Data);
  85              		.loc 1 184 9
  86 0054 3B78     		ldrb	r3, [r7]	@ zero_extendqisi2
  87 0056 1946     		mov	r1, r3
  88 0058 B868     		ldr	r0, [r7, #8]
  89 005a FFF7FEFF 		bl	FLASH_Program_Byte
 185:Drivers/STM32F7xx_HAL_Driver/Src/stm32f7xx_hal_flash.c ****         break;
  90              		.loc 1 185 9
  91 005e 12E0     		b	.L11
  92              	.L9:
 186:Drivers/STM32F7xx_HAL_Driver/Src/stm32f7xx_hal_flash.c ****       }
 187:Drivers/STM32F7xx_HAL_Driver/Src/stm32f7xx_hal_flash.c ****       
 188:Drivers/STM32F7xx_HAL_Driver/Src/stm32f7xx_hal_flash.c ****       case FLASH_TYPEPROGRAM_HALFWORD :
 189:Drivers/STM32F7xx_HAL_Driver/Src/stm32f7xx_hal_flash.c ****       {
 190:Drivers/STM32F7xx_HAL_Driver/Src/stm32f7xx_hal_flash.c ****         /*Program halfword (16-bit) at a specified address.*/
 191:Drivers/STM32F7xx_HAL_Driver/Src/stm32f7xx_hal_flash.c ****         FLASH_Program_HalfWord(Address, (uint16_t) Data);
  93              		.loc 1 191 9
  94 0060 3B88     		ldrh	r3, [r7]
  95 0062 1946     		mov	r1, r3
ARM GAS  /tmp/ccCiGuAf.s 			page 6


  96 0064 B868     		ldr	r0, [r7, #8]
  97 0066 FFF7FEFF 		bl	FLASH_Program_HalfWord
 192:Drivers/STM32F7xx_HAL_Driver/Src/stm32f7xx_hal_flash.c ****         break;
  98              		.loc 1 192 9
  99 006a 0CE0     		b	.L11
 100              	.L8:
 193:Drivers/STM32F7xx_HAL_Driver/Src/stm32f7xx_hal_flash.c ****       }
 194:Drivers/STM32F7xx_HAL_Driver/Src/stm32f7xx_hal_flash.c ****       
 195:Drivers/STM32F7xx_HAL_Driver/Src/stm32f7xx_hal_flash.c ****       case FLASH_TYPEPROGRAM_WORD :
 196:Drivers/STM32F7xx_HAL_Driver/Src/stm32f7xx_hal_flash.c ****       {
 197:Drivers/STM32F7xx_HAL_Driver/Src/stm32f7xx_hal_flash.c ****         /*Program word (32-bit) at a specified address.*/
 198:Drivers/STM32F7xx_HAL_Driver/Src/stm32f7xx_hal_flash.c ****         FLASH_Program_Word(Address, (uint32_t) Data);
 101              		.loc 1 198 9
 102 006c 3B68     		ldr	r3, [r7]
 103 006e 1946     		mov	r1, r3
 104 0070 B868     		ldr	r0, [r7, #8]
 105 0072 FFF7FEFF 		bl	FLASH_Program_Word
 199:Drivers/STM32F7xx_HAL_Driver/Src/stm32f7xx_hal_flash.c ****         break;
 106              		.loc 1 199 9
 107 0076 06E0     		b	.L11
 108              	.L6:
 200:Drivers/STM32F7xx_HAL_Driver/Src/stm32f7xx_hal_flash.c ****       }
 201:Drivers/STM32F7xx_HAL_Driver/Src/stm32f7xx_hal_flash.c ****       
 202:Drivers/STM32F7xx_HAL_Driver/Src/stm32f7xx_hal_flash.c ****       case FLASH_TYPEPROGRAM_DOUBLEWORD :
 203:Drivers/STM32F7xx_HAL_Driver/Src/stm32f7xx_hal_flash.c ****       {
 204:Drivers/STM32F7xx_HAL_Driver/Src/stm32f7xx_hal_flash.c ****         /*Program double word (64-bit) at a specified address.*/
 205:Drivers/STM32F7xx_HAL_Driver/Src/stm32f7xx_hal_flash.c ****         FLASH_Program_DoubleWord(Address, Data);
 109              		.loc 1 205 9
 110 0078 D7E90023 		ldrd	r2, [r7]
 111 007c B868     		ldr	r0, [r7, #8]
 112 007e FFF7FEFF 		bl	FLASH_Program_DoubleWord
 206:Drivers/STM32F7xx_HAL_Driver/Src/stm32f7xx_hal_flash.c ****         break;
 113              		.loc 1 206 9
 114 0082 00E0     		b	.L11
 115              	.L12:
 207:Drivers/STM32F7xx_HAL_Driver/Src/stm32f7xx_hal_flash.c ****       }
 208:Drivers/STM32F7xx_HAL_Driver/Src/stm32f7xx_hal_flash.c ****       default :
 209:Drivers/STM32F7xx_HAL_Driver/Src/stm32f7xx_hal_flash.c ****         break;
 116              		.loc 1 209 9
 117 0084 00BF     		nop
 118              	.L11:
 210:Drivers/STM32F7xx_HAL_Driver/Src/stm32f7xx_hal_flash.c ****     }
 211:Drivers/STM32F7xx_HAL_Driver/Src/stm32f7xx_hal_flash.c ****     /* Wait for last operation to be completed */
 212:Drivers/STM32F7xx_HAL_Driver/Src/stm32f7xx_hal_flash.c ****     status = FLASH_WaitForLastOperation((uint32_t)FLASH_TIMEOUT_VALUE);
 119              		.loc 1 212 14
 120 0086 4CF25030 		movw	r0, #50000
 121 008a FFF7FEFF 		bl	FLASH_WaitForLastOperation
 122 008e 0346     		mov	r3, r0
 123 0090 FB75     		strb	r3, [r7, #23]
 213:Drivers/STM32F7xx_HAL_Driver/Src/stm32f7xx_hal_flash.c ****     
 214:Drivers/STM32F7xx_HAL_Driver/Src/stm32f7xx_hal_flash.c ****     /* If the program operation is completed, disable the PG Bit */
 215:Drivers/STM32F7xx_HAL_Driver/Src/stm32f7xx_hal_flash.c ****     FLASH->CR &= (~FLASH_CR_PG);
 124              		.loc 1 215 15
 125 0092 084B     		ldr	r3, .L13+4
 126 0094 1B69     		ldr	r3, [r3, #16]
 127 0096 074A     		ldr	r2, .L13+4
 128 0098 23F00103 		bic	r3, r3, #1
ARM GAS  /tmp/ccCiGuAf.s 			page 7


 129 009c 1361     		str	r3, [r2, #16]
 130              	.L4:
 216:Drivers/STM32F7xx_HAL_Driver/Src/stm32f7xx_hal_flash.c ****   }
 217:Drivers/STM32F7xx_HAL_Driver/Src/stm32f7xx_hal_flash.c **** 
 218:Drivers/STM32F7xx_HAL_Driver/Src/stm32f7xx_hal_flash.c ****   /* Process Unlocked */
 219:Drivers/STM32F7xx_HAL_Driver/Src/stm32f7xx_hal_flash.c ****   __HAL_UNLOCK(&pFlash);
 131              		.loc 1 219 3
 132 009e 044B     		ldr	r3, .L13
 133 00a0 0022     		movs	r2, #0
 134 00a2 1A75     		strb	r2, [r3, #20]
 220:Drivers/STM32F7xx_HAL_Driver/Src/stm32f7xx_hal_flash.c **** 
 221:Drivers/STM32F7xx_HAL_Driver/Src/stm32f7xx_hal_flash.c ****   return status;
 135              		.loc 1 221 10
 136 00a4 FB7D     		ldrb	r3, [r7, #23]	@ zero_extendqisi2
 137              	.L3:
 222:Drivers/STM32F7xx_HAL_Driver/Src/stm32f7xx_hal_flash.c **** }
 138              		.loc 1 222 1
 139 00a6 1846     		mov	r0, r3
 140 00a8 1837     		adds	r7, r7, #24
 141              	.LCFI3:
 142              		.cfi_def_cfa_offset 8
 143 00aa BD46     		mov	sp, r7
 144              	.LCFI4:
 145              		.cfi_def_cfa_register 13
 146              		@ sp needed
 147 00ac 80BD     		pop	{r7, pc}
 148              	.L14:
 149 00ae 00BF     		.align	2
 150              	.L13:
 151 00b0 00000000 		.word	pFlash
 152 00b4 003C0240 		.word	1073888256
 153              		.cfi_endproc
 154              	.LFE141:
 156              		.section	.text.HAL_FLASH_Program_IT,"ax",%progbits
 157              		.align	1
 158              		.global	HAL_FLASH_Program_IT
 159              		.syntax unified
 160              		.thumb
 161              		.thumb_func
 162              		.fpu fpv5-d16
 164              	HAL_FLASH_Program_IT:
 165              	.LFB142:
 223:Drivers/STM32F7xx_HAL_Driver/Src/stm32f7xx_hal_flash.c **** 
 224:Drivers/STM32F7xx_HAL_Driver/Src/stm32f7xx_hal_flash.c **** /**
 225:Drivers/STM32F7xx_HAL_Driver/Src/stm32f7xx_hal_flash.c ****   * @brief   Program byte, halfword, word or double word at a specified address  with interrupt ena
 226:Drivers/STM32F7xx_HAL_Driver/Src/stm32f7xx_hal_flash.c ****   * @param  TypeProgram  Indicate the way to program at a specified address.
 227:Drivers/STM32F7xx_HAL_Driver/Src/stm32f7xx_hal_flash.c ****   *                           This parameter can be a value of @ref FLASH_Type_Program
 228:Drivers/STM32F7xx_HAL_Driver/Src/stm32f7xx_hal_flash.c ****   * @param  Address  specifies the address to be programmed.
 229:Drivers/STM32F7xx_HAL_Driver/Src/stm32f7xx_hal_flash.c ****   * @param  Data specifies the data to be programmed
 230:Drivers/STM32F7xx_HAL_Driver/Src/stm32f7xx_hal_flash.c ****   * 
 231:Drivers/STM32F7xx_HAL_Driver/Src/stm32f7xx_hal_flash.c ****   * @retval HAL Status
 232:Drivers/STM32F7xx_HAL_Driver/Src/stm32f7xx_hal_flash.c ****   */
 233:Drivers/STM32F7xx_HAL_Driver/Src/stm32f7xx_hal_flash.c **** HAL_StatusTypeDef HAL_FLASH_Program_IT(uint32_t TypeProgram, uint32_t Address, uint64_t Data)
 234:Drivers/STM32F7xx_HAL_Driver/Src/stm32f7xx_hal_flash.c **** {
 166              		.loc 1 234 1
 167              		.cfi_startproc
 168              		@ args = 0, pretend = 0, frame = 24
ARM GAS  /tmp/ccCiGuAf.s 			page 8


 169              		@ frame_needed = 1, uses_anonymous_args = 0
 170 0000 80B5     		push	{r7, lr}
 171              	.LCFI5:
 172              		.cfi_def_cfa_offset 8
 173              		.cfi_offset 7, -8
 174              		.cfi_offset 14, -4
 175 0002 86B0     		sub	sp, sp, #24
 176              	.LCFI6:
 177              		.cfi_def_cfa_offset 32
 178 0004 00AF     		add	r7, sp, #0
 179              	.LCFI7:
 180              		.cfi_def_cfa_register 7
 181 0006 F860     		str	r0, [r7, #12]
 182 0008 B960     		str	r1, [r7, #8]
 183 000a C7E90023 		strd	r2, [r7]
 235:Drivers/STM32F7xx_HAL_Driver/Src/stm32f7xx_hal_flash.c ****   HAL_StatusTypeDef status = HAL_OK;
 184              		.loc 1 235 21
 185 000e 0023     		movs	r3, #0
 186 0010 FB75     		strb	r3, [r7, #23]
 236:Drivers/STM32F7xx_HAL_Driver/Src/stm32f7xx_hal_flash.c ****   
 237:Drivers/STM32F7xx_HAL_Driver/Src/stm32f7xx_hal_flash.c ****   /* Process Locked */
 238:Drivers/STM32F7xx_HAL_Driver/Src/stm32f7xx_hal_flash.c ****   __HAL_LOCK(&pFlash);
 187              		.loc 1 238 3
 188 0012 254B     		ldr	r3, .L26
 189 0014 1B7D     		ldrb	r3, [r3, #20]	@ zero_extendqisi2
 190 0016 012B     		cmp	r3, #1
 191 0018 01D1     		bne	.L16
 192              		.loc 1 238 3 is_stmt 0 discriminator 1
 193 001a 0223     		movs	r3, #2
 194 001c 40E0     		b	.L17
 195              	.L16:
 196              		.loc 1 238 3 discriminator 2
 197 001e 224B     		ldr	r3, .L26
 198 0020 0122     		movs	r2, #1
 199 0022 1A75     		strb	r2, [r3, #20]
 239:Drivers/STM32F7xx_HAL_Driver/Src/stm32f7xx_hal_flash.c **** 
 240:Drivers/STM32F7xx_HAL_Driver/Src/stm32f7xx_hal_flash.c ****   /* Check the parameters */
 241:Drivers/STM32F7xx_HAL_Driver/Src/stm32f7xx_hal_flash.c ****   assert_param(IS_FLASH_TYPEPROGRAM(TypeProgram));
 242:Drivers/STM32F7xx_HAL_Driver/Src/stm32f7xx_hal_flash.c **** 
 243:Drivers/STM32F7xx_HAL_Driver/Src/stm32f7xx_hal_flash.c ****   /* Enable End of FLASH Operation interrupt */
 244:Drivers/STM32F7xx_HAL_Driver/Src/stm32f7xx_hal_flash.c ****   __HAL_FLASH_ENABLE_IT(FLASH_IT_EOP);
 200              		.loc 1 244 3 is_stmt 1 discriminator 2
 201 0024 214B     		ldr	r3, .L26+4
 202 0026 1B69     		ldr	r3, [r3, #16]
 203 0028 204A     		ldr	r2, .L26+4
 204 002a 43F08073 		orr	r3, r3, #16777216
 205 002e 1361     		str	r3, [r2, #16]
 245:Drivers/STM32F7xx_HAL_Driver/Src/stm32f7xx_hal_flash.c ****   
 246:Drivers/STM32F7xx_HAL_Driver/Src/stm32f7xx_hal_flash.c ****   /* Enable Error source interrupt */
 247:Drivers/STM32F7xx_HAL_Driver/Src/stm32f7xx_hal_flash.c ****   __HAL_FLASH_ENABLE_IT(FLASH_IT_ERR);
 206              		.loc 1 247 3 discriminator 2
 207 0030 1E4B     		ldr	r3, .L26+4
 208 0032 1B69     		ldr	r3, [r3, #16]
 209 0034 1D4A     		ldr	r2, .L26+4
 210 0036 43F00073 		orr	r3, r3, #33554432
 211 003a 1361     		str	r3, [r2, #16]
 248:Drivers/STM32F7xx_HAL_Driver/Src/stm32f7xx_hal_flash.c ****   
ARM GAS  /tmp/ccCiGuAf.s 			page 9


 249:Drivers/STM32F7xx_HAL_Driver/Src/stm32f7xx_hal_flash.c ****   /* Clear pending flags (if any) */  
 250:Drivers/STM32F7xx_HAL_Driver/Src/stm32f7xx_hal_flash.c ****   __HAL_FLASH_CLEAR_FLAG(FLASH_FLAG_EOP    | FLASH_FLAG_OPERR | FLASH_FLAG_WRPERR |\
 212              		.loc 1 250 3 discriminator 2
 213 003c 1B4B     		ldr	r3, .L26+4
 214 003e F322     		movs	r2, #243
 215 0040 DA60     		str	r2, [r3, #12]
 251:Drivers/STM32F7xx_HAL_Driver/Src/stm32f7xx_hal_flash.c ****                          FLASH_FLAG_PGAERR | FLASH_FLAG_PGPERR| FLASH_FLAG_ERSERR);  
 252:Drivers/STM32F7xx_HAL_Driver/Src/stm32f7xx_hal_flash.c **** 
 253:Drivers/STM32F7xx_HAL_Driver/Src/stm32f7xx_hal_flash.c ****   pFlash.ProcedureOnGoing = FLASH_PROC_PROGRAM;
 216              		.loc 1 253 27 discriminator 2
 217 0042 194B     		ldr	r3, .L26
 218 0044 0322     		movs	r2, #3
 219 0046 1A70     		strb	r2, [r3]
 254:Drivers/STM32F7xx_HAL_Driver/Src/stm32f7xx_hal_flash.c ****   pFlash.Address = Address;
 220              		.loc 1 254 18 discriminator 2
 221 0048 174A     		ldr	r2, .L26
 222 004a BB68     		ldr	r3, [r7, #8]
 223 004c 1361     		str	r3, [r2, #16]
 224 004e FB68     		ldr	r3, [r7, #12]
 225 0050 032B     		cmp	r3, #3
 226 0052 23D8     		bhi	.L25
 227 0054 01A2     		adr	r2, .L20
 228 0056 52F823F0 		ldr	pc, [r2, r3, lsl #2]
 229 005a 00BF     		.p2align 2
 230              	.L20:
 231 005c 6D000000 		.word	.L23+1
 232 0060 79000000 		.word	.L22+1
 233 0064 85000000 		.word	.L21+1
 234 0068 91000000 		.word	.L19+1
 235              		.p2align 1
 236              	.L23:
 255:Drivers/STM32F7xx_HAL_Driver/Src/stm32f7xx_hal_flash.c ****   
 256:Drivers/STM32F7xx_HAL_Driver/Src/stm32f7xx_hal_flash.c ****   switch(TypeProgram)
 257:Drivers/STM32F7xx_HAL_Driver/Src/stm32f7xx_hal_flash.c ****   {
 258:Drivers/STM32F7xx_HAL_Driver/Src/stm32f7xx_hal_flash.c ****     case FLASH_TYPEPROGRAM_BYTE :
 259:Drivers/STM32F7xx_HAL_Driver/Src/stm32f7xx_hal_flash.c ****     {
 260:Drivers/STM32F7xx_HAL_Driver/Src/stm32f7xx_hal_flash.c ****       /*Program byte (8-bit) at a specified address.*/
 261:Drivers/STM32F7xx_HAL_Driver/Src/stm32f7xx_hal_flash.c ****       FLASH_Program_Byte(Address, (uint8_t) Data);
 237              		.loc 1 261 7
 238 006c 3B78     		ldrb	r3, [r7]	@ zero_extendqisi2
 239 006e 1946     		mov	r1, r3
 240 0070 B868     		ldr	r0, [r7, #8]
 241 0072 FFF7FEFF 		bl	FLASH_Program_Byte
 262:Drivers/STM32F7xx_HAL_Driver/Src/stm32f7xx_hal_flash.c ****       break;
 242              		.loc 1 262 7
 243 0076 12E0     		b	.L24
 244              	.L22:
 263:Drivers/STM32F7xx_HAL_Driver/Src/stm32f7xx_hal_flash.c ****     }
 264:Drivers/STM32F7xx_HAL_Driver/Src/stm32f7xx_hal_flash.c ****     
 265:Drivers/STM32F7xx_HAL_Driver/Src/stm32f7xx_hal_flash.c ****     case FLASH_TYPEPROGRAM_HALFWORD :
 266:Drivers/STM32F7xx_HAL_Driver/Src/stm32f7xx_hal_flash.c ****     {
 267:Drivers/STM32F7xx_HAL_Driver/Src/stm32f7xx_hal_flash.c ****       /*Program halfword (16-bit) at a specified address.*/
 268:Drivers/STM32F7xx_HAL_Driver/Src/stm32f7xx_hal_flash.c ****       FLASH_Program_HalfWord(Address, (uint16_t) Data);
 245              		.loc 1 268 7
 246 0078 3B88     		ldrh	r3, [r7]
 247 007a 1946     		mov	r1, r3
 248 007c B868     		ldr	r0, [r7, #8]
ARM GAS  /tmp/ccCiGuAf.s 			page 10


 249 007e FFF7FEFF 		bl	FLASH_Program_HalfWord
 269:Drivers/STM32F7xx_HAL_Driver/Src/stm32f7xx_hal_flash.c ****       break;
 250              		.loc 1 269 7
 251 0082 0CE0     		b	.L24
 252              	.L21:
 270:Drivers/STM32F7xx_HAL_Driver/Src/stm32f7xx_hal_flash.c ****     }
 271:Drivers/STM32F7xx_HAL_Driver/Src/stm32f7xx_hal_flash.c ****     
 272:Drivers/STM32F7xx_HAL_Driver/Src/stm32f7xx_hal_flash.c ****     case FLASH_TYPEPROGRAM_WORD :
 273:Drivers/STM32F7xx_HAL_Driver/Src/stm32f7xx_hal_flash.c ****     {
 274:Drivers/STM32F7xx_HAL_Driver/Src/stm32f7xx_hal_flash.c ****       /*Program word (32-bit) at a specified address.*/
 275:Drivers/STM32F7xx_HAL_Driver/Src/stm32f7xx_hal_flash.c ****       FLASH_Program_Word(Address, (uint32_t) Data);
 253              		.loc 1 275 7
 254 0084 3B68     		ldr	r3, [r7]
 255 0086 1946     		mov	r1, r3
 256 0088 B868     		ldr	r0, [r7, #8]
 257 008a FFF7FEFF 		bl	FLASH_Program_Word
 276:Drivers/STM32F7xx_HAL_Driver/Src/stm32f7xx_hal_flash.c ****       break;
 258              		.loc 1 276 7
 259 008e 06E0     		b	.L24
 260              	.L19:
 277:Drivers/STM32F7xx_HAL_Driver/Src/stm32f7xx_hal_flash.c ****     }
 278:Drivers/STM32F7xx_HAL_Driver/Src/stm32f7xx_hal_flash.c ****     
 279:Drivers/STM32F7xx_HAL_Driver/Src/stm32f7xx_hal_flash.c ****     case FLASH_TYPEPROGRAM_DOUBLEWORD :
 280:Drivers/STM32F7xx_HAL_Driver/Src/stm32f7xx_hal_flash.c ****     {
 281:Drivers/STM32F7xx_HAL_Driver/Src/stm32f7xx_hal_flash.c ****       /*Program double word (64-bit) at a specified address.*/
 282:Drivers/STM32F7xx_HAL_Driver/Src/stm32f7xx_hal_flash.c ****       FLASH_Program_DoubleWord(Address, Data);
 261              		.loc 1 282 7
 262 0090 D7E90023 		ldrd	r2, [r7]
 263 0094 B868     		ldr	r0, [r7, #8]
 264 0096 FFF7FEFF 		bl	FLASH_Program_DoubleWord
 283:Drivers/STM32F7xx_HAL_Driver/Src/stm32f7xx_hal_flash.c ****       break;
 265              		.loc 1 283 7
 266 009a 00E0     		b	.L24
 267              	.L25:
 284:Drivers/STM32F7xx_HAL_Driver/Src/stm32f7xx_hal_flash.c ****     }
 285:Drivers/STM32F7xx_HAL_Driver/Src/stm32f7xx_hal_flash.c ****     default :
 286:Drivers/STM32F7xx_HAL_Driver/Src/stm32f7xx_hal_flash.c ****       break;
 268              		.loc 1 286 7
 269 009c 00BF     		nop
 270              	.L24:
 287:Drivers/STM32F7xx_HAL_Driver/Src/stm32f7xx_hal_flash.c ****   }
 288:Drivers/STM32F7xx_HAL_Driver/Src/stm32f7xx_hal_flash.c ****   return status;
 271              		.loc 1 288 10
 272 009e FB7D     		ldrb	r3, [r7, #23]	@ zero_extendqisi2
 273              	.L17:
 289:Drivers/STM32F7xx_HAL_Driver/Src/stm32f7xx_hal_flash.c **** }
 274              		.loc 1 289 1
 275 00a0 1846     		mov	r0, r3
 276 00a2 1837     		adds	r7, r7, #24
 277              	.LCFI8:
 278              		.cfi_def_cfa_offset 8
 279 00a4 BD46     		mov	sp, r7
 280              	.LCFI9:
 281              		.cfi_def_cfa_register 13
 282              		@ sp needed
 283 00a6 80BD     		pop	{r7, pc}
 284              	.L27:
ARM GAS  /tmp/ccCiGuAf.s 			page 11


 285              		.align	2
 286              	.L26:
 287 00a8 00000000 		.word	pFlash
 288 00ac 003C0240 		.word	1073888256
 289              		.cfi_endproc
 290              	.LFE142:
 292              		.section	.text.HAL_FLASH_IRQHandler,"ax",%progbits
 293              		.align	1
 294              		.global	HAL_FLASH_IRQHandler
 295              		.syntax unified
 296              		.thumb
 297              		.thumb_func
 298              		.fpu fpv5-d16
 300              	HAL_FLASH_IRQHandler:
 301              	.LFB143:
 290:Drivers/STM32F7xx_HAL_Driver/Src/stm32f7xx_hal_flash.c **** 
 291:Drivers/STM32F7xx_HAL_Driver/Src/stm32f7xx_hal_flash.c **** /**
 292:Drivers/STM32F7xx_HAL_Driver/Src/stm32f7xx_hal_flash.c ****   * @brief This function handles FLASH interrupt request.
 293:Drivers/STM32F7xx_HAL_Driver/Src/stm32f7xx_hal_flash.c ****   * @retval None
 294:Drivers/STM32F7xx_HAL_Driver/Src/stm32f7xx_hal_flash.c ****   */
 295:Drivers/STM32F7xx_HAL_Driver/Src/stm32f7xx_hal_flash.c **** void HAL_FLASH_IRQHandler(void)
 296:Drivers/STM32F7xx_HAL_Driver/Src/stm32f7xx_hal_flash.c **** {
 302              		.loc 1 296 1
 303              		.cfi_startproc
 304              		@ args = 0, pretend = 0, frame = 8
 305              		@ frame_needed = 1, uses_anonymous_args = 0
 306 0000 80B5     		push	{r7, lr}
 307              	.LCFI10:
 308              		.cfi_def_cfa_offset 8
 309              		.cfi_offset 7, -8
 310              		.cfi_offset 14, -4
 311 0002 82B0     		sub	sp, sp, #8
 312              	.LCFI11:
 313              		.cfi_def_cfa_offset 16
 314 0004 00AF     		add	r7, sp, #0
 315              	.LCFI12:
 316              		.cfi_def_cfa_register 7
 297:Drivers/STM32F7xx_HAL_Driver/Src/stm32f7xx_hal_flash.c ****   uint32_t temp = 0;
 317              		.loc 1 297 12
 318 0006 0023     		movs	r3, #0
 319 0008 7B60     		str	r3, [r7, #4]
 298:Drivers/STM32F7xx_HAL_Driver/Src/stm32f7xx_hal_flash.c ****   
 299:Drivers/STM32F7xx_HAL_Driver/Src/stm32f7xx_hal_flash.c ****   /* If the program operation is completed, disable the PG Bit */
 300:Drivers/STM32F7xx_HAL_Driver/Src/stm32f7xx_hal_flash.c ****   FLASH->CR &= (~FLASH_CR_PG);
 320              		.loc 1 300 13
 321 000a 564B     		ldr	r3, .L47
 322 000c 1B69     		ldr	r3, [r3, #16]
 323 000e 554A     		ldr	r2, .L47
 324 0010 23F00103 		bic	r3, r3, #1
 325 0014 1361     		str	r3, [r2, #16]
 301:Drivers/STM32F7xx_HAL_Driver/Src/stm32f7xx_hal_flash.c **** 
 302:Drivers/STM32F7xx_HAL_Driver/Src/stm32f7xx_hal_flash.c ****   /* If the erase operation is completed, disable the SER Bit */
 303:Drivers/STM32F7xx_HAL_Driver/Src/stm32f7xx_hal_flash.c ****   FLASH->CR &= (~FLASH_CR_SER);
 326              		.loc 1 303 13
 327 0016 534B     		ldr	r3, .L47
 328 0018 1B69     		ldr	r3, [r3, #16]
 329 001a 524A     		ldr	r2, .L47
ARM GAS  /tmp/ccCiGuAf.s 			page 12


 330 001c 23F00203 		bic	r3, r3, #2
 331 0020 1361     		str	r3, [r2, #16]
 304:Drivers/STM32F7xx_HAL_Driver/Src/stm32f7xx_hal_flash.c ****   FLASH->CR &= SECTOR_MASK; 
 332              		.loc 1 304 13
 333 0022 504B     		ldr	r3, .L47
 334 0024 1B69     		ldr	r3, [r3, #16]
 335 0026 4F4A     		ldr	r2, .L47
 336 0028 23F0F803 		bic	r3, r3, #248
 337 002c 1361     		str	r3, [r2, #16]
 305:Drivers/STM32F7xx_HAL_Driver/Src/stm32f7xx_hal_flash.c **** 
 306:Drivers/STM32F7xx_HAL_Driver/Src/stm32f7xx_hal_flash.c ****   /* if the erase operation is completed, disable the MER Bit */
 307:Drivers/STM32F7xx_HAL_Driver/Src/stm32f7xx_hal_flash.c ****   FLASH->CR &= (~FLASH_MER_BIT);
 338              		.loc 1 307 13
 339 002e 4D4B     		ldr	r3, .L47
 340 0030 1A69     		ldr	r2, [r3, #16]
 341 0032 4C49     		ldr	r1, .L47
 342 0034 4C4B     		ldr	r3, .L47+4
 343 0036 1340     		ands	r3, r3, r2
 344 0038 0B61     		str	r3, [r1, #16]
 308:Drivers/STM32F7xx_HAL_Driver/Src/stm32f7xx_hal_flash.c **** 
 309:Drivers/STM32F7xx_HAL_Driver/Src/stm32f7xx_hal_flash.c ****   /* Check FLASH End of Operation flag  */
 310:Drivers/STM32F7xx_HAL_Driver/Src/stm32f7xx_hal_flash.c ****   if(__HAL_FLASH_GET_FLAG(FLASH_FLAG_EOP) != RESET)
 345              		.loc 1 310 6
 346 003a 4A4B     		ldr	r3, .L47
 347 003c DB68     		ldr	r3, [r3, #12]
 348 003e 03F00103 		and	r3, r3, #1
 349              		.loc 1 310 5
 350 0042 002B     		cmp	r3, #0
 351 0044 48D0     		beq	.L43
 311:Drivers/STM32F7xx_HAL_Driver/Src/stm32f7xx_hal_flash.c ****   {
 312:Drivers/STM32F7xx_HAL_Driver/Src/stm32f7xx_hal_flash.c ****     /* Clear FLASH End of Operation pending bit */
 313:Drivers/STM32F7xx_HAL_Driver/Src/stm32f7xx_hal_flash.c ****     __HAL_FLASH_CLEAR_FLAG(FLASH_FLAG_EOP);
 352              		.loc 1 313 5
 353 0046 474B     		ldr	r3, .L47
 354 0048 0122     		movs	r2, #1
 355 004a DA60     		str	r2, [r3, #12]
 314:Drivers/STM32F7xx_HAL_Driver/Src/stm32f7xx_hal_flash.c ****     
 315:Drivers/STM32F7xx_HAL_Driver/Src/stm32f7xx_hal_flash.c ****     switch (pFlash.ProcedureOnGoing)
 356              		.loc 1 315 19
 357 004c 474B     		ldr	r3, .L47+8
 358 004e 1B78     		ldrb	r3, [r3]
 359 0050 DBB2     		uxtb	r3, r3
 360              		.loc 1 315 5
 361 0052 032B     		cmp	r3, #3
 362 0054 37D0     		beq	.L30
 363 0056 032B     		cmp	r3, #3
 364 0058 40DC     		bgt	.L44
 365 005a 012B     		cmp	r3, #1
 366 005c 02D0     		beq	.L32
 367 005e 022B     		cmp	r3, #2
 368 0060 2AD0     		beq	.L33
 316:Drivers/STM32F7xx_HAL_Driver/Src/stm32f7xx_hal_flash.c ****     {
 317:Drivers/STM32F7xx_HAL_Driver/Src/stm32f7xx_hal_flash.c ****       case FLASH_PROC_SECTERASE :
 318:Drivers/STM32F7xx_HAL_Driver/Src/stm32f7xx_hal_flash.c ****       {
 319:Drivers/STM32F7xx_HAL_Driver/Src/stm32f7xx_hal_flash.c ****         /* Nb of sector to erased can be decreased */
 320:Drivers/STM32F7xx_HAL_Driver/Src/stm32f7xx_hal_flash.c ****         pFlash.NbSectorsToErase--;
 321:Drivers/STM32F7xx_HAL_Driver/Src/stm32f7xx_hal_flash.c **** 
ARM GAS  /tmp/ccCiGuAf.s 			page 13


 322:Drivers/STM32F7xx_HAL_Driver/Src/stm32f7xx_hal_flash.c ****         /* Check if there are still sectors to erase */
 323:Drivers/STM32F7xx_HAL_Driver/Src/stm32f7xx_hal_flash.c ****         if(pFlash.NbSectorsToErase != 0)
 324:Drivers/STM32F7xx_HAL_Driver/Src/stm32f7xx_hal_flash.c ****         {
 325:Drivers/STM32F7xx_HAL_Driver/Src/stm32f7xx_hal_flash.c ****           temp = pFlash.Sector;
 326:Drivers/STM32F7xx_HAL_Driver/Src/stm32f7xx_hal_flash.c ****           /* Indicate user which sector has been erased */
 327:Drivers/STM32F7xx_HAL_Driver/Src/stm32f7xx_hal_flash.c ****           HAL_FLASH_EndOfOperationCallback(temp);
 328:Drivers/STM32F7xx_HAL_Driver/Src/stm32f7xx_hal_flash.c **** 
 329:Drivers/STM32F7xx_HAL_Driver/Src/stm32f7xx_hal_flash.c ****           /* Increment sector number */
 330:Drivers/STM32F7xx_HAL_Driver/Src/stm32f7xx_hal_flash.c ****           temp = ++pFlash.Sector;
 331:Drivers/STM32F7xx_HAL_Driver/Src/stm32f7xx_hal_flash.c ****           FLASH_Erase_Sector(temp, pFlash.VoltageForErase);
 332:Drivers/STM32F7xx_HAL_Driver/Src/stm32f7xx_hal_flash.c ****         }
 333:Drivers/STM32F7xx_HAL_Driver/Src/stm32f7xx_hal_flash.c ****         else
 334:Drivers/STM32F7xx_HAL_Driver/Src/stm32f7xx_hal_flash.c ****         {
 335:Drivers/STM32F7xx_HAL_Driver/Src/stm32f7xx_hal_flash.c ****           /* No more sectors to Erase, user callback can be called.*/
 336:Drivers/STM32F7xx_HAL_Driver/Src/stm32f7xx_hal_flash.c ****           /* Reset Sector and stop Erase sectors procedure */
 337:Drivers/STM32F7xx_HAL_Driver/Src/stm32f7xx_hal_flash.c ****           pFlash.Sector = temp = 0xFFFFFFFFU;
 338:Drivers/STM32F7xx_HAL_Driver/Src/stm32f7xx_hal_flash.c ****           /* FLASH EOP interrupt user callback */
 339:Drivers/STM32F7xx_HAL_Driver/Src/stm32f7xx_hal_flash.c ****           HAL_FLASH_EndOfOperationCallback(temp);
 340:Drivers/STM32F7xx_HAL_Driver/Src/stm32f7xx_hal_flash.c ****           /* Sector Erase procedure is completed */
 341:Drivers/STM32F7xx_HAL_Driver/Src/stm32f7xx_hal_flash.c ****           pFlash.ProcedureOnGoing = FLASH_PROC_NONE;
 342:Drivers/STM32F7xx_HAL_Driver/Src/stm32f7xx_hal_flash.c ****         }
 343:Drivers/STM32F7xx_HAL_Driver/Src/stm32f7xx_hal_flash.c ****         break;
 344:Drivers/STM32F7xx_HAL_Driver/Src/stm32f7xx_hal_flash.c ****       }
 345:Drivers/STM32F7xx_HAL_Driver/Src/stm32f7xx_hal_flash.c ****     
 346:Drivers/STM32F7xx_HAL_Driver/Src/stm32f7xx_hal_flash.c ****       case FLASH_PROC_MASSERASE :
 347:Drivers/STM32F7xx_HAL_Driver/Src/stm32f7xx_hal_flash.c ****       {
 348:Drivers/STM32F7xx_HAL_Driver/Src/stm32f7xx_hal_flash.c ****         /* MassErase ended. Return the selected bank : in this product we don't have Banks */
 349:Drivers/STM32F7xx_HAL_Driver/Src/stm32f7xx_hal_flash.c ****         /* FLASH EOP interrupt user callback */
 350:Drivers/STM32F7xx_HAL_Driver/Src/stm32f7xx_hal_flash.c ****         HAL_FLASH_EndOfOperationCallback(0);
 351:Drivers/STM32F7xx_HAL_Driver/Src/stm32f7xx_hal_flash.c ****         /* MAss Erase procedure is completed */
 352:Drivers/STM32F7xx_HAL_Driver/Src/stm32f7xx_hal_flash.c ****         pFlash.ProcedureOnGoing = FLASH_PROC_NONE;
 353:Drivers/STM32F7xx_HAL_Driver/Src/stm32f7xx_hal_flash.c ****         break;
 354:Drivers/STM32F7xx_HAL_Driver/Src/stm32f7xx_hal_flash.c ****       }
 355:Drivers/STM32F7xx_HAL_Driver/Src/stm32f7xx_hal_flash.c **** 
 356:Drivers/STM32F7xx_HAL_Driver/Src/stm32f7xx_hal_flash.c ****       case FLASH_PROC_PROGRAM :
 357:Drivers/STM32F7xx_HAL_Driver/Src/stm32f7xx_hal_flash.c ****       {
 358:Drivers/STM32F7xx_HAL_Driver/Src/stm32f7xx_hal_flash.c ****         /*Program ended. Return the selected address*/
 359:Drivers/STM32F7xx_HAL_Driver/Src/stm32f7xx_hal_flash.c ****         /* FLASH EOP interrupt user callback */
 360:Drivers/STM32F7xx_HAL_Driver/Src/stm32f7xx_hal_flash.c ****         HAL_FLASH_EndOfOperationCallback(pFlash.Address);
 361:Drivers/STM32F7xx_HAL_Driver/Src/stm32f7xx_hal_flash.c ****         /* Programming procedure is completed */
 362:Drivers/STM32F7xx_HAL_Driver/Src/stm32f7xx_hal_flash.c ****         pFlash.ProcedureOnGoing = FLASH_PROC_NONE;
 363:Drivers/STM32F7xx_HAL_Driver/Src/stm32f7xx_hal_flash.c ****         break;
 364:Drivers/STM32F7xx_HAL_Driver/Src/stm32f7xx_hal_flash.c ****       }
 365:Drivers/STM32F7xx_HAL_Driver/Src/stm32f7xx_hal_flash.c ****       default :
 366:Drivers/STM32F7xx_HAL_Driver/Src/stm32f7xx_hal_flash.c ****         break;
 369              		.loc 1 366 9
 370 0062 3BE0     		b	.L44
 371              	.L32:
 320:Drivers/STM32F7xx_HAL_Driver/Src/stm32f7xx_hal_flash.c **** 
 372              		.loc 1 320 15
 373 0064 414B     		ldr	r3, .L47+8
 374 0066 5B68     		ldr	r3, [r3, #4]
 320:Drivers/STM32F7xx_HAL_Driver/Src/stm32f7xx_hal_flash.c **** 
 375              		.loc 1 320 32
 376 0068 013B     		subs	r3, r3, #1
 377 006a 404A     		ldr	r2, .L47+8
 378 006c 5360     		str	r3, [r2, #4]
ARM GAS  /tmp/ccCiGuAf.s 			page 14


 323:Drivers/STM32F7xx_HAL_Driver/Src/stm32f7xx_hal_flash.c ****         {
 379              		.loc 1 323 18
 380 006e 3F4B     		ldr	r3, .L47+8
 381 0070 5B68     		ldr	r3, [r3, #4]
 323:Drivers/STM32F7xx_HAL_Driver/Src/stm32f7xx_hal_flash.c ****         {
 382              		.loc 1 323 11
 383 0072 002B     		cmp	r3, #0
 384 0074 13D0     		beq	.L34
 325:Drivers/STM32F7xx_HAL_Driver/Src/stm32f7xx_hal_flash.c ****           /* Indicate user which sector has been erased */
 385              		.loc 1 325 16
 386 0076 3D4B     		ldr	r3, .L47+8
 387 0078 DB68     		ldr	r3, [r3, #12]
 388 007a 7B60     		str	r3, [r7, #4]
 327:Drivers/STM32F7xx_HAL_Driver/Src/stm32f7xx_hal_flash.c **** 
 389              		.loc 1 327 11
 390 007c 7868     		ldr	r0, [r7, #4]
 391 007e FFF7FEFF 		bl	HAL_FLASH_EndOfOperationCallback
 330:Drivers/STM32F7xx_HAL_Driver/Src/stm32f7xx_hal_flash.c ****           FLASH_Erase_Sector(temp, pFlash.VoltageForErase);
 392              		.loc 1 330 26
 393 0082 3A4B     		ldr	r3, .L47+8
 394 0084 DB68     		ldr	r3, [r3, #12]
 330:Drivers/STM32F7xx_HAL_Driver/Src/stm32f7xx_hal_flash.c ****           FLASH_Erase_Sector(temp, pFlash.VoltageForErase);
 395              		.loc 1 330 18
 396 0086 0133     		adds	r3, r3, #1
 330:Drivers/STM32F7xx_HAL_Driver/Src/stm32f7xx_hal_flash.c ****           FLASH_Erase_Sector(temp, pFlash.VoltageForErase);
 397              		.loc 1 330 16
 398 0088 384A     		ldr	r2, .L47+8
 399 008a D360     		str	r3, [r2, #12]
 400 008c 7B60     		str	r3, [r7, #4]
 331:Drivers/STM32F7xx_HAL_Driver/Src/stm32f7xx_hal_flash.c ****         }
 401              		.loc 1 331 11
 402 008e 374B     		ldr	r3, .L47+8
 403 0090 1B7A     		ldrb	r3, [r3, #8]
 404 0092 DBB2     		uxtb	r3, r3
 405 0094 1946     		mov	r1, r3
 406 0096 7868     		ldr	r0, [r7, #4]
 407 0098 FFF7FEFF 		bl	FLASH_Erase_Sector
 343:Drivers/STM32F7xx_HAL_Driver/Src/stm32f7xx_hal_flash.c ****       }
 408              		.loc 1 343 9
 409 009c 1FE0     		b	.L29
 410              	.L34:
 337:Drivers/STM32F7xx_HAL_Driver/Src/stm32f7xx_hal_flash.c ****           /* FLASH EOP interrupt user callback */
 411              		.loc 1 337 32
 412 009e 4FF0FF33 		mov	r3, #-1
 413 00a2 7B60     		str	r3, [r7, #4]
 337:Drivers/STM32F7xx_HAL_Driver/Src/stm32f7xx_hal_flash.c ****           /* FLASH EOP interrupt user callback */
 414              		.loc 1 337 25
 415 00a4 314A     		ldr	r2, .L47+8
 416 00a6 7B68     		ldr	r3, [r7, #4]
 417 00a8 D360     		str	r3, [r2, #12]
 339:Drivers/STM32F7xx_HAL_Driver/Src/stm32f7xx_hal_flash.c ****           /* Sector Erase procedure is completed */
 418              		.loc 1 339 11
 419 00aa 7868     		ldr	r0, [r7, #4]
 420 00ac FFF7FEFF 		bl	HAL_FLASH_EndOfOperationCallback
 341:Drivers/STM32F7xx_HAL_Driver/Src/stm32f7xx_hal_flash.c ****         }
 421              		.loc 1 341 35
 422 00b0 2E4B     		ldr	r3, .L47+8
ARM GAS  /tmp/ccCiGuAf.s 			page 15


 423 00b2 0022     		movs	r2, #0
 424 00b4 1A70     		strb	r2, [r3]
 343:Drivers/STM32F7xx_HAL_Driver/Src/stm32f7xx_hal_flash.c ****       }
 425              		.loc 1 343 9
 426 00b6 12E0     		b	.L29
 427              	.L33:
 350:Drivers/STM32F7xx_HAL_Driver/Src/stm32f7xx_hal_flash.c ****         /* MAss Erase procedure is completed */
 428              		.loc 1 350 9
 429 00b8 0020     		movs	r0, #0
 430 00ba FFF7FEFF 		bl	HAL_FLASH_EndOfOperationCallback
 352:Drivers/STM32F7xx_HAL_Driver/Src/stm32f7xx_hal_flash.c ****         break;
 431              		.loc 1 352 33
 432 00be 2B4B     		ldr	r3, .L47+8
 433 00c0 0022     		movs	r2, #0
 434 00c2 1A70     		strb	r2, [r3]
 353:Drivers/STM32F7xx_HAL_Driver/Src/stm32f7xx_hal_flash.c ****       }
 435              		.loc 1 353 9
 436 00c4 0BE0     		b	.L29
 437              	.L30:
 360:Drivers/STM32F7xx_HAL_Driver/Src/stm32f7xx_hal_flash.c ****         /* Programming procedure is completed */
 438              		.loc 1 360 9
 439 00c6 294B     		ldr	r3, .L47+8
 440 00c8 1B69     		ldr	r3, [r3, #16]
 441 00ca 1846     		mov	r0, r3
 442 00cc FFF7FEFF 		bl	HAL_FLASH_EndOfOperationCallback
 362:Drivers/STM32F7xx_HAL_Driver/Src/stm32f7xx_hal_flash.c ****         break;
 443              		.loc 1 362 33
 444 00d0 264B     		ldr	r3, .L47+8
 445 00d2 0022     		movs	r2, #0
 446 00d4 1A70     		strb	r2, [r3]
 363:Drivers/STM32F7xx_HAL_Driver/Src/stm32f7xx_hal_flash.c ****       }
 447              		.loc 1 363 9
 448 00d6 02E0     		b	.L29
 449              	.L43:
 367:Drivers/STM32F7xx_HAL_Driver/Src/stm32f7xx_hal_flash.c ****     }
 368:Drivers/STM32F7xx_HAL_Driver/Src/stm32f7xx_hal_flash.c ****   }
 450              		.loc 1 368 3
 451 00d8 00BF     		nop
 452 00da 00E0     		b	.L29
 453              	.L44:
 366:Drivers/STM32F7xx_HAL_Driver/Src/stm32f7xx_hal_flash.c ****     }
 454              		.loc 1 366 9
 455 00dc 00BF     		nop
 456              	.L29:
 369:Drivers/STM32F7xx_HAL_Driver/Src/stm32f7xx_hal_flash.c ****   
 370:Drivers/STM32F7xx_HAL_Driver/Src/stm32f7xx_hal_flash.c ****   /* Check FLASH operation error flags */
 371:Drivers/STM32F7xx_HAL_Driver/Src/stm32f7xx_hal_flash.c ****   if(__HAL_FLASH_GET_FLAG(FLASH_FLAG_ALL_ERRORS) != RESET)
 457              		.loc 1 371 6
 458 00de 214B     		ldr	r3, .L47
 459 00e0 DB68     		ldr	r3, [r3, #12]
 460 00e2 03F0F203 		and	r3, r3, #242
 461              		.loc 1 371 5
 462 00e6 002B     		cmp	r3, #0
 463 00e8 23D0     		beq	.L36
 372:Drivers/STM32F7xx_HAL_Driver/Src/stm32f7xx_hal_flash.c ****   {
 373:Drivers/STM32F7xx_HAL_Driver/Src/stm32f7xx_hal_flash.c ****     switch (pFlash.ProcedureOnGoing)
 464              		.loc 1 373 19
ARM GAS  /tmp/ccCiGuAf.s 			page 16


 465 00ea 204B     		ldr	r3, .L47+8
 466 00ec 1B78     		ldrb	r3, [r3]
 467 00ee DBB2     		uxtb	r3, r3
 468              		.loc 1 373 5
 469 00f0 032B     		cmp	r3, #3
 470 00f2 11D0     		beq	.L37
 471 00f4 032B     		cmp	r3, #3
 472 00f6 13DC     		bgt	.L45
 473 00f8 012B     		cmp	r3, #1
 474 00fa 02D0     		beq	.L39
 475 00fc 022B     		cmp	r3, #2
 476 00fe 08D0     		beq	.L40
 374:Drivers/STM32F7xx_HAL_Driver/Src/stm32f7xx_hal_flash.c ****     {
 375:Drivers/STM32F7xx_HAL_Driver/Src/stm32f7xx_hal_flash.c ****       case FLASH_PROC_SECTERASE :
 376:Drivers/STM32F7xx_HAL_Driver/Src/stm32f7xx_hal_flash.c ****       {
 377:Drivers/STM32F7xx_HAL_Driver/Src/stm32f7xx_hal_flash.c ****         /* return the faulty sector */
 378:Drivers/STM32F7xx_HAL_Driver/Src/stm32f7xx_hal_flash.c ****         temp = pFlash.Sector;
 379:Drivers/STM32F7xx_HAL_Driver/Src/stm32f7xx_hal_flash.c ****         pFlash.Sector = 0xFFFFFFFFU;
 380:Drivers/STM32F7xx_HAL_Driver/Src/stm32f7xx_hal_flash.c ****         break;
 381:Drivers/STM32F7xx_HAL_Driver/Src/stm32f7xx_hal_flash.c ****       }
 382:Drivers/STM32F7xx_HAL_Driver/Src/stm32f7xx_hal_flash.c ****       case FLASH_PROC_MASSERASE :
 383:Drivers/STM32F7xx_HAL_Driver/Src/stm32f7xx_hal_flash.c ****       {
 384:Drivers/STM32F7xx_HAL_Driver/Src/stm32f7xx_hal_flash.c ****         /* No return in case of Mass Erase */
 385:Drivers/STM32F7xx_HAL_Driver/Src/stm32f7xx_hal_flash.c ****         temp = 0;
 386:Drivers/STM32F7xx_HAL_Driver/Src/stm32f7xx_hal_flash.c ****         break;
 387:Drivers/STM32F7xx_HAL_Driver/Src/stm32f7xx_hal_flash.c ****       }
 388:Drivers/STM32F7xx_HAL_Driver/Src/stm32f7xx_hal_flash.c ****       case FLASH_PROC_PROGRAM :
 389:Drivers/STM32F7xx_HAL_Driver/Src/stm32f7xx_hal_flash.c ****       {
 390:Drivers/STM32F7xx_HAL_Driver/Src/stm32f7xx_hal_flash.c ****         /*return the faulty address*/
 391:Drivers/STM32F7xx_HAL_Driver/Src/stm32f7xx_hal_flash.c ****         temp = pFlash.Address;
 392:Drivers/STM32F7xx_HAL_Driver/Src/stm32f7xx_hal_flash.c ****         break;
 393:Drivers/STM32F7xx_HAL_Driver/Src/stm32f7xx_hal_flash.c ****       }
 394:Drivers/STM32F7xx_HAL_Driver/Src/stm32f7xx_hal_flash.c ****     default :
 395:Drivers/STM32F7xx_HAL_Driver/Src/stm32f7xx_hal_flash.c ****       break;
 477              		.loc 1 395 7
 478 0100 0EE0     		b	.L45
 479              	.L39:
 378:Drivers/STM32F7xx_HAL_Driver/Src/stm32f7xx_hal_flash.c ****         pFlash.Sector = 0xFFFFFFFFU;
 480              		.loc 1 378 14
 481 0102 1A4B     		ldr	r3, .L47+8
 482 0104 DB68     		ldr	r3, [r3, #12]
 483 0106 7B60     		str	r3, [r7, #4]
 379:Drivers/STM32F7xx_HAL_Driver/Src/stm32f7xx_hal_flash.c ****         break;
 484              		.loc 1 379 23
 485 0108 184B     		ldr	r3, .L47+8
 486 010a 4FF0FF32 		mov	r2, #-1
 487 010e DA60     		str	r2, [r3, #12]
 380:Drivers/STM32F7xx_HAL_Driver/Src/stm32f7xx_hal_flash.c ****       }
 488              		.loc 1 380 9
 489 0110 07E0     		b	.L41
 490              	.L40:
 385:Drivers/STM32F7xx_HAL_Driver/Src/stm32f7xx_hal_flash.c ****         break;
 491              		.loc 1 385 14
 492 0112 0023     		movs	r3, #0
 493 0114 7B60     		str	r3, [r7, #4]
 386:Drivers/STM32F7xx_HAL_Driver/Src/stm32f7xx_hal_flash.c ****       }
 494              		.loc 1 386 9
ARM GAS  /tmp/ccCiGuAf.s 			page 17


 495 0116 04E0     		b	.L41
 496              	.L37:
 391:Drivers/STM32F7xx_HAL_Driver/Src/stm32f7xx_hal_flash.c ****         break;
 497              		.loc 1 391 14
 498 0118 144B     		ldr	r3, .L47+8
 499 011a 1B69     		ldr	r3, [r3, #16]
 500 011c 7B60     		str	r3, [r7, #4]
 392:Drivers/STM32F7xx_HAL_Driver/Src/stm32f7xx_hal_flash.c ****       }
 501              		.loc 1 392 9
 502 011e 00E0     		b	.L41
 503              	.L45:
 504              		.loc 1 395 7
 505 0120 00BF     		nop
 506              	.L41:
 396:Drivers/STM32F7xx_HAL_Driver/Src/stm32f7xx_hal_flash.c ****     }
 397:Drivers/STM32F7xx_HAL_Driver/Src/stm32f7xx_hal_flash.c ****     /*Save the Error code*/
 398:Drivers/STM32F7xx_HAL_Driver/Src/stm32f7xx_hal_flash.c ****     FLASH_SetErrorCode();
 507              		.loc 1 398 5
 508 0122 FFF7FEFF 		bl	FLASH_SetErrorCode
 399:Drivers/STM32F7xx_HAL_Driver/Src/stm32f7xx_hal_flash.c **** 
 400:Drivers/STM32F7xx_HAL_Driver/Src/stm32f7xx_hal_flash.c ****     /* FLASH error interrupt user callback */
 401:Drivers/STM32F7xx_HAL_Driver/Src/stm32f7xx_hal_flash.c ****     HAL_FLASH_OperationErrorCallback(temp);
 509              		.loc 1 401 5
 510 0126 7868     		ldr	r0, [r7, #4]
 511 0128 FFF7FEFF 		bl	HAL_FLASH_OperationErrorCallback
 402:Drivers/STM32F7xx_HAL_Driver/Src/stm32f7xx_hal_flash.c **** 
 403:Drivers/STM32F7xx_HAL_Driver/Src/stm32f7xx_hal_flash.c ****     /*Stop the procedure ongoing */
 404:Drivers/STM32F7xx_HAL_Driver/Src/stm32f7xx_hal_flash.c ****     pFlash.ProcedureOnGoing = FLASH_PROC_NONE;
 512              		.loc 1 404 29
 513 012c 0F4B     		ldr	r3, .L47+8
 514 012e 0022     		movs	r2, #0
 515 0130 1A70     		strb	r2, [r3]
 516              	.L36:
 405:Drivers/STM32F7xx_HAL_Driver/Src/stm32f7xx_hal_flash.c ****   }
 406:Drivers/STM32F7xx_HAL_Driver/Src/stm32f7xx_hal_flash.c ****   
 407:Drivers/STM32F7xx_HAL_Driver/Src/stm32f7xx_hal_flash.c ****   if(pFlash.ProcedureOnGoing == FLASH_PROC_NONE)
 517              		.loc 1 407 12
 518 0132 0E4B     		ldr	r3, .L47+8
 519 0134 1B78     		ldrb	r3, [r3]
 520 0136 DBB2     		uxtb	r3, r3
 521              		.loc 1 407 5
 522 0138 002B     		cmp	r3, #0
 523 013a 0ED1     		bne	.L46
 408:Drivers/STM32F7xx_HAL_Driver/Src/stm32f7xx_hal_flash.c ****   {
 409:Drivers/STM32F7xx_HAL_Driver/Src/stm32f7xx_hal_flash.c ****     /* Disable End of FLASH Operation interrupt */
 410:Drivers/STM32F7xx_HAL_Driver/Src/stm32f7xx_hal_flash.c ****     __HAL_FLASH_DISABLE_IT(FLASH_IT_EOP);
 524              		.loc 1 410 5
 525 013c 094B     		ldr	r3, .L47
 526 013e 1B69     		ldr	r3, [r3, #16]
 527 0140 084A     		ldr	r2, .L47
 528 0142 23F08073 		bic	r3, r3, #16777216
 529 0146 1361     		str	r3, [r2, #16]
 411:Drivers/STM32F7xx_HAL_Driver/Src/stm32f7xx_hal_flash.c **** 
 412:Drivers/STM32F7xx_HAL_Driver/Src/stm32f7xx_hal_flash.c ****     /* Disable Error source interrupt */
 413:Drivers/STM32F7xx_HAL_Driver/Src/stm32f7xx_hal_flash.c ****     __HAL_FLASH_DISABLE_IT(FLASH_IT_ERR);
 530              		.loc 1 413 5
 531 0148 064B     		ldr	r3, .L47
ARM GAS  /tmp/ccCiGuAf.s 			page 18


 532 014a 1B69     		ldr	r3, [r3, #16]
 533 014c 054A     		ldr	r2, .L47
 534 014e 23F00073 		bic	r3, r3, #33554432
 535 0152 1361     		str	r3, [r2, #16]
 414:Drivers/STM32F7xx_HAL_Driver/Src/stm32f7xx_hal_flash.c **** 
 415:Drivers/STM32F7xx_HAL_Driver/Src/stm32f7xx_hal_flash.c ****     /* Process Unlocked */
 416:Drivers/STM32F7xx_HAL_Driver/Src/stm32f7xx_hal_flash.c ****     __HAL_UNLOCK(&pFlash);
 536              		.loc 1 416 5
 537 0154 054B     		ldr	r3, .L47+8
 538 0156 0022     		movs	r2, #0
 539 0158 1A75     		strb	r2, [r3, #20]
 540              	.L46:
 417:Drivers/STM32F7xx_HAL_Driver/Src/stm32f7xx_hal_flash.c ****   }
 418:Drivers/STM32F7xx_HAL_Driver/Src/stm32f7xx_hal_flash.c ****   
 419:Drivers/STM32F7xx_HAL_Driver/Src/stm32f7xx_hal_flash.c **** }
 541              		.loc 1 419 1
 542 015a 00BF     		nop
 543 015c 0837     		adds	r7, r7, #8
 544              	.LCFI13:
 545              		.cfi_def_cfa_offset 8
 546 015e BD46     		mov	sp, r7
 547              	.LCFI14:
 548              		.cfi_def_cfa_register 13
 549              		@ sp needed
 550 0160 80BD     		pop	{r7, pc}
 551              	.L48:
 552 0162 00BF     		.align	2
 553              	.L47:
 554 0164 003C0240 		.word	1073888256
 555 0168 FB7FFFFF 		.word	-32773
 556 016c 00000000 		.word	pFlash
 557              		.cfi_endproc
 558              	.LFE143:
 560              		.section	.text.HAL_FLASH_EndOfOperationCallback,"ax",%progbits
 561              		.align	1
 562              		.weak	HAL_FLASH_EndOfOperationCallback
 563              		.syntax unified
 564              		.thumb
 565              		.thumb_func
 566              		.fpu fpv5-d16
 568              	HAL_FLASH_EndOfOperationCallback:
 569              	.LFB144:
 420:Drivers/STM32F7xx_HAL_Driver/Src/stm32f7xx_hal_flash.c **** 
 421:Drivers/STM32F7xx_HAL_Driver/Src/stm32f7xx_hal_flash.c **** /**
 422:Drivers/STM32F7xx_HAL_Driver/Src/stm32f7xx_hal_flash.c ****   * @brief  FLASH end of operation interrupt callback
 423:Drivers/STM32F7xx_HAL_Driver/Src/stm32f7xx_hal_flash.c ****   * @param  ReturnValue The value saved in this parameter depends on the ongoing procedure
 424:Drivers/STM32F7xx_HAL_Driver/Src/stm32f7xx_hal_flash.c ****   *                 - Sectors Erase: Sector which has been erased (if 0xFFFFFFFF, it means that 
 425:Drivers/STM32F7xx_HAL_Driver/Src/stm32f7xx_hal_flash.c ****   *                                  all the selected sectors have been erased)
 426:Drivers/STM32F7xx_HAL_Driver/Src/stm32f7xx_hal_flash.c ****   *                 - Program      : Address which was selected for data program
 427:Drivers/STM32F7xx_HAL_Driver/Src/stm32f7xx_hal_flash.c ****   *                 - Mass Erase   : No return value expected
 428:Drivers/STM32F7xx_HAL_Driver/Src/stm32f7xx_hal_flash.c ****   * @retval None
 429:Drivers/STM32F7xx_HAL_Driver/Src/stm32f7xx_hal_flash.c ****   */
 430:Drivers/STM32F7xx_HAL_Driver/Src/stm32f7xx_hal_flash.c **** __weak void HAL_FLASH_EndOfOperationCallback(uint32_t ReturnValue)
 431:Drivers/STM32F7xx_HAL_Driver/Src/stm32f7xx_hal_flash.c **** {
 570              		.loc 1 431 1
 571              		.cfi_startproc
 572              		@ args = 0, pretend = 0, frame = 8
ARM GAS  /tmp/ccCiGuAf.s 			page 19


 573              		@ frame_needed = 1, uses_anonymous_args = 0
 574              		@ link register save eliminated.
 575 0000 80B4     		push	{r7}
 576              	.LCFI15:
 577              		.cfi_def_cfa_offset 4
 578              		.cfi_offset 7, -4
 579 0002 83B0     		sub	sp, sp, #12
 580              	.LCFI16:
 581              		.cfi_def_cfa_offset 16
 582 0004 00AF     		add	r7, sp, #0
 583              	.LCFI17:
 584              		.cfi_def_cfa_register 7
 585 0006 7860     		str	r0, [r7, #4]
 432:Drivers/STM32F7xx_HAL_Driver/Src/stm32f7xx_hal_flash.c ****   /* Prevent unused argument(s) compilation warning */
 433:Drivers/STM32F7xx_HAL_Driver/Src/stm32f7xx_hal_flash.c ****   UNUSED(ReturnValue);
 434:Drivers/STM32F7xx_HAL_Driver/Src/stm32f7xx_hal_flash.c ****   /* NOTE : This function Should not be modified, when the callback is needed,
 435:Drivers/STM32F7xx_HAL_Driver/Src/stm32f7xx_hal_flash.c ****   the HAL_FLASH_EndOfOperationCallback could be implemented in the user file
 436:Drivers/STM32F7xx_HAL_Driver/Src/stm32f7xx_hal_flash.c ****   */ 
 437:Drivers/STM32F7xx_HAL_Driver/Src/stm32f7xx_hal_flash.c **** }
 586              		.loc 1 437 1
 587 0008 00BF     		nop
 588 000a 0C37     		adds	r7, r7, #12
 589              	.LCFI18:
 590              		.cfi_def_cfa_offset 4
 591 000c BD46     		mov	sp, r7
 592              	.LCFI19:
 593              		.cfi_def_cfa_register 13
 594              		@ sp needed
 595 000e 5DF8047B 		ldr	r7, [sp], #4
 596              	.LCFI20:
 597              		.cfi_restore 7
 598              		.cfi_def_cfa_offset 0
 599 0012 7047     		bx	lr
 600              		.cfi_endproc
 601              	.LFE144:
 603              		.section	.text.HAL_FLASH_OperationErrorCallback,"ax",%progbits
 604              		.align	1
 605              		.weak	HAL_FLASH_OperationErrorCallback
 606              		.syntax unified
 607              		.thumb
 608              		.thumb_func
 609              		.fpu fpv5-d16
 611              	HAL_FLASH_OperationErrorCallback:
 612              	.LFB145:
 438:Drivers/STM32F7xx_HAL_Driver/Src/stm32f7xx_hal_flash.c **** 
 439:Drivers/STM32F7xx_HAL_Driver/Src/stm32f7xx_hal_flash.c **** /**
 440:Drivers/STM32F7xx_HAL_Driver/Src/stm32f7xx_hal_flash.c ****   * @brief  FLASH operation error interrupt callback
 441:Drivers/STM32F7xx_HAL_Driver/Src/stm32f7xx_hal_flash.c ****   * @param  ReturnValue The value saved in this parameter depends on the ongoing procedure
 442:Drivers/STM32F7xx_HAL_Driver/Src/stm32f7xx_hal_flash.c ****   *                 - Sectors Erase: Sector which has been erased (if 0xFFFFFFFF, it means that 
 443:Drivers/STM32F7xx_HAL_Driver/Src/stm32f7xx_hal_flash.c ****   *                                  all the selected sectors have been erased)
 444:Drivers/STM32F7xx_HAL_Driver/Src/stm32f7xx_hal_flash.c ****   *                 - Program      : Address which was selected for data program
 445:Drivers/STM32F7xx_HAL_Driver/Src/stm32f7xx_hal_flash.c ****   *                 - Mass Erase   : No return value expected
 446:Drivers/STM32F7xx_HAL_Driver/Src/stm32f7xx_hal_flash.c ****   * @retval None
 447:Drivers/STM32F7xx_HAL_Driver/Src/stm32f7xx_hal_flash.c ****   */
 448:Drivers/STM32F7xx_HAL_Driver/Src/stm32f7xx_hal_flash.c **** __weak void HAL_FLASH_OperationErrorCallback(uint32_t ReturnValue)
 449:Drivers/STM32F7xx_HAL_Driver/Src/stm32f7xx_hal_flash.c **** {
 613              		.loc 1 449 1
ARM GAS  /tmp/ccCiGuAf.s 			page 20


 614              		.cfi_startproc
 615              		@ args = 0, pretend = 0, frame = 8
 616              		@ frame_needed = 1, uses_anonymous_args = 0
 617              		@ link register save eliminated.
 618 0000 80B4     		push	{r7}
 619              	.LCFI21:
 620              		.cfi_def_cfa_offset 4
 621              		.cfi_offset 7, -4
 622 0002 83B0     		sub	sp, sp, #12
 623              	.LCFI22:
 624              		.cfi_def_cfa_offset 16
 625 0004 00AF     		add	r7, sp, #0
 626              	.LCFI23:
 627              		.cfi_def_cfa_register 7
 628 0006 7860     		str	r0, [r7, #4]
 450:Drivers/STM32F7xx_HAL_Driver/Src/stm32f7xx_hal_flash.c ****   /* Prevent unused argument(s) compilation warning */
 451:Drivers/STM32F7xx_HAL_Driver/Src/stm32f7xx_hal_flash.c ****   UNUSED(ReturnValue);
 452:Drivers/STM32F7xx_HAL_Driver/Src/stm32f7xx_hal_flash.c ****   /* NOTE : This function Should not be modified, when the callback is needed,
 453:Drivers/STM32F7xx_HAL_Driver/Src/stm32f7xx_hal_flash.c ****   the HAL_FLASH_OperationErrorCallback could be implemented in the user file
 454:Drivers/STM32F7xx_HAL_Driver/Src/stm32f7xx_hal_flash.c ****    */ 
 455:Drivers/STM32F7xx_HAL_Driver/Src/stm32f7xx_hal_flash.c **** }
 629              		.loc 1 455 1
 630 0008 00BF     		nop
 631 000a 0C37     		adds	r7, r7, #12
 632              	.LCFI24:
 633              		.cfi_def_cfa_offset 4
 634 000c BD46     		mov	sp, r7
 635              	.LCFI25:
 636              		.cfi_def_cfa_register 13
 637              		@ sp needed
 638 000e 5DF8047B 		ldr	r7, [sp], #4
 639              	.LCFI26:
 640              		.cfi_restore 7
 641              		.cfi_def_cfa_offset 0
 642 0012 7047     		bx	lr
 643              		.cfi_endproc
 644              	.LFE145:
 646              		.section	.text.HAL_FLASH_Unlock,"ax",%progbits
 647              		.align	1
 648              		.global	HAL_FLASH_Unlock
 649              		.syntax unified
 650              		.thumb
 651              		.thumb_func
 652              		.fpu fpv5-d16
 654              	HAL_FLASH_Unlock:
 655              	.LFB146:
 456:Drivers/STM32F7xx_HAL_Driver/Src/stm32f7xx_hal_flash.c **** 
 457:Drivers/STM32F7xx_HAL_Driver/Src/stm32f7xx_hal_flash.c **** /**
 458:Drivers/STM32F7xx_HAL_Driver/Src/stm32f7xx_hal_flash.c ****   * @}
 459:Drivers/STM32F7xx_HAL_Driver/Src/stm32f7xx_hal_flash.c ****   */
 460:Drivers/STM32F7xx_HAL_Driver/Src/stm32f7xx_hal_flash.c **** 
 461:Drivers/STM32F7xx_HAL_Driver/Src/stm32f7xx_hal_flash.c **** /** @defgroup FLASH_Exported_Functions_Group2 Peripheral Control functions 
 462:Drivers/STM32F7xx_HAL_Driver/Src/stm32f7xx_hal_flash.c ****  *  @brief   management functions 
 463:Drivers/STM32F7xx_HAL_Driver/Src/stm32f7xx_hal_flash.c ****  *
 464:Drivers/STM32F7xx_HAL_Driver/Src/stm32f7xx_hal_flash.c **** @verbatim   
 465:Drivers/STM32F7xx_HAL_Driver/Src/stm32f7xx_hal_flash.c ****  ===============================================================================
 466:Drivers/STM32F7xx_HAL_Driver/Src/stm32f7xx_hal_flash.c ****                       ##### Peripheral Control functions #####
ARM GAS  /tmp/ccCiGuAf.s 			page 21


 467:Drivers/STM32F7xx_HAL_Driver/Src/stm32f7xx_hal_flash.c ****  ===============================================================================  
 468:Drivers/STM32F7xx_HAL_Driver/Src/stm32f7xx_hal_flash.c ****     [..]
 469:Drivers/STM32F7xx_HAL_Driver/Src/stm32f7xx_hal_flash.c ****     This subsection provides a set of functions allowing to control the FLASH 
 470:Drivers/STM32F7xx_HAL_Driver/Src/stm32f7xx_hal_flash.c ****     memory operations.
 471:Drivers/STM32F7xx_HAL_Driver/Src/stm32f7xx_hal_flash.c **** 
 472:Drivers/STM32F7xx_HAL_Driver/Src/stm32f7xx_hal_flash.c **** @endverbatim
 473:Drivers/STM32F7xx_HAL_Driver/Src/stm32f7xx_hal_flash.c ****   * @{
 474:Drivers/STM32F7xx_HAL_Driver/Src/stm32f7xx_hal_flash.c ****   */
 475:Drivers/STM32F7xx_HAL_Driver/Src/stm32f7xx_hal_flash.c **** 
 476:Drivers/STM32F7xx_HAL_Driver/Src/stm32f7xx_hal_flash.c **** /**
 477:Drivers/STM32F7xx_HAL_Driver/Src/stm32f7xx_hal_flash.c ****   * @brief  Unlock the FLASH control register access
 478:Drivers/STM32F7xx_HAL_Driver/Src/stm32f7xx_hal_flash.c ****   * @retval HAL Status
 479:Drivers/STM32F7xx_HAL_Driver/Src/stm32f7xx_hal_flash.c ****   */
 480:Drivers/STM32F7xx_HAL_Driver/Src/stm32f7xx_hal_flash.c **** HAL_StatusTypeDef HAL_FLASH_Unlock(void)
 481:Drivers/STM32F7xx_HAL_Driver/Src/stm32f7xx_hal_flash.c **** {
 656              		.loc 1 481 1
 657              		.cfi_startproc
 658              		@ args = 0, pretend = 0, frame = 8
 659              		@ frame_needed = 1, uses_anonymous_args = 0
 660              		@ link register save eliminated.
 661 0000 80B4     		push	{r7}
 662              	.LCFI27:
 663              		.cfi_def_cfa_offset 4
 664              		.cfi_offset 7, -4
 665 0002 83B0     		sub	sp, sp, #12
 666              	.LCFI28:
 667              		.cfi_def_cfa_offset 16
 668 0004 00AF     		add	r7, sp, #0
 669              	.LCFI29:
 670              		.cfi_def_cfa_register 7
 482:Drivers/STM32F7xx_HAL_Driver/Src/stm32f7xx_hal_flash.c ****   HAL_StatusTypeDef status = HAL_OK;
 671              		.loc 1 482 21
 672 0006 0023     		movs	r3, #0
 673 0008 FB71     		strb	r3, [r7, #7]
 483:Drivers/STM32F7xx_HAL_Driver/Src/stm32f7xx_hal_flash.c **** 
 484:Drivers/STM32F7xx_HAL_Driver/Src/stm32f7xx_hal_flash.c ****   if(READ_BIT(FLASH->CR, FLASH_CR_LOCK) != RESET)
 674              		.loc 1 484 6
 675 000a 0B4B     		ldr	r3, .L54
 676 000c 1B69     		ldr	r3, [r3, #16]
 677              		.loc 1 484 5
 678 000e 002B     		cmp	r3, #0
 679 0010 0BDA     		bge	.L52
 485:Drivers/STM32F7xx_HAL_Driver/Src/stm32f7xx_hal_flash.c ****   {
 486:Drivers/STM32F7xx_HAL_Driver/Src/stm32f7xx_hal_flash.c ****     /* Authorize the FLASH Registers access */
 487:Drivers/STM32F7xx_HAL_Driver/Src/stm32f7xx_hal_flash.c ****     WRITE_REG(FLASH->KEYR, FLASH_KEY1);
 680              		.loc 1 487 5
 681 0012 094B     		ldr	r3, .L54
 682 0014 094A     		ldr	r2, .L54+4
 683 0016 5A60     		str	r2, [r3, #4]
 488:Drivers/STM32F7xx_HAL_Driver/Src/stm32f7xx_hal_flash.c ****     WRITE_REG(FLASH->KEYR, FLASH_KEY2);
 684              		.loc 1 488 5
 685 0018 074B     		ldr	r3, .L54
 686 001a 094A     		ldr	r2, .L54+8
 687 001c 5A60     		str	r2, [r3, #4]
 489:Drivers/STM32F7xx_HAL_Driver/Src/stm32f7xx_hal_flash.c **** 
 490:Drivers/STM32F7xx_HAL_Driver/Src/stm32f7xx_hal_flash.c ****     /* Verify Flash is unlocked */
 491:Drivers/STM32F7xx_HAL_Driver/Src/stm32f7xx_hal_flash.c ****     if(READ_BIT(FLASH->CR, FLASH_CR_LOCK) != RESET)
ARM GAS  /tmp/ccCiGuAf.s 			page 22


 688              		.loc 1 491 8
 689 001e 064B     		ldr	r3, .L54
 690 0020 1B69     		ldr	r3, [r3, #16]
 691              		.loc 1 491 7
 692 0022 002B     		cmp	r3, #0
 693 0024 01DA     		bge	.L52
 492:Drivers/STM32F7xx_HAL_Driver/Src/stm32f7xx_hal_flash.c ****     {
 493:Drivers/STM32F7xx_HAL_Driver/Src/stm32f7xx_hal_flash.c ****       status = HAL_ERROR;
 694              		.loc 1 493 14
 695 0026 0123     		movs	r3, #1
 696 0028 FB71     		strb	r3, [r7, #7]
 697              	.L52:
 494:Drivers/STM32F7xx_HAL_Driver/Src/stm32f7xx_hal_flash.c ****     }
 495:Drivers/STM32F7xx_HAL_Driver/Src/stm32f7xx_hal_flash.c ****   }
 496:Drivers/STM32F7xx_HAL_Driver/Src/stm32f7xx_hal_flash.c **** 
 497:Drivers/STM32F7xx_HAL_Driver/Src/stm32f7xx_hal_flash.c ****   return status;
 698              		.loc 1 497 10
 699 002a FB79     		ldrb	r3, [r7, #7]	@ zero_extendqisi2
 498:Drivers/STM32F7xx_HAL_Driver/Src/stm32f7xx_hal_flash.c **** }
 700              		.loc 1 498 1
 701 002c 1846     		mov	r0, r3
 702 002e 0C37     		adds	r7, r7, #12
 703              	.LCFI30:
 704              		.cfi_def_cfa_offset 4
 705 0030 BD46     		mov	sp, r7
 706              	.LCFI31:
 707              		.cfi_def_cfa_register 13
 708              		@ sp needed
 709 0032 5DF8047B 		ldr	r7, [sp], #4
 710              	.LCFI32:
 711              		.cfi_restore 7
 712              		.cfi_def_cfa_offset 0
 713 0036 7047     		bx	lr
 714              	.L55:
 715              		.align	2
 716              	.L54:
 717 0038 003C0240 		.word	1073888256
 718 003c 23016745 		.word	1164378403
 719 0040 AB89EFCD 		.word	-839939669
 720              		.cfi_endproc
 721              	.LFE146:
 723              		.section	.text.HAL_FLASH_Lock,"ax",%progbits
 724              		.align	1
 725              		.global	HAL_FLASH_Lock
 726              		.syntax unified
 727              		.thumb
 728              		.thumb_func
 729              		.fpu fpv5-d16
 731              	HAL_FLASH_Lock:
 732              	.LFB147:
 499:Drivers/STM32F7xx_HAL_Driver/Src/stm32f7xx_hal_flash.c **** 
 500:Drivers/STM32F7xx_HAL_Driver/Src/stm32f7xx_hal_flash.c **** /**
 501:Drivers/STM32F7xx_HAL_Driver/Src/stm32f7xx_hal_flash.c ****   * @brief  Locks the FLASH control register access
 502:Drivers/STM32F7xx_HAL_Driver/Src/stm32f7xx_hal_flash.c ****   * @retval HAL Status
 503:Drivers/STM32F7xx_HAL_Driver/Src/stm32f7xx_hal_flash.c ****   */
 504:Drivers/STM32F7xx_HAL_Driver/Src/stm32f7xx_hal_flash.c **** HAL_StatusTypeDef HAL_FLASH_Lock(void)
 505:Drivers/STM32F7xx_HAL_Driver/Src/stm32f7xx_hal_flash.c **** {
ARM GAS  /tmp/ccCiGuAf.s 			page 23


 733              		.loc 1 505 1
 734              		.cfi_startproc
 735              		@ args = 0, pretend = 0, frame = 0
 736              		@ frame_needed = 1, uses_anonymous_args = 0
 737              		@ link register save eliminated.
 738 0000 80B4     		push	{r7}
 739              	.LCFI33:
 740              		.cfi_def_cfa_offset 4
 741              		.cfi_offset 7, -4
 742 0002 00AF     		add	r7, sp, #0
 743              	.LCFI34:
 744              		.cfi_def_cfa_register 7
 506:Drivers/STM32F7xx_HAL_Driver/Src/stm32f7xx_hal_flash.c ****   /* Set the LOCK Bit to lock the FLASH Registers access */
 507:Drivers/STM32F7xx_HAL_Driver/Src/stm32f7xx_hal_flash.c ****   FLASH->CR |= FLASH_CR_LOCK;
 745              		.loc 1 507 13
 746 0004 054B     		ldr	r3, .L58
 747 0006 1B69     		ldr	r3, [r3, #16]
 748 0008 044A     		ldr	r2, .L58
 749 000a 43F00043 		orr	r3, r3, #-2147483648
 750 000e 1361     		str	r3, [r2, #16]
 508:Drivers/STM32F7xx_HAL_Driver/Src/stm32f7xx_hal_flash.c ****   
 509:Drivers/STM32F7xx_HAL_Driver/Src/stm32f7xx_hal_flash.c ****   return HAL_OK;  
 751              		.loc 1 509 10
 752 0010 0023     		movs	r3, #0
 510:Drivers/STM32F7xx_HAL_Driver/Src/stm32f7xx_hal_flash.c **** }
 753              		.loc 1 510 1
 754 0012 1846     		mov	r0, r3
 755 0014 BD46     		mov	sp, r7
 756              	.LCFI35:
 757              		.cfi_def_cfa_register 13
 758              		@ sp needed
 759 0016 5DF8047B 		ldr	r7, [sp], #4
 760              	.LCFI36:
 761              		.cfi_restore 7
 762              		.cfi_def_cfa_offset 0
 763 001a 7047     		bx	lr
 764              	.L59:
 765              		.align	2
 766              	.L58:
 767 001c 003C0240 		.word	1073888256
 768              		.cfi_endproc
 769              	.LFE147:
 771              		.section	.text.HAL_FLASH_OB_Unlock,"ax",%progbits
 772              		.align	1
 773              		.global	HAL_FLASH_OB_Unlock
 774              		.syntax unified
 775              		.thumb
 776              		.thumb_func
 777              		.fpu fpv5-d16
 779              	HAL_FLASH_OB_Unlock:
 780              	.LFB148:
 511:Drivers/STM32F7xx_HAL_Driver/Src/stm32f7xx_hal_flash.c **** 
 512:Drivers/STM32F7xx_HAL_Driver/Src/stm32f7xx_hal_flash.c **** /**
 513:Drivers/STM32F7xx_HAL_Driver/Src/stm32f7xx_hal_flash.c ****   * @brief  Unlock the FLASH Option Control Registers access.
 514:Drivers/STM32F7xx_HAL_Driver/Src/stm32f7xx_hal_flash.c ****   * @retval HAL Status
 515:Drivers/STM32F7xx_HAL_Driver/Src/stm32f7xx_hal_flash.c ****   */
 516:Drivers/STM32F7xx_HAL_Driver/Src/stm32f7xx_hal_flash.c **** HAL_StatusTypeDef HAL_FLASH_OB_Unlock(void)
ARM GAS  /tmp/ccCiGuAf.s 			page 24


 517:Drivers/STM32F7xx_HAL_Driver/Src/stm32f7xx_hal_flash.c **** {
 781              		.loc 1 517 1
 782              		.cfi_startproc
 783              		@ args = 0, pretend = 0, frame = 0
 784              		@ frame_needed = 1, uses_anonymous_args = 0
 785              		@ link register save eliminated.
 786 0000 80B4     		push	{r7}
 787              	.LCFI37:
 788              		.cfi_def_cfa_offset 4
 789              		.cfi_offset 7, -4
 790 0002 00AF     		add	r7, sp, #0
 791              	.LCFI38:
 792              		.cfi_def_cfa_register 7
 518:Drivers/STM32F7xx_HAL_Driver/Src/stm32f7xx_hal_flash.c ****   if((FLASH->OPTCR & FLASH_OPTCR_OPTLOCK) != RESET)
 793              		.loc 1 518 12
 794 0004 094B     		ldr	r3, .L64
 795 0006 5B69     		ldr	r3, [r3, #20]
 796              		.loc 1 518 20
 797 0008 03F00103 		and	r3, r3, #1
 798              		.loc 1 518 5
 799 000c 002B     		cmp	r3, #0
 800 000e 07D0     		beq	.L61
 519:Drivers/STM32F7xx_HAL_Driver/Src/stm32f7xx_hal_flash.c ****   {
 520:Drivers/STM32F7xx_HAL_Driver/Src/stm32f7xx_hal_flash.c ****     /* Authorizes the Option Byte register programming */
 521:Drivers/STM32F7xx_HAL_Driver/Src/stm32f7xx_hal_flash.c ****     FLASH->OPTKEYR = FLASH_OPT_KEY1;
 801              		.loc 1 521 10
 802 0010 064B     		ldr	r3, .L64
 803              		.loc 1 521 20
 804 0012 074A     		ldr	r2, .L64+4
 805 0014 9A60     		str	r2, [r3, #8]
 522:Drivers/STM32F7xx_HAL_Driver/Src/stm32f7xx_hal_flash.c ****     FLASH->OPTKEYR = FLASH_OPT_KEY2;
 806              		.loc 1 522 10
 807 0016 054B     		ldr	r3, .L64
 808              		.loc 1 522 20
 809 0018 064A     		ldr	r2, .L64+8
 810 001a 9A60     		str	r2, [r3, #8]
 523:Drivers/STM32F7xx_HAL_Driver/Src/stm32f7xx_hal_flash.c ****   }
 524:Drivers/STM32F7xx_HAL_Driver/Src/stm32f7xx_hal_flash.c ****   else
 525:Drivers/STM32F7xx_HAL_Driver/Src/stm32f7xx_hal_flash.c ****   {
 526:Drivers/STM32F7xx_HAL_Driver/Src/stm32f7xx_hal_flash.c ****     return HAL_ERROR;
 527:Drivers/STM32F7xx_HAL_Driver/Src/stm32f7xx_hal_flash.c ****   }  
 528:Drivers/STM32F7xx_HAL_Driver/Src/stm32f7xx_hal_flash.c ****   
 529:Drivers/STM32F7xx_HAL_Driver/Src/stm32f7xx_hal_flash.c ****   return HAL_OK;  
 811              		.loc 1 529 10
 812 001c 0023     		movs	r3, #0
 813 001e 00E0     		b	.L63
 814              	.L61:
 526:Drivers/STM32F7xx_HAL_Driver/Src/stm32f7xx_hal_flash.c ****   }  
 815              		.loc 1 526 12
 816 0020 0123     		movs	r3, #1
 817              	.L63:
 530:Drivers/STM32F7xx_HAL_Driver/Src/stm32f7xx_hal_flash.c **** }
 818              		.loc 1 530 1
 819 0022 1846     		mov	r0, r3
 820 0024 BD46     		mov	sp, r7
 821              	.LCFI39:
 822              		.cfi_def_cfa_register 13
ARM GAS  /tmp/ccCiGuAf.s 			page 25


 823              		@ sp needed
 824 0026 5DF8047B 		ldr	r7, [sp], #4
 825              	.LCFI40:
 826              		.cfi_restore 7
 827              		.cfi_def_cfa_offset 0
 828 002a 7047     		bx	lr
 829              	.L65:
 830              		.align	2
 831              	.L64:
 832 002c 003C0240 		.word	1073888256
 833 0030 3B2A1908 		.word	135866939
 834 0034 7F6E5D4C 		.word	1281191551
 835              		.cfi_endproc
 836              	.LFE148:
 838              		.section	.text.HAL_FLASH_OB_Lock,"ax",%progbits
 839              		.align	1
 840              		.global	HAL_FLASH_OB_Lock
 841              		.syntax unified
 842              		.thumb
 843              		.thumb_func
 844              		.fpu fpv5-d16
 846              	HAL_FLASH_OB_Lock:
 847              	.LFB149:
 531:Drivers/STM32F7xx_HAL_Driver/Src/stm32f7xx_hal_flash.c **** 
 532:Drivers/STM32F7xx_HAL_Driver/Src/stm32f7xx_hal_flash.c **** /**
 533:Drivers/STM32F7xx_HAL_Driver/Src/stm32f7xx_hal_flash.c ****   * @brief  Lock the FLASH Option Control Registers access.
 534:Drivers/STM32F7xx_HAL_Driver/Src/stm32f7xx_hal_flash.c ****   * @retval HAL Status 
 535:Drivers/STM32F7xx_HAL_Driver/Src/stm32f7xx_hal_flash.c ****   */
 536:Drivers/STM32F7xx_HAL_Driver/Src/stm32f7xx_hal_flash.c **** HAL_StatusTypeDef HAL_FLASH_OB_Lock(void)
 537:Drivers/STM32F7xx_HAL_Driver/Src/stm32f7xx_hal_flash.c **** {
 848              		.loc 1 537 1
 849              		.cfi_startproc
 850              		@ args = 0, pretend = 0, frame = 0
 851              		@ frame_needed = 1, uses_anonymous_args = 0
 852              		@ link register save eliminated.
 853 0000 80B4     		push	{r7}
 854              	.LCFI41:
 855              		.cfi_def_cfa_offset 4
 856              		.cfi_offset 7, -4
 857 0002 00AF     		add	r7, sp, #0
 858              	.LCFI42:
 859              		.cfi_def_cfa_register 7
 538:Drivers/STM32F7xx_HAL_Driver/Src/stm32f7xx_hal_flash.c ****   /* Set the OPTLOCK Bit to lock the FLASH Option Byte Registers access */
 539:Drivers/STM32F7xx_HAL_Driver/Src/stm32f7xx_hal_flash.c ****   FLASH->OPTCR |= FLASH_OPTCR_OPTLOCK;
 860              		.loc 1 539 16
 861 0004 054B     		ldr	r3, .L68
 862 0006 5B69     		ldr	r3, [r3, #20]
 863 0008 044A     		ldr	r2, .L68
 864 000a 43F00103 		orr	r3, r3, #1
 865 000e 5361     		str	r3, [r2, #20]
 540:Drivers/STM32F7xx_HAL_Driver/Src/stm32f7xx_hal_flash.c ****   
 541:Drivers/STM32F7xx_HAL_Driver/Src/stm32f7xx_hal_flash.c ****   return HAL_OK;  
 866              		.loc 1 541 10
 867 0010 0023     		movs	r3, #0
 542:Drivers/STM32F7xx_HAL_Driver/Src/stm32f7xx_hal_flash.c **** }
 868              		.loc 1 542 1
 869 0012 1846     		mov	r0, r3
ARM GAS  /tmp/ccCiGuAf.s 			page 26


 870 0014 BD46     		mov	sp, r7
 871              	.LCFI43:
 872              		.cfi_def_cfa_register 13
 873              		@ sp needed
 874 0016 5DF8047B 		ldr	r7, [sp], #4
 875              	.LCFI44:
 876              		.cfi_restore 7
 877              		.cfi_def_cfa_offset 0
 878 001a 7047     		bx	lr
 879              	.L69:
 880              		.align	2
 881              	.L68:
 882 001c 003C0240 		.word	1073888256
 883              		.cfi_endproc
 884              	.LFE149:
 886              		.section	.text.HAL_FLASH_OB_Launch,"ax",%progbits
 887              		.align	1
 888              		.global	HAL_FLASH_OB_Launch
 889              		.syntax unified
 890              		.thumb
 891              		.thumb_func
 892              		.fpu fpv5-d16
 894              	HAL_FLASH_OB_Launch:
 895              	.LFB150:
 543:Drivers/STM32F7xx_HAL_Driver/Src/stm32f7xx_hal_flash.c **** 
 544:Drivers/STM32F7xx_HAL_Driver/Src/stm32f7xx_hal_flash.c **** /**
 545:Drivers/STM32F7xx_HAL_Driver/Src/stm32f7xx_hal_flash.c ****   * @brief  Launch the option byte loading.
 546:Drivers/STM32F7xx_HAL_Driver/Src/stm32f7xx_hal_flash.c ****   * @retval HAL Status
 547:Drivers/STM32F7xx_HAL_Driver/Src/stm32f7xx_hal_flash.c ****   */
 548:Drivers/STM32F7xx_HAL_Driver/Src/stm32f7xx_hal_flash.c **** HAL_StatusTypeDef HAL_FLASH_OB_Launch(void)
 549:Drivers/STM32F7xx_HAL_Driver/Src/stm32f7xx_hal_flash.c **** {
 896              		.loc 1 549 1
 897              		.cfi_startproc
 898              		@ args = 0, pretend = 0, frame = 0
 899              		@ frame_needed = 1, uses_anonymous_args = 0
 900 0000 80B5     		push	{r7, lr}
 901              	.LCFI45:
 902              		.cfi_def_cfa_offset 8
 903              		.cfi_offset 7, -8
 904              		.cfi_offset 14, -4
 905 0002 00AF     		add	r7, sp, #0
 906              	.LCFI46:
 907              		.cfi_def_cfa_register 7
 550:Drivers/STM32F7xx_HAL_Driver/Src/stm32f7xx_hal_flash.c ****   /* Set the OPTSTRT bit in OPTCR register */
 551:Drivers/STM32F7xx_HAL_Driver/Src/stm32f7xx_hal_flash.c ****   FLASH->OPTCR |= FLASH_OPTCR_OPTSTRT;
 908              		.loc 1 551 16
 909 0004 064B     		ldr	r3, .L72
 910 0006 5B69     		ldr	r3, [r3, #20]
 911 0008 054A     		ldr	r2, .L72
 912 000a 43F00203 		orr	r3, r3, #2
 913 000e 5361     		str	r3, [r2, #20]
 552:Drivers/STM32F7xx_HAL_Driver/Src/stm32f7xx_hal_flash.c **** 
 553:Drivers/STM32F7xx_HAL_Driver/Src/stm32f7xx_hal_flash.c ****   /* Wait for last operation to be completed */
 554:Drivers/STM32F7xx_HAL_Driver/Src/stm32f7xx_hal_flash.c ****   return(FLASH_WaitForLastOperation((uint32_t)FLASH_TIMEOUT_VALUE)); 
 914              		.loc 1 554 10
 915 0010 4CF25030 		movw	r0, #50000
 916 0014 FFF7FEFF 		bl	FLASH_WaitForLastOperation
ARM GAS  /tmp/ccCiGuAf.s 			page 27


 917 0018 0346     		mov	r3, r0
 555:Drivers/STM32F7xx_HAL_Driver/Src/stm32f7xx_hal_flash.c **** }
 918              		.loc 1 555 1
 919 001a 1846     		mov	r0, r3
 920 001c 80BD     		pop	{r7, pc}
 921              	.L73:
 922 001e 00BF     		.align	2
 923              	.L72:
 924 0020 003C0240 		.word	1073888256
 925              		.cfi_endproc
 926              	.LFE150:
 928              		.section	.text.HAL_FLASH_GetError,"ax",%progbits
 929              		.align	1
 930              		.global	HAL_FLASH_GetError
 931              		.syntax unified
 932              		.thumb
 933              		.thumb_func
 934              		.fpu fpv5-d16
 936              	HAL_FLASH_GetError:
 937              	.LFB151:
 556:Drivers/STM32F7xx_HAL_Driver/Src/stm32f7xx_hal_flash.c **** 
 557:Drivers/STM32F7xx_HAL_Driver/Src/stm32f7xx_hal_flash.c **** /**
 558:Drivers/STM32F7xx_HAL_Driver/Src/stm32f7xx_hal_flash.c ****   * @}
 559:Drivers/STM32F7xx_HAL_Driver/Src/stm32f7xx_hal_flash.c ****   */
 560:Drivers/STM32F7xx_HAL_Driver/Src/stm32f7xx_hal_flash.c **** 
 561:Drivers/STM32F7xx_HAL_Driver/Src/stm32f7xx_hal_flash.c **** /** @defgroup FLASH_Exported_Functions_Group3 Peripheral State and Errors functions 
 562:Drivers/STM32F7xx_HAL_Driver/Src/stm32f7xx_hal_flash.c ****  *  @brief   Peripheral Errors functions 
 563:Drivers/STM32F7xx_HAL_Driver/Src/stm32f7xx_hal_flash.c ****  *
 564:Drivers/STM32F7xx_HAL_Driver/Src/stm32f7xx_hal_flash.c **** @verbatim   
 565:Drivers/STM32F7xx_HAL_Driver/Src/stm32f7xx_hal_flash.c ****  ===============================================================================
 566:Drivers/STM32F7xx_HAL_Driver/Src/stm32f7xx_hal_flash.c ****                 ##### Peripheral Errors functions #####
 567:Drivers/STM32F7xx_HAL_Driver/Src/stm32f7xx_hal_flash.c ****  ===============================================================================  
 568:Drivers/STM32F7xx_HAL_Driver/Src/stm32f7xx_hal_flash.c ****     [..]
 569:Drivers/STM32F7xx_HAL_Driver/Src/stm32f7xx_hal_flash.c ****     This subsection permits to get in run-time Errors of the FLASH peripheral.
 570:Drivers/STM32F7xx_HAL_Driver/Src/stm32f7xx_hal_flash.c **** 
 571:Drivers/STM32F7xx_HAL_Driver/Src/stm32f7xx_hal_flash.c **** @endverbatim
 572:Drivers/STM32F7xx_HAL_Driver/Src/stm32f7xx_hal_flash.c ****   * @{
 573:Drivers/STM32F7xx_HAL_Driver/Src/stm32f7xx_hal_flash.c ****   */
 574:Drivers/STM32F7xx_HAL_Driver/Src/stm32f7xx_hal_flash.c **** 
 575:Drivers/STM32F7xx_HAL_Driver/Src/stm32f7xx_hal_flash.c **** /**
 576:Drivers/STM32F7xx_HAL_Driver/Src/stm32f7xx_hal_flash.c ****   * @brief  Get the specific FLASH error flag.
 577:Drivers/STM32F7xx_HAL_Driver/Src/stm32f7xx_hal_flash.c ****   * @retval FLASH_ErrorCode: The returned value can be:
 578:Drivers/STM32F7xx_HAL_Driver/Src/stm32f7xx_hal_flash.c ****   *            @arg FLASH_ERROR_ERS: FLASH Erasing Sequence error flag 
 579:Drivers/STM32F7xx_HAL_Driver/Src/stm32f7xx_hal_flash.c ****   *            @arg FLASH_ERROR_PGP: FLASH Programming Parallelism error flag  
 580:Drivers/STM32F7xx_HAL_Driver/Src/stm32f7xx_hal_flash.c ****   *            @arg FLASH_ERROR_PGA: FLASH Programming Alignment error flag
 581:Drivers/STM32F7xx_HAL_Driver/Src/stm32f7xx_hal_flash.c ****   *            @arg FLASH_ERROR_WRP: FLASH Write protected error flag
 582:Drivers/STM32F7xx_HAL_Driver/Src/stm32f7xx_hal_flash.c ****   *            @arg FLASH_ERROR_OPERATION: FLASH operation Error flag 
 583:Drivers/STM32F7xx_HAL_Driver/Src/stm32f7xx_hal_flash.c ****   */
 584:Drivers/STM32F7xx_HAL_Driver/Src/stm32f7xx_hal_flash.c **** uint32_t HAL_FLASH_GetError(void)
 585:Drivers/STM32F7xx_HAL_Driver/Src/stm32f7xx_hal_flash.c **** { 
 938              		.loc 1 585 1
 939              		.cfi_startproc
 940              		@ args = 0, pretend = 0, frame = 0
 941              		@ frame_needed = 1, uses_anonymous_args = 0
 942              		@ link register save eliminated.
 943 0000 80B4     		push	{r7}
 944              	.LCFI47:
ARM GAS  /tmp/ccCiGuAf.s 			page 28


 945              		.cfi_def_cfa_offset 4
 946              		.cfi_offset 7, -4
 947 0002 00AF     		add	r7, sp, #0
 948              	.LCFI48:
 949              		.cfi_def_cfa_register 7
 586:Drivers/STM32F7xx_HAL_Driver/Src/stm32f7xx_hal_flash.c ****    return pFlash.ErrorCode;
 950              		.loc 1 586 17
 951 0004 034B     		ldr	r3, .L76
 952 0006 9B69     		ldr	r3, [r3, #24]
 587:Drivers/STM32F7xx_HAL_Driver/Src/stm32f7xx_hal_flash.c **** }  
 953              		.loc 1 587 1
 954 0008 1846     		mov	r0, r3
 955 000a BD46     		mov	sp, r7
 956              	.LCFI49:
 957              		.cfi_def_cfa_register 13
 958              		@ sp needed
 959 000c 5DF8047B 		ldr	r7, [sp], #4
 960              	.LCFI50:
 961              		.cfi_restore 7
 962              		.cfi_def_cfa_offset 0
 963 0010 7047     		bx	lr
 964              	.L77:
 965 0012 00BF     		.align	2
 966              	.L76:
 967 0014 00000000 		.word	pFlash
 968              		.cfi_endproc
 969              	.LFE151:
 971              		.section	.text.FLASH_WaitForLastOperation,"ax",%progbits
 972              		.align	1
 973              		.global	FLASH_WaitForLastOperation
 974              		.syntax unified
 975              		.thumb
 976              		.thumb_func
 977              		.fpu fpv5-d16
 979              	FLASH_WaitForLastOperation:
 980              	.LFB152:
 588:Drivers/STM32F7xx_HAL_Driver/Src/stm32f7xx_hal_flash.c ****   
 589:Drivers/STM32F7xx_HAL_Driver/Src/stm32f7xx_hal_flash.c **** /**
 590:Drivers/STM32F7xx_HAL_Driver/Src/stm32f7xx_hal_flash.c ****   * @}
 591:Drivers/STM32F7xx_HAL_Driver/Src/stm32f7xx_hal_flash.c ****   */    
 592:Drivers/STM32F7xx_HAL_Driver/Src/stm32f7xx_hal_flash.c **** 
 593:Drivers/STM32F7xx_HAL_Driver/Src/stm32f7xx_hal_flash.c **** /**
 594:Drivers/STM32F7xx_HAL_Driver/Src/stm32f7xx_hal_flash.c ****   * @brief  Wait for a FLASH operation to complete.
 595:Drivers/STM32F7xx_HAL_Driver/Src/stm32f7xx_hal_flash.c ****   * @param  Timeout maximum flash operationtimeout
 596:Drivers/STM32F7xx_HAL_Driver/Src/stm32f7xx_hal_flash.c ****   * @retval HAL Status
 597:Drivers/STM32F7xx_HAL_Driver/Src/stm32f7xx_hal_flash.c ****   */
 598:Drivers/STM32F7xx_HAL_Driver/Src/stm32f7xx_hal_flash.c **** HAL_StatusTypeDef FLASH_WaitForLastOperation(uint32_t Timeout)
 599:Drivers/STM32F7xx_HAL_Driver/Src/stm32f7xx_hal_flash.c **** { 
 981              		.loc 1 599 1
 982              		.cfi_startproc
 983              		@ args = 0, pretend = 0, frame = 16
 984              		@ frame_needed = 1, uses_anonymous_args = 0
 985 0000 80B5     		push	{r7, lr}
 986              	.LCFI51:
 987              		.cfi_def_cfa_offset 8
 988              		.cfi_offset 7, -8
 989              		.cfi_offset 14, -4
ARM GAS  /tmp/ccCiGuAf.s 			page 29


 990 0002 84B0     		sub	sp, sp, #16
 991              	.LCFI52:
 992              		.cfi_def_cfa_offset 24
 993 0004 00AF     		add	r7, sp, #0
 994              	.LCFI53:
 995              		.cfi_def_cfa_register 7
 996 0006 7860     		str	r0, [r7, #4]
 600:Drivers/STM32F7xx_HAL_Driver/Src/stm32f7xx_hal_flash.c ****   uint32_t tickstart = 0;
 997              		.loc 1 600 12
 998 0008 0023     		movs	r3, #0
 999 000a FB60     		str	r3, [r7, #12]
 601:Drivers/STM32F7xx_HAL_Driver/Src/stm32f7xx_hal_flash.c ****   
 602:Drivers/STM32F7xx_HAL_Driver/Src/stm32f7xx_hal_flash.c ****   /* Clear Error Code */
 603:Drivers/STM32F7xx_HAL_Driver/Src/stm32f7xx_hal_flash.c ****   pFlash.ErrorCode = HAL_FLASH_ERROR_NONE;
 1000              		.loc 1 603 20
 1001 000c 1A4B     		ldr	r3, .L85
 1002 000e 0022     		movs	r2, #0
 1003 0010 9A61     		str	r2, [r3, #24]
 604:Drivers/STM32F7xx_HAL_Driver/Src/stm32f7xx_hal_flash.c ****   
 605:Drivers/STM32F7xx_HAL_Driver/Src/stm32f7xx_hal_flash.c ****   /* Wait for the FLASH operation to complete by polling on BUSY flag to be reset.
 606:Drivers/STM32F7xx_HAL_Driver/Src/stm32f7xx_hal_flash.c ****      Even if the FLASH operation fails, the BUSY flag will be reset and an error
 607:Drivers/STM32F7xx_HAL_Driver/Src/stm32f7xx_hal_flash.c ****      flag will be set */
 608:Drivers/STM32F7xx_HAL_Driver/Src/stm32f7xx_hal_flash.c ****   /* Get tick */
 609:Drivers/STM32F7xx_HAL_Driver/Src/stm32f7xx_hal_flash.c ****   tickstart = HAL_GetTick();
 1004              		.loc 1 609 15
 1005 0012 FFF7FEFF 		bl	HAL_GetTick
 1006 0016 F860     		str	r0, [r7, #12]
 610:Drivers/STM32F7xx_HAL_Driver/Src/stm32f7xx_hal_flash.c **** 
 611:Drivers/STM32F7xx_HAL_Driver/Src/stm32f7xx_hal_flash.c ****   while(__HAL_FLASH_GET_FLAG(FLASH_FLAG_BSY) != RESET) 
 1007              		.loc 1 611 8
 1008 0018 10E0     		b	.L79
 1009              	.L82:
 612:Drivers/STM32F7xx_HAL_Driver/Src/stm32f7xx_hal_flash.c ****   { 
 613:Drivers/STM32F7xx_HAL_Driver/Src/stm32f7xx_hal_flash.c ****     if(Timeout != HAL_MAX_DELAY)
 1010              		.loc 1 613 7
 1011 001a 7B68     		ldr	r3, [r7, #4]
 1012 001c B3F1FF3F 		cmp	r3, #-1
 1013 0020 0CD0     		beq	.L79
 614:Drivers/STM32F7xx_HAL_Driver/Src/stm32f7xx_hal_flash.c ****     {
 615:Drivers/STM32F7xx_HAL_Driver/Src/stm32f7xx_hal_flash.c ****       if((Timeout == 0)||((HAL_GetTick() - tickstart ) > Timeout))
 1014              		.loc 1 615 9
 1015 0022 7B68     		ldr	r3, [r7, #4]
 1016 0024 002B     		cmp	r3, #0
 1017 0026 07D0     		beq	.L80
 1018              		.loc 1 615 28 discriminator 1
 1019 0028 FFF7FEFF 		bl	HAL_GetTick
 1020 002c 0246     		mov	r2, r0
 1021              		.loc 1 615 42 discriminator 1
 1022 002e FB68     		ldr	r3, [r7, #12]
 1023 0030 D31A     		subs	r3, r2, r3
 1024              		.loc 1 615 24 discriminator 1
 1025 0032 7A68     		ldr	r2, [r7, #4]
 1026 0034 9A42     		cmp	r2, r3
 1027 0036 01D2     		bcs	.L79
 1028              	.L80:
 616:Drivers/STM32F7xx_HAL_Driver/Src/stm32f7xx_hal_flash.c ****       {
 617:Drivers/STM32F7xx_HAL_Driver/Src/stm32f7xx_hal_flash.c ****         return HAL_TIMEOUT;
ARM GAS  /tmp/ccCiGuAf.s 			page 30


 1029              		.loc 1 617 16
 1030 0038 0323     		movs	r3, #3
 1031 003a 19E0     		b	.L81
 1032              	.L79:
 611:Drivers/STM32F7xx_HAL_Driver/Src/stm32f7xx_hal_flash.c ****   { 
 1033              		.loc 1 611 9
 1034 003c 0F4B     		ldr	r3, .L85+4
 1035 003e DB68     		ldr	r3, [r3, #12]
 1036 0040 03F48033 		and	r3, r3, #65536
 611:Drivers/STM32F7xx_HAL_Driver/Src/stm32f7xx_hal_flash.c ****   { 
 1037              		.loc 1 611 8
 1038 0044 002B     		cmp	r3, #0
 1039 0046 E8D1     		bne	.L82
 618:Drivers/STM32F7xx_HAL_Driver/Src/stm32f7xx_hal_flash.c ****       }
 619:Drivers/STM32F7xx_HAL_Driver/Src/stm32f7xx_hal_flash.c ****     } 
 620:Drivers/STM32F7xx_HAL_Driver/Src/stm32f7xx_hal_flash.c ****   }
 621:Drivers/STM32F7xx_HAL_Driver/Src/stm32f7xx_hal_flash.c ****   
 622:Drivers/STM32F7xx_HAL_Driver/Src/stm32f7xx_hal_flash.c ****   if(__HAL_FLASH_GET_FLAG(FLASH_FLAG_ALL_ERRORS) != RESET)
 1040              		.loc 1 622 6
 1041 0048 0C4B     		ldr	r3, .L85+4
 1042 004a DB68     		ldr	r3, [r3, #12]
 1043 004c 03F0F203 		and	r3, r3, #242
 1044              		.loc 1 622 5
 1045 0050 002B     		cmp	r3, #0
 1046 0052 03D0     		beq	.L83
 623:Drivers/STM32F7xx_HAL_Driver/Src/stm32f7xx_hal_flash.c ****   {
 624:Drivers/STM32F7xx_HAL_Driver/Src/stm32f7xx_hal_flash.c ****     /*Save the error code*/
 625:Drivers/STM32F7xx_HAL_Driver/Src/stm32f7xx_hal_flash.c ****     FLASH_SetErrorCode();
 1047              		.loc 1 625 5
 1048 0054 FFF7FEFF 		bl	FLASH_SetErrorCode
 626:Drivers/STM32F7xx_HAL_Driver/Src/stm32f7xx_hal_flash.c ****     return HAL_ERROR;
 1049              		.loc 1 626 12
 1050 0058 0123     		movs	r3, #1
 1051 005a 09E0     		b	.L81
 1052              	.L83:
 627:Drivers/STM32F7xx_HAL_Driver/Src/stm32f7xx_hal_flash.c ****   }
 628:Drivers/STM32F7xx_HAL_Driver/Src/stm32f7xx_hal_flash.c ****   
 629:Drivers/STM32F7xx_HAL_Driver/Src/stm32f7xx_hal_flash.c ****   /* Check FLASH End of Operation flag  */
 630:Drivers/STM32F7xx_HAL_Driver/Src/stm32f7xx_hal_flash.c ****   if (__HAL_FLASH_GET_FLAG(FLASH_FLAG_EOP) != RESET)
 1053              		.loc 1 630 7
 1054 005c 074B     		ldr	r3, .L85+4
 1055 005e DB68     		ldr	r3, [r3, #12]
 1056 0060 03F00103 		and	r3, r3, #1
 1057              		.loc 1 630 6
 1058 0064 002B     		cmp	r3, #0
 1059 0066 02D0     		beq	.L84
 631:Drivers/STM32F7xx_HAL_Driver/Src/stm32f7xx_hal_flash.c ****   {
 632:Drivers/STM32F7xx_HAL_Driver/Src/stm32f7xx_hal_flash.c ****     /* Clear FLASH End of Operation pending bit */
 633:Drivers/STM32F7xx_HAL_Driver/Src/stm32f7xx_hal_flash.c ****     __HAL_FLASH_CLEAR_FLAG(FLASH_FLAG_EOP);
 1060              		.loc 1 633 5
 1061 0068 044B     		ldr	r3, .L85+4
 1062 006a 0122     		movs	r2, #1
 1063 006c DA60     		str	r2, [r3, #12]
 1064              	.L84:
 634:Drivers/STM32F7xx_HAL_Driver/Src/stm32f7xx_hal_flash.c ****   }
 635:Drivers/STM32F7xx_HAL_Driver/Src/stm32f7xx_hal_flash.c **** 
 636:Drivers/STM32F7xx_HAL_Driver/Src/stm32f7xx_hal_flash.c ****   /* If there is an error flag set */
ARM GAS  /tmp/ccCiGuAf.s 			page 31


 637:Drivers/STM32F7xx_HAL_Driver/Src/stm32f7xx_hal_flash.c ****   return HAL_OK;
 1065              		.loc 1 637 10
 1066 006e 0023     		movs	r3, #0
 1067              	.L81:
 638:Drivers/STM32F7xx_HAL_Driver/Src/stm32f7xx_hal_flash.c ****   
 639:Drivers/STM32F7xx_HAL_Driver/Src/stm32f7xx_hal_flash.c **** }  
 1068              		.loc 1 639 1
 1069 0070 1846     		mov	r0, r3
 1070 0072 1037     		adds	r7, r7, #16
 1071              	.LCFI54:
 1072              		.cfi_def_cfa_offset 8
 1073 0074 BD46     		mov	sp, r7
 1074              	.LCFI55:
 1075              		.cfi_def_cfa_register 13
 1076              		@ sp needed
 1077 0076 80BD     		pop	{r7, pc}
 1078              	.L86:
 1079              		.align	2
 1080              	.L85:
 1081 0078 00000000 		.word	pFlash
 1082 007c 003C0240 		.word	1073888256
 1083              		.cfi_endproc
 1084              	.LFE152:
 1086              		.section	.text.FLASH_Program_DoubleWord,"ax",%progbits
 1087              		.align	1
 1088              		.syntax unified
 1089              		.thumb
 1090              		.thumb_func
 1091              		.fpu fpv5-d16
 1093              	FLASH_Program_DoubleWord:
 1094              	.LFB153:
 640:Drivers/STM32F7xx_HAL_Driver/Src/stm32f7xx_hal_flash.c **** 
 641:Drivers/STM32F7xx_HAL_Driver/Src/stm32f7xx_hal_flash.c **** /**
 642:Drivers/STM32F7xx_HAL_Driver/Src/stm32f7xx_hal_flash.c ****   * @brief  Program a double word (64-bit) at a specified address.
 643:Drivers/STM32F7xx_HAL_Driver/Src/stm32f7xx_hal_flash.c ****   * @note   This function must be used when the device voltage range is from
 644:Drivers/STM32F7xx_HAL_Driver/Src/stm32f7xx_hal_flash.c ****   *         2.7V to 3.6V and an External Vpp is present.
 645:Drivers/STM32F7xx_HAL_Driver/Src/stm32f7xx_hal_flash.c ****   *
 646:Drivers/STM32F7xx_HAL_Driver/Src/stm32f7xx_hal_flash.c ****   * @note   If an erase and a program operations are requested simultaneously,    
 647:Drivers/STM32F7xx_HAL_Driver/Src/stm32f7xx_hal_flash.c ****   *         the erase operation is performed before the program one.
 648:Drivers/STM32F7xx_HAL_Driver/Src/stm32f7xx_hal_flash.c ****   *  
 649:Drivers/STM32F7xx_HAL_Driver/Src/stm32f7xx_hal_flash.c ****   * @param  Address specifies the address to be programmed.
 650:Drivers/STM32F7xx_HAL_Driver/Src/stm32f7xx_hal_flash.c ****   * @param  Data specifies the data to be programmed.
 651:Drivers/STM32F7xx_HAL_Driver/Src/stm32f7xx_hal_flash.c ****   * @retval None
 652:Drivers/STM32F7xx_HAL_Driver/Src/stm32f7xx_hal_flash.c ****   */
 653:Drivers/STM32F7xx_HAL_Driver/Src/stm32f7xx_hal_flash.c **** static void FLASH_Program_DoubleWord(uint32_t Address, uint64_t Data)
 654:Drivers/STM32F7xx_HAL_Driver/Src/stm32f7xx_hal_flash.c **** {
 1095              		.loc 1 654 1
 1096              		.cfi_startproc
 1097              		@ args = 0, pretend = 0, frame = 16
 1098              		@ frame_needed = 1, uses_anonymous_args = 0
 1099              		@ link register save eliminated.
 1100 0000 80B4     		push	{r7}
 1101              	.LCFI56:
 1102              		.cfi_def_cfa_offset 4
 1103              		.cfi_offset 7, -4
 1104 0002 85B0     		sub	sp, sp, #20
 1105              	.LCFI57:
ARM GAS  /tmp/ccCiGuAf.s 			page 32


 1106              		.cfi_def_cfa_offset 24
 1107 0004 00AF     		add	r7, sp, #0
 1108              	.LCFI58:
 1109              		.cfi_def_cfa_register 7
 1110 0006 F860     		str	r0, [r7, #12]
 1111 0008 C7E90023 		strd	r2, [r7]
 655:Drivers/STM32F7xx_HAL_Driver/Src/stm32f7xx_hal_flash.c ****   /* Check the parameters */
 656:Drivers/STM32F7xx_HAL_Driver/Src/stm32f7xx_hal_flash.c ****   assert_param(IS_FLASH_ADDRESS(Address));
 657:Drivers/STM32F7xx_HAL_Driver/Src/stm32f7xx_hal_flash.c ****   
 658:Drivers/STM32F7xx_HAL_Driver/Src/stm32f7xx_hal_flash.c ****   /* If the previous operation is completed, proceed to program the new data */
 659:Drivers/STM32F7xx_HAL_Driver/Src/stm32f7xx_hal_flash.c ****   FLASH->CR &= CR_PSIZE_MASK;
 1112              		.loc 1 659 13
 1113 000c 164B     		ldr	r3, .L88
 1114 000e 1B69     		ldr	r3, [r3, #16]
 1115 0010 154A     		ldr	r2, .L88
 1116 0012 23F44073 		bic	r3, r3, #768
 1117 0016 1361     		str	r3, [r2, #16]
 660:Drivers/STM32F7xx_HAL_Driver/Src/stm32f7xx_hal_flash.c ****   FLASH->CR |= FLASH_PSIZE_DOUBLE_WORD;
 1118              		.loc 1 660 13
 1119 0018 134B     		ldr	r3, .L88
 1120 001a 1B69     		ldr	r3, [r3, #16]
 1121 001c 124A     		ldr	r2, .L88
 1122 001e 43F44073 		orr	r3, r3, #768
 1123 0022 1361     		str	r3, [r2, #16]
 661:Drivers/STM32F7xx_HAL_Driver/Src/stm32f7xx_hal_flash.c ****   FLASH->CR |= FLASH_CR_PG;
 1124              		.loc 1 661 13
 1125 0024 104B     		ldr	r3, .L88
 1126 0026 1B69     		ldr	r3, [r3, #16]
 1127 0028 0F4A     		ldr	r2, .L88
 1128 002a 43F00103 		orr	r3, r3, #1
 1129 002e 1361     		str	r3, [r2, #16]
 662:Drivers/STM32F7xx_HAL_Driver/Src/stm32f7xx_hal_flash.c **** 
 663:Drivers/STM32F7xx_HAL_Driver/Src/stm32f7xx_hal_flash.c ****   /* Program first word */
 664:Drivers/STM32F7xx_HAL_Driver/Src/stm32f7xx_hal_flash.c ****   *(__IO uint32_t*)Address = (uint32_t)Data;
 1130              		.loc 1 664 4
 1131 0030 FB68     		ldr	r3, [r7, #12]
 1132              		.loc 1 664 30
 1133 0032 3A68     		ldr	r2, [r7]
 1134              		.loc 1 664 28
 1135 0034 1A60     		str	r2, [r3]
 1136              	.LBB12:
 1137              	.LBB13:
 1138              		.file 2 "Drivers/CMSIS/Include/cmsis_gcc.h"
   1:Drivers/CMSIS/Include/cmsis_gcc.h **** /**************************************************************************//**
   2:Drivers/CMSIS/Include/cmsis_gcc.h ****  * @file     cmsis_gcc.h
   3:Drivers/CMSIS/Include/cmsis_gcc.h ****  * @brief    CMSIS compiler GCC header file
   4:Drivers/CMSIS/Include/cmsis_gcc.h ****  * @version  V5.0.4
   5:Drivers/CMSIS/Include/cmsis_gcc.h ****  * @date     09. April 2018
   6:Drivers/CMSIS/Include/cmsis_gcc.h ****  ******************************************************************************/
   7:Drivers/CMSIS/Include/cmsis_gcc.h **** /*
   8:Drivers/CMSIS/Include/cmsis_gcc.h ****  * Copyright (c) 2009-2018 Arm Limited. All rights reserved.
   9:Drivers/CMSIS/Include/cmsis_gcc.h ****  *
  10:Drivers/CMSIS/Include/cmsis_gcc.h ****  * SPDX-License-Identifier: Apache-2.0
  11:Drivers/CMSIS/Include/cmsis_gcc.h ****  *
  12:Drivers/CMSIS/Include/cmsis_gcc.h ****  * Licensed under the Apache License, Version 2.0 (the License); you may
  13:Drivers/CMSIS/Include/cmsis_gcc.h ****  * not use this file except in compliance with the License.
  14:Drivers/CMSIS/Include/cmsis_gcc.h ****  * You may obtain a copy of the License at
ARM GAS  /tmp/ccCiGuAf.s 			page 33


  15:Drivers/CMSIS/Include/cmsis_gcc.h ****  *
  16:Drivers/CMSIS/Include/cmsis_gcc.h ****  * www.apache.org/licenses/LICENSE-2.0
  17:Drivers/CMSIS/Include/cmsis_gcc.h ****  *
  18:Drivers/CMSIS/Include/cmsis_gcc.h ****  * Unless required by applicable law or agreed to in writing, software
  19:Drivers/CMSIS/Include/cmsis_gcc.h ****  * distributed under the License is distributed on an AS IS BASIS, WITHOUT
  20:Drivers/CMSIS/Include/cmsis_gcc.h ****  * WARRANTIES OR CONDITIONS OF ANY KIND, either express or implied.
  21:Drivers/CMSIS/Include/cmsis_gcc.h ****  * See the License for the specific language governing permissions and
  22:Drivers/CMSIS/Include/cmsis_gcc.h ****  * limitations under the License.
  23:Drivers/CMSIS/Include/cmsis_gcc.h ****  */
  24:Drivers/CMSIS/Include/cmsis_gcc.h **** 
  25:Drivers/CMSIS/Include/cmsis_gcc.h **** #ifndef __CMSIS_GCC_H
  26:Drivers/CMSIS/Include/cmsis_gcc.h **** #define __CMSIS_GCC_H
  27:Drivers/CMSIS/Include/cmsis_gcc.h **** 
  28:Drivers/CMSIS/Include/cmsis_gcc.h **** /* ignore some GCC warnings */
  29:Drivers/CMSIS/Include/cmsis_gcc.h **** #pragma GCC diagnostic push
  30:Drivers/CMSIS/Include/cmsis_gcc.h **** #pragma GCC diagnostic ignored "-Wsign-conversion"
  31:Drivers/CMSIS/Include/cmsis_gcc.h **** #pragma GCC diagnostic ignored "-Wconversion"
  32:Drivers/CMSIS/Include/cmsis_gcc.h **** #pragma GCC diagnostic ignored "-Wunused-parameter"
  33:Drivers/CMSIS/Include/cmsis_gcc.h **** 
  34:Drivers/CMSIS/Include/cmsis_gcc.h **** /* Fallback for __has_builtin */
  35:Drivers/CMSIS/Include/cmsis_gcc.h **** #ifndef __has_builtin
  36:Drivers/CMSIS/Include/cmsis_gcc.h ****   #define __has_builtin(x) (0)
  37:Drivers/CMSIS/Include/cmsis_gcc.h **** #endif
  38:Drivers/CMSIS/Include/cmsis_gcc.h **** 
  39:Drivers/CMSIS/Include/cmsis_gcc.h **** /* CMSIS compiler specific defines */
  40:Drivers/CMSIS/Include/cmsis_gcc.h **** #ifndef   __ASM
  41:Drivers/CMSIS/Include/cmsis_gcc.h ****   #define __ASM                                  __asm
  42:Drivers/CMSIS/Include/cmsis_gcc.h **** #endif
  43:Drivers/CMSIS/Include/cmsis_gcc.h **** #ifndef   __INLINE
  44:Drivers/CMSIS/Include/cmsis_gcc.h ****   #define __INLINE                               inline
  45:Drivers/CMSIS/Include/cmsis_gcc.h **** #endif
  46:Drivers/CMSIS/Include/cmsis_gcc.h **** #ifndef   __STATIC_INLINE
  47:Drivers/CMSIS/Include/cmsis_gcc.h ****   #define __STATIC_INLINE                        static inline
  48:Drivers/CMSIS/Include/cmsis_gcc.h **** #endif
  49:Drivers/CMSIS/Include/cmsis_gcc.h **** #ifndef   __STATIC_FORCEINLINE                 
  50:Drivers/CMSIS/Include/cmsis_gcc.h ****   #define __STATIC_FORCEINLINE                   __attribute__((always_inline)) static inline
  51:Drivers/CMSIS/Include/cmsis_gcc.h **** #endif                                           
  52:Drivers/CMSIS/Include/cmsis_gcc.h **** #ifndef   __NO_RETURN
  53:Drivers/CMSIS/Include/cmsis_gcc.h ****   #define __NO_RETURN                            __attribute__((__noreturn__))
  54:Drivers/CMSIS/Include/cmsis_gcc.h **** #endif
  55:Drivers/CMSIS/Include/cmsis_gcc.h **** #ifndef   __USED
  56:Drivers/CMSIS/Include/cmsis_gcc.h ****   #define __USED                                 __attribute__((used))
  57:Drivers/CMSIS/Include/cmsis_gcc.h **** #endif
  58:Drivers/CMSIS/Include/cmsis_gcc.h **** #ifndef   __WEAK
  59:Drivers/CMSIS/Include/cmsis_gcc.h ****   #define __WEAK                                 __attribute__((weak))
  60:Drivers/CMSIS/Include/cmsis_gcc.h **** #endif
  61:Drivers/CMSIS/Include/cmsis_gcc.h **** #ifndef   __PACKED
  62:Drivers/CMSIS/Include/cmsis_gcc.h ****   #define __PACKED                               __attribute__((packed, aligned(1)))
  63:Drivers/CMSIS/Include/cmsis_gcc.h **** #endif
  64:Drivers/CMSIS/Include/cmsis_gcc.h **** #ifndef   __PACKED_STRUCT
  65:Drivers/CMSIS/Include/cmsis_gcc.h ****   #define __PACKED_STRUCT                        struct __attribute__((packed, aligned(1)))
  66:Drivers/CMSIS/Include/cmsis_gcc.h **** #endif
  67:Drivers/CMSIS/Include/cmsis_gcc.h **** #ifndef   __PACKED_UNION
  68:Drivers/CMSIS/Include/cmsis_gcc.h ****   #define __PACKED_UNION                         union __attribute__((packed, aligned(1)))
  69:Drivers/CMSIS/Include/cmsis_gcc.h **** #endif
  70:Drivers/CMSIS/Include/cmsis_gcc.h **** #ifndef   __UNALIGNED_UINT32        /* deprecated */
  71:Drivers/CMSIS/Include/cmsis_gcc.h ****   #pragma GCC diagnostic push
ARM GAS  /tmp/ccCiGuAf.s 			page 34


  72:Drivers/CMSIS/Include/cmsis_gcc.h ****   #pragma GCC diagnostic ignored "-Wpacked"
  73:Drivers/CMSIS/Include/cmsis_gcc.h ****   #pragma GCC diagnostic ignored "-Wattributes"
  74:Drivers/CMSIS/Include/cmsis_gcc.h ****   struct __attribute__((packed)) T_UINT32 { uint32_t v; };
  75:Drivers/CMSIS/Include/cmsis_gcc.h ****   #pragma GCC diagnostic pop
  76:Drivers/CMSIS/Include/cmsis_gcc.h ****   #define __UNALIGNED_UINT32(x)                  (((struct T_UINT32 *)(x))->v)
  77:Drivers/CMSIS/Include/cmsis_gcc.h **** #endif
  78:Drivers/CMSIS/Include/cmsis_gcc.h **** #ifndef   __UNALIGNED_UINT16_WRITE
  79:Drivers/CMSIS/Include/cmsis_gcc.h ****   #pragma GCC diagnostic push
  80:Drivers/CMSIS/Include/cmsis_gcc.h ****   #pragma GCC diagnostic ignored "-Wpacked"
  81:Drivers/CMSIS/Include/cmsis_gcc.h ****   #pragma GCC diagnostic ignored "-Wattributes"
  82:Drivers/CMSIS/Include/cmsis_gcc.h ****   __PACKED_STRUCT T_UINT16_WRITE { uint16_t v; };
  83:Drivers/CMSIS/Include/cmsis_gcc.h ****   #pragma GCC diagnostic pop
  84:Drivers/CMSIS/Include/cmsis_gcc.h ****   #define __UNALIGNED_UINT16_WRITE(addr, val)    (void)((((struct T_UINT16_WRITE *)(void *)(addr))-
  85:Drivers/CMSIS/Include/cmsis_gcc.h **** #endif
  86:Drivers/CMSIS/Include/cmsis_gcc.h **** #ifndef   __UNALIGNED_UINT16_READ
  87:Drivers/CMSIS/Include/cmsis_gcc.h ****   #pragma GCC diagnostic push
  88:Drivers/CMSIS/Include/cmsis_gcc.h ****   #pragma GCC diagnostic ignored "-Wpacked"
  89:Drivers/CMSIS/Include/cmsis_gcc.h ****   #pragma GCC diagnostic ignored "-Wattributes"
  90:Drivers/CMSIS/Include/cmsis_gcc.h ****   __PACKED_STRUCT T_UINT16_READ { uint16_t v; };
  91:Drivers/CMSIS/Include/cmsis_gcc.h ****   #pragma GCC diagnostic pop
  92:Drivers/CMSIS/Include/cmsis_gcc.h ****   #define __UNALIGNED_UINT16_READ(addr)          (((const struct T_UINT16_READ *)(const void *)(add
  93:Drivers/CMSIS/Include/cmsis_gcc.h **** #endif
  94:Drivers/CMSIS/Include/cmsis_gcc.h **** #ifndef   __UNALIGNED_UINT32_WRITE
  95:Drivers/CMSIS/Include/cmsis_gcc.h ****   #pragma GCC diagnostic push
  96:Drivers/CMSIS/Include/cmsis_gcc.h ****   #pragma GCC diagnostic ignored "-Wpacked"
  97:Drivers/CMSIS/Include/cmsis_gcc.h ****   #pragma GCC diagnostic ignored "-Wattributes"
  98:Drivers/CMSIS/Include/cmsis_gcc.h ****   __PACKED_STRUCT T_UINT32_WRITE { uint32_t v; };
  99:Drivers/CMSIS/Include/cmsis_gcc.h ****   #pragma GCC diagnostic pop
 100:Drivers/CMSIS/Include/cmsis_gcc.h ****   #define __UNALIGNED_UINT32_WRITE(addr, val)    (void)((((struct T_UINT32_WRITE *)(void *)(addr))-
 101:Drivers/CMSIS/Include/cmsis_gcc.h **** #endif
 102:Drivers/CMSIS/Include/cmsis_gcc.h **** #ifndef   __UNALIGNED_UINT32_READ
 103:Drivers/CMSIS/Include/cmsis_gcc.h ****   #pragma GCC diagnostic push
 104:Drivers/CMSIS/Include/cmsis_gcc.h ****   #pragma GCC diagnostic ignored "-Wpacked"
 105:Drivers/CMSIS/Include/cmsis_gcc.h ****   #pragma GCC diagnostic ignored "-Wattributes"
 106:Drivers/CMSIS/Include/cmsis_gcc.h ****   __PACKED_STRUCT T_UINT32_READ { uint32_t v; };
 107:Drivers/CMSIS/Include/cmsis_gcc.h ****   #pragma GCC diagnostic pop
 108:Drivers/CMSIS/Include/cmsis_gcc.h ****   #define __UNALIGNED_UINT32_READ(addr)          (((const struct T_UINT32_READ *)(const void *)(add
 109:Drivers/CMSIS/Include/cmsis_gcc.h **** #endif
 110:Drivers/CMSIS/Include/cmsis_gcc.h **** #ifndef   __ALIGNED
 111:Drivers/CMSIS/Include/cmsis_gcc.h ****   #define __ALIGNED(x)                           __attribute__((aligned(x)))
 112:Drivers/CMSIS/Include/cmsis_gcc.h **** #endif
 113:Drivers/CMSIS/Include/cmsis_gcc.h **** #ifndef   __RESTRICT
 114:Drivers/CMSIS/Include/cmsis_gcc.h ****   #define __RESTRICT                             __restrict
 115:Drivers/CMSIS/Include/cmsis_gcc.h **** #endif
 116:Drivers/CMSIS/Include/cmsis_gcc.h **** 
 117:Drivers/CMSIS/Include/cmsis_gcc.h **** 
 118:Drivers/CMSIS/Include/cmsis_gcc.h **** /* ###########################  Core Function Access  ########################### */
 119:Drivers/CMSIS/Include/cmsis_gcc.h **** /** \ingroup  CMSIS_Core_FunctionInterface
 120:Drivers/CMSIS/Include/cmsis_gcc.h ****     \defgroup CMSIS_Core_RegAccFunctions CMSIS Core Register Access Functions
 121:Drivers/CMSIS/Include/cmsis_gcc.h ****   @{
 122:Drivers/CMSIS/Include/cmsis_gcc.h ****  */
 123:Drivers/CMSIS/Include/cmsis_gcc.h **** 
 124:Drivers/CMSIS/Include/cmsis_gcc.h **** /**
 125:Drivers/CMSIS/Include/cmsis_gcc.h ****   \brief   Enable IRQ Interrupts
 126:Drivers/CMSIS/Include/cmsis_gcc.h ****   \details Enables IRQ interrupts by clearing the I-bit in the CPSR.
 127:Drivers/CMSIS/Include/cmsis_gcc.h ****            Can only be executed in Privileged modes.
 128:Drivers/CMSIS/Include/cmsis_gcc.h ****  */
ARM GAS  /tmp/ccCiGuAf.s 			page 35


 129:Drivers/CMSIS/Include/cmsis_gcc.h **** __STATIC_FORCEINLINE void __enable_irq(void)
 130:Drivers/CMSIS/Include/cmsis_gcc.h **** {
 131:Drivers/CMSIS/Include/cmsis_gcc.h ****   __ASM volatile ("cpsie i" : : : "memory");
 132:Drivers/CMSIS/Include/cmsis_gcc.h **** }
 133:Drivers/CMSIS/Include/cmsis_gcc.h **** 
 134:Drivers/CMSIS/Include/cmsis_gcc.h **** 
 135:Drivers/CMSIS/Include/cmsis_gcc.h **** /**
 136:Drivers/CMSIS/Include/cmsis_gcc.h ****   \brief   Disable IRQ Interrupts
 137:Drivers/CMSIS/Include/cmsis_gcc.h ****   \details Disables IRQ interrupts by setting the I-bit in the CPSR.
 138:Drivers/CMSIS/Include/cmsis_gcc.h ****            Can only be executed in Privileged modes.
 139:Drivers/CMSIS/Include/cmsis_gcc.h ****  */
 140:Drivers/CMSIS/Include/cmsis_gcc.h **** __STATIC_FORCEINLINE void __disable_irq(void)
 141:Drivers/CMSIS/Include/cmsis_gcc.h **** {
 142:Drivers/CMSIS/Include/cmsis_gcc.h ****   __ASM volatile ("cpsid i" : : : "memory");
 143:Drivers/CMSIS/Include/cmsis_gcc.h **** }
 144:Drivers/CMSIS/Include/cmsis_gcc.h **** 
 145:Drivers/CMSIS/Include/cmsis_gcc.h **** 
 146:Drivers/CMSIS/Include/cmsis_gcc.h **** /**
 147:Drivers/CMSIS/Include/cmsis_gcc.h ****   \brief   Get Control Register
 148:Drivers/CMSIS/Include/cmsis_gcc.h ****   \details Returns the content of the Control Register.
 149:Drivers/CMSIS/Include/cmsis_gcc.h ****   \return               Control Register value
 150:Drivers/CMSIS/Include/cmsis_gcc.h ****  */
 151:Drivers/CMSIS/Include/cmsis_gcc.h **** __STATIC_FORCEINLINE uint32_t __get_CONTROL(void)
 152:Drivers/CMSIS/Include/cmsis_gcc.h **** {
 153:Drivers/CMSIS/Include/cmsis_gcc.h ****   uint32_t result;
 154:Drivers/CMSIS/Include/cmsis_gcc.h **** 
 155:Drivers/CMSIS/Include/cmsis_gcc.h ****   __ASM volatile ("MRS %0, control" : "=r" (result) );
 156:Drivers/CMSIS/Include/cmsis_gcc.h ****   return(result);
 157:Drivers/CMSIS/Include/cmsis_gcc.h **** }
 158:Drivers/CMSIS/Include/cmsis_gcc.h **** 
 159:Drivers/CMSIS/Include/cmsis_gcc.h **** 
 160:Drivers/CMSIS/Include/cmsis_gcc.h **** #if (defined (__ARM_FEATURE_CMSE ) && (__ARM_FEATURE_CMSE == 3))
 161:Drivers/CMSIS/Include/cmsis_gcc.h **** /**
 162:Drivers/CMSIS/Include/cmsis_gcc.h ****   \brief   Get Control Register (non-secure)
 163:Drivers/CMSIS/Include/cmsis_gcc.h ****   \details Returns the content of the non-secure Control Register when in secure mode.
 164:Drivers/CMSIS/Include/cmsis_gcc.h ****   \return               non-secure Control Register value
 165:Drivers/CMSIS/Include/cmsis_gcc.h ****  */
 166:Drivers/CMSIS/Include/cmsis_gcc.h **** __STATIC_FORCEINLINE uint32_t __TZ_get_CONTROL_NS(void)
 167:Drivers/CMSIS/Include/cmsis_gcc.h **** {
 168:Drivers/CMSIS/Include/cmsis_gcc.h ****   uint32_t result;
 169:Drivers/CMSIS/Include/cmsis_gcc.h **** 
 170:Drivers/CMSIS/Include/cmsis_gcc.h ****   __ASM volatile ("MRS %0, control_ns" : "=r" (result) );
 171:Drivers/CMSIS/Include/cmsis_gcc.h ****   return(result);
 172:Drivers/CMSIS/Include/cmsis_gcc.h **** }
 173:Drivers/CMSIS/Include/cmsis_gcc.h **** #endif
 174:Drivers/CMSIS/Include/cmsis_gcc.h **** 
 175:Drivers/CMSIS/Include/cmsis_gcc.h **** 
 176:Drivers/CMSIS/Include/cmsis_gcc.h **** /**
 177:Drivers/CMSIS/Include/cmsis_gcc.h ****   \brief   Set Control Register
 178:Drivers/CMSIS/Include/cmsis_gcc.h ****   \details Writes the given value to the Control Register.
 179:Drivers/CMSIS/Include/cmsis_gcc.h ****   \param [in]    control  Control Register value to set
 180:Drivers/CMSIS/Include/cmsis_gcc.h ****  */
 181:Drivers/CMSIS/Include/cmsis_gcc.h **** __STATIC_FORCEINLINE void __set_CONTROL(uint32_t control)
 182:Drivers/CMSIS/Include/cmsis_gcc.h **** {
 183:Drivers/CMSIS/Include/cmsis_gcc.h ****   __ASM volatile ("MSR control, %0" : : "r" (control) : "memory");
 184:Drivers/CMSIS/Include/cmsis_gcc.h **** }
 185:Drivers/CMSIS/Include/cmsis_gcc.h **** 
ARM GAS  /tmp/ccCiGuAf.s 			page 36


 186:Drivers/CMSIS/Include/cmsis_gcc.h **** 
 187:Drivers/CMSIS/Include/cmsis_gcc.h **** #if (defined (__ARM_FEATURE_CMSE ) && (__ARM_FEATURE_CMSE == 3))
 188:Drivers/CMSIS/Include/cmsis_gcc.h **** /**
 189:Drivers/CMSIS/Include/cmsis_gcc.h ****   \brief   Set Control Register (non-secure)
 190:Drivers/CMSIS/Include/cmsis_gcc.h ****   \details Writes the given value to the non-secure Control Register when in secure state.
 191:Drivers/CMSIS/Include/cmsis_gcc.h ****   \param [in]    control  Control Register value to set
 192:Drivers/CMSIS/Include/cmsis_gcc.h ****  */
 193:Drivers/CMSIS/Include/cmsis_gcc.h **** __STATIC_FORCEINLINE void __TZ_set_CONTROL_NS(uint32_t control)
 194:Drivers/CMSIS/Include/cmsis_gcc.h **** {
 195:Drivers/CMSIS/Include/cmsis_gcc.h ****   __ASM volatile ("MSR control_ns, %0" : : "r" (control) : "memory");
 196:Drivers/CMSIS/Include/cmsis_gcc.h **** }
 197:Drivers/CMSIS/Include/cmsis_gcc.h **** #endif
 198:Drivers/CMSIS/Include/cmsis_gcc.h **** 
 199:Drivers/CMSIS/Include/cmsis_gcc.h **** 
 200:Drivers/CMSIS/Include/cmsis_gcc.h **** /**
 201:Drivers/CMSIS/Include/cmsis_gcc.h ****   \brief   Get IPSR Register
 202:Drivers/CMSIS/Include/cmsis_gcc.h ****   \details Returns the content of the IPSR Register.
 203:Drivers/CMSIS/Include/cmsis_gcc.h ****   \return               IPSR Register value
 204:Drivers/CMSIS/Include/cmsis_gcc.h ****  */
 205:Drivers/CMSIS/Include/cmsis_gcc.h **** __STATIC_FORCEINLINE uint32_t __get_IPSR(void)
 206:Drivers/CMSIS/Include/cmsis_gcc.h **** {
 207:Drivers/CMSIS/Include/cmsis_gcc.h ****   uint32_t result;
 208:Drivers/CMSIS/Include/cmsis_gcc.h **** 
 209:Drivers/CMSIS/Include/cmsis_gcc.h ****   __ASM volatile ("MRS %0, ipsr" : "=r" (result) );
 210:Drivers/CMSIS/Include/cmsis_gcc.h ****   return(result);
 211:Drivers/CMSIS/Include/cmsis_gcc.h **** }
 212:Drivers/CMSIS/Include/cmsis_gcc.h **** 
 213:Drivers/CMSIS/Include/cmsis_gcc.h **** 
 214:Drivers/CMSIS/Include/cmsis_gcc.h **** /**
 215:Drivers/CMSIS/Include/cmsis_gcc.h ****   \brief   Get APSR Register
 216:Drivers/CMSIS/Include/cmsis_gcc.h ****   \details Returns the content of the APSR Register.
 217:Drivers/CMSIS/Include/cmsis_gcc.h ****   \return               APSR Register value
 218:Drivers/CMSIS/Include/cmsis_gcc.h ****  */
 219:Drivers/CMSIS/Include/cmsis_gcc.h **** __STATIC_FORCEINLINE uint32_t __get_APSR(void)
 220:Drivers/CMSIS/Include/cmsis_gcc.h **** {
 221:Drivers/CMSIS/Include/cmsis_gcc.h ****   uint32_t result;
 222:Drivers/CMSIS/Include/cmsis_gcc.h **** 
 223:Drivers/CMSIS/Include/cmsis_gcc.h ****   __ASM volatile ("MRS %0, apsr" : "=r" (result) );
 224:Drivers/CMSIS/Include/cmsis_gcc.h ****   return(result);
 225:Drivers/CMSIS/Include/cmsis_gcc.h **** }
 226:Drivers/CMSIS/Include/cmsis_gcc.h **** 
 227:Drivers/CMSIS/Include/cmsis_gcc.h **** 
 228:Drivers/CMSIS/Include/cmsis_gcc.h **** /**
 229:Drivers/CMSIS/Include/cmsis_gcc.h ****   \brief   Get xPSR Register
 230:Drivers/CMSIS/Include/cmsis_gcc.h ****   \details Returns the content of the xPSR Register.
 231:Drivers/CMSIS/Include/cmsis_gcc.h ****   \return               xPSR Register value
 232:Drivers/CMSIS/Include/cmsis_gcc.h ****  */
 233:Drivers/CMSIS/Include/cmsis_gcc.h **** __STATIC_FORCEINLINE uint32_t __get_xPSR(void)
 234:Drivers/CMSIS/Include/cmsis_gcc.h **** {
 235:Drivers/CMSIS/Include/cmsis_gcc.h ****   uint32_t result;
 236:Drivers/CMSIS/Include/cmsis_gcc.h **** 
 237:Drivers/CMSIS/Include/cmsis_gcc.h ****   __ASM volatile ("MRS %0, xpsr" : "=r" (result) );
 238:Drivers/CMSIS/Include/cmsis_gcc.h ****   return(result);
 239:Drivers/CMSIS/Include/cmsis_gcc.h **** }
 240:Drivers/CMSIS/Include/cmsis_gcc.h **** 
 241:Drivers/CMSIS/Include/cmsis_gcc.h **** 
 242:Drivers/CMSIS/Include/cmsis_gcc.h **** /**
ARM GAS  /tmp/ccCiGuAf.s 			page 37


 243:Drivers/CMSIS/Include/cmsis_gcc.h ****   \brief   Get Process Stack Pointer
 244:Drivers/CMSIS/Include/cmsis_gcc.h ****   \details Returns the current value of the Process Stack Pointer (PSP).
 245:Drivers/CMSIS/Include/cmsis_gcc.h ****   \return               PSP Register value
 246:Drivers/CMSIS/Include/cmsis_gcc.h ****  */
 247:Drivers/CMSIS/Include/cmsis_gcc.h **** __STATIC_FORCEINLINE uint32_t __get_PSP(void)
 248:Drivers/CMSIS/Include/cmsis_gcc.h **** {
 249:Drivers/CMSIS/Include/cmsis_gcc.h ****   uint32_t result;
 250:Drivers/CMSIS/Include/cmsis_gcc.h **** 
 251:Drivers/CMSIS/Include/cmsis_gcc.h ****   __ASM volatile ("MRS %0, psp"  : "=r" (result) );
 252:Drivers/CMSIS/Include/cmsis_gcc.h ****   return(result);
 253:Drivers/CMSIS/Include/cmsis_gcc.h **** }
 254:Drivers/CMSIS/Include/cmsis_gcc.h **** 
 255:Drivers/CMSIS/Include/cmsis_gcc.h **** 
 256:Drivers/CMSIS/Include/cmsis_gcc.h **** #if (defined (__ARM_FEATURE_CMSE ) && (__ARM_FEATURE_CMSE == 3))
 257:Drivers/CMSIS/Include/cmsis_gcc.h **** /**
 258:Drivers/CMSIS/Include/cmsis_gcc.h ****   \brief   Get Process Stack Pointer (non-secure)
 259:Drivers/CMSIS/Include/cmsis_gcc.h ****   \details Returns the current value of the non-secure Process Stack Pointer (PSP) when in secure s
 260:Drivers/CMSIS/Include/cmsis_gcc.h ****   \return               PSP Register value
 261:Drivers/CMSIS/Include/cmsis_gcc.h ****  */
 262:Drivers/CMSIS/Include/cmsis_gcc.h **** __STATIC_FORCEINLINE uint32_t __TZ_get_PSP_NS(void)
 263:Drivers/CMSIS/Include/cmsis_gcc.h **** {
 264:Drivers/CMSIS/Include/cmsis_gcc.h ****   uint32_t result;
 265:Drivers/CMSIS/Include/cmsis_gcc.h **** 
 266:Drivers/CMSIS/Include/cmsis_gcc.h ****   __ASM volatile ("MRS %0, psp_ns"  : "=r" (result) );
 267:Drivers/CMSIS/Include/cmsis_gcc.h ****   return(result);
 268:Drivers/CMSIS/Include/cmsis_gcc.h **** }
 269:Drivers/CMSIS/Include/cmsis_gcc.h **** #endif
 270:Drivers/CMSIS/Include/cmsis_gcc.h **** 
 271:Drivers/CMSIS/Include/cmsis_gcc.h **** 
 272:Drivers/CMSIS/Include/cmsis_gcc.h **** /**
 273:Drivers/CMSIS/Include/cmsis_gcc.h ****   \brief   Set Process Stack Pointer
 274:Drivers/CMSIS/Include/cmsis_gcc.h ****   \details Assigns the given value to the Process Stack Pointer (PSP).
 275:Drivers/CMSIS/Include/cmsis_gcc.h ****   \param [in]    topOfProcStack  Process Stack Pointer value to set
 276:Drivers/CMSIS/Include/cmsis_gcc.h ****  */
 277:Drivers/CMSIS/Include/cmsis_gcc.h **** __STATIC_FORCEINLINE void __set_PSP(uint32_t topOfProcStack)
 278:Drivers/CMSIS/Include/cmsis_gcc.h **** {
 279:Drivers/CMSIS/Include/cmsis_gcc.h ****   __ASM volatile ("MSR psp, %0" : : "r" (topOfProcStack) : );
 280:Drivers/CMSIS/Include/cmsis_gcc.h **** }
 281:Drivers/CMSIS/Include/cmsis_gcc.h **** 
 282:Drivers/CMSIS/Include/cmsis_gcc.h **** 
 283:Drivers/CMSIS/Include/cmsis_gcc.h **** #if (defined (__ARM_FEATURE_CMSE ) && (__ARM_FEATURE_CMSE == 3))
 284:Drivers/CMSIS/Include/cmsis_gcc.h **** /**
 285:Drivers/CMSIS/Include/cmsis_gcc.h ****   \brief   Set Process Stack Pointer (non-secure)
 286:Drivers/CMSIS/Include/cmsis_gcc.h ****   \details Assigns the given value to the non-secure Process Stack Pointer (PSP) when in secure sta
 287:Drivers/CMSIS/Include/cmsis_gcc.h ****   \param [in]    topOfProcStack  Process Stack Pointer value to set
 288:Drivers/CMSIS/Include/cmsis_gcc.h ****  */
 289:Drivers/CMSIS/Include/cmsis_gcc.h **** __STATIC_FORCEINLINE void __TZ_set_PSP_NS(uint32_t topOfProcStack)
 290:Drivers/CMSIS/Include/cmsis_gcc.h **** {
 291:Drivers/CMSIS/Include/cmsis_gcc.h ****   __ASM volatile ("MSR psp_ns, %0" : : "r" (topOfProcStack) : );
 292:Drivers/CMSIS/Include/cmsis_gcc.h **** }
 293:Drivers/CMSIS/Include/cmsis_gcc.h **** #endif
 294:Drivers/CMSIS/Include/cmsis_gcc.h **** 
 295:Drivers/CMSIS/Include/cmsis_gcc.h **** 
 296:Drivers/CMSIS/Include/cmsis_gcc.h **** /**
 297:Drivers/CMSIS/Include/cmsis_gcc.h ****   \brief   Get Main Stack Pointer
 298:Drivers/CMSIS/Include/cmsis_gcc.h ****   \details Returns the current value of the Main Stack Pointer (MSP).
 299:Drivers/CMSIS/Include/cmsis_gcc.h ****   \return               MSP Register value
ARM GAS  /tmp/ccCiGuAf.s 			page 38


 300:Drivers/CMSIS/Include/cmsis_gcc.h ****  */
 301:Drivers/CMSIS/Include/cmsis_gcc.h **** __STATIC_FORCEINLINE uint32_t __get_MSP(void)
 302:Drivers/CMSIS/Include/cmsis_gcc.h **** {
 303:Drivers/CMSIS/Include/cmsis_gcc.h ****   uint32_t result;
 304:Drivers/CMSIS/Include/cmsis_gcc.h **** 
 305:Drivers/CMSIS/Include/cmsis_gcc.h ****   __ASM volatile ("MRS %0, msp" : "=r" (result) );
 306:Drivers/CMSIS/Include/cmsis_gcc.h ****   return(result);
 307:Drivers/CMSIS/Include/cmsis_gcc.h **** }
 308:Drivers/CMSIS/Include/cmsis_gcc.h **** 
 309:Drivers/CMSIS/Include/cmsis_gcc.h **** 
 310:Drivers/CMSIS/Include/cmsis_gcc.h **** #if (defined (__ARM_FEATURE_CMSE ) && (__ARM_FEATURE_CMSE == 3))
 311:Drivers/CMSIS/Include/cmsis_gcc.h **** /**
 312:Drivers/CMSIS/Include/cmsis_gcc.h ****   \brief   Get Main Stack Pointer (non-secure)
 313:Drivers/CMSIS/Include/cmsis_gcc.h ****   \details Returns the current value of the non-secure Main Stack Pointer (MSP) when in secure stat
 314:Drivers/CMSIS/Include/cmsis_gcc.h ****   \return               MSP Register value
 315:Drivers/CMSIS/Include/cmsis_gcc.h ****  */
 316:Drivers/CMSIS/Include/cmsis_gcc.h **** __STATIC_FORCEINLINE uint32_t __TZ_get_MSP_NS(void)
 317:Drivers/CMSIS/Include/cmsis_gcc.h **** {
 318:Drivers/CMSIS/Include/cmsis_gcc.h ****   uint32_t result;
 319:Drivers/CMSIS/Include/cmsis_gcc.h **** 
 320:Drivers/CMSIS/Include/cmsis_gcc.h ****   __ASM volatile ("MRS %0, msp_ns" : "=r" (result) );
 321:Drivers/CMSIS/Include/cmsis_gcc.h ****   return(result);
 322:Drivers/CMSIS/Include/cmsis_gcc.h **** }
 323:Drivers/CMSIS/Include/cmsis_gcc.h **** #endif
 324:Drivers/CMSIS/Include/cmsis_gcc.h **** 
 325:Drivers/CMSIS/Include/cmsis_gcc.h **** 
 326:Drivers/CMSIS/Include/cmsis_gcc.h **** /**
 327:Drivers/CMSIS/Include/cmsis_gcc.h ****   \brief   Set Main Stack Pointer
 328:Drivers/CMSIS/Include/cmsis_gcc.h ****   \details Assigns the given value to the Main Stack Pointer (MSP).
 329:Drivers/CMSIS/Include/cmsis_gcc.h ****   \param [in]    topOfMainStack  Main Stack Pointer value to set
 330:Drivers/CMSIS/Include/cmsis_gcc.h ****  */
 331:Drivers/CMSIS/Include/cmsis_gcc.h **** __STATIC_FORCEINLINE void __set_MSP(uint32_t topOfMainStack)
 332:Drivers/CMSIS/Include/cmsis_gcc.h **** {
 333:Drivers/CMSIS/Include/cmsis_gcc.h ****   __ASM volatile ("MSR msp, %0" : : "r" (topOfMainStack) : );
 334:Drivers/CMSIS/Include/cmsis_gcc.h **** }
 335:Drivers/CMSIS/Include/cmsis_gcc.h **** 
 336:Drivers/CMSIS/Include/cmsis_gcc.h **** 
 337:Drivers/CMSIS/Include/cmsis_gcc.h **** #if (defined (__ARM_FEATURE_CMSE ) && (__ARM_FEATURE_CMSE == 3))
 338:Drivers/CMSIS/Include/cmsis_gcc.h **** /**
 339:Drivers/CMSIS/Include/cmsis_gcc.h ****   \brief   Set Main Stack Pointer (non-secure)
 340:Drivers/CMSIS/Include/cmsis_gcc.h ****   \details Assigns the given value to the non-secure Main Stack Pointer (MSP) when in secure state.
 341:Drivers/CMSIS/Include/cmsis_gcc.h ****   \param [in]    topOfMainStack  Main Stack Pointer value to set
 342:Drivers/CMSIS/Include/cmsis_gcc.h ****  */
 343:Drivers/CMSIS/Include/cmsis_gcc.h **** __STATIC_FORCEINLINE void __TZ_set_MSP_NS(uint32_t topOfMainStack)
 344:Drivers/CMSIS/Include/cmsis_gcc.h **** {
 345:Drivers/CMSIS/Include/cmsis_gcc.h ****   __ASM volatile ("MSR msp_ns, %0" : : "r" (topOfMainStack) : );
 346:Drivers/CMSIS/Include/cmsis_gcc.h **** }
 347:Drivers/CMSIS/Include/cmsis_gcc.h **** #endif
 348:Drivers/CMSIS/Include/cmsis_gcc.h **** 
 349:Drivers/CMSIS/Include/cmsis_gcc.h **** 
 350:Drivers/CMSIS/Include/cmsis_gcc.h **** #if (defined (__ARM_FEATURE_CMSE ) && (__ARM_FEATURE_CMSE == 3))
 351:Drivers/CMSIS/Include/cmsis_gcc.h **** /**
 352:Drivers/CMSIS/Include/cmsis_gcc.h ****   \brief   Get Stack Pointer (non-secure)
 353:Drivers/CMSIS/Include/cmsis_gcc.h ****   \details Returns the current value of the non-secure Stack Pointer (SP) when in secure state.
 354:Drivers/CMSIS/Include/cmsis_gcc.h ****   \return               SP Register value
 355:Drivers/CMSIS/Include/cmsis_gcc.h ****  */
 356:Drivers/CMSIS/Include/cmsis_gcc.h **** __STATIC_FORCEINLINE uint32_t __TZ_get_SP_NS(void)
ARM GAS  /tmp/ccCiGuAf.s 			page 39


 357:Drivers/CMSIS/Include/cmsis_gcc.h **** {
 358:Drivers/CMSIS/Include/cmsis_gcc.h ****   uint32_t result;
 359:Drivers/CMSIS/Include/cmsis_gcc.h **** 
 360:Drivers/CMSIS/Include/cmsis_gcc.h ****   __ASM volatile ("MRS %0, sp_ns" : "=r" (result) );
 361:Drivers/CMSIS/Include/cmsis_gcc.h ****   return(result);
 362:Drivers/CMSIS/Include/cmsis_gcc.h **** }
 363:Drivers/CMSIS/Include/cmsis_gcc.h **** 
 364:Drivers/CMSIS/Include/cmsis_gcc.h **** 
 365:Drivers/CMSIS/Include/cmsis_gcc.h **** /**
 366:Drivers/CMSIS/Include/cmsis_gcc.h ****   \brief   Set Stack Pointer (non-secure)
 367:Drivers/CMSIS/Include/cmsis_gcc.h ****   \details Assigns the given value to the non-secure Stack Pointer (SP) when in secure state.
 368:Drivers/CMSIS/Include/cmsis_gcc.h ****   \param [in]    topOfStack  Stack Pointer value to set
 369:Drivers/CMSIS/Include/cmsis_gcc.h ****  */
 370:Drivers/CMSIS/Include/cmsis_gcc.h **** __STATIC_FORCEINLINE void __TZ_set_SP_NS(uint32_t topOfStack)
 371:Drivers/CMSIS/Include/cmsis_gcc.h **** {
 372:Drivers/CMSIS/Include/cmsis_gcc.h ****   __ASM volatile ("MSR sp_ns, %0" : : "r" (topOfStack) : );
 373:Drivers/CMSIS/Include/cmsis_gcc.h **** }
 374:Drivers/CMSIS/Include/cmsis_gcc.h **** #endif
 375:Drivers/CMSIS/Include/cmsis_gcc.h **** 
 376:Drivers/CMSIS/Include/cmsis_gcc.h **** 
 377:Drivers/CMSIS/Include/cmsis_gcc.h **** /**
 378:Drivers/CMSIS/Include/cmsis_gcc.h ****   \brief   Get Priority Mask
 379:Drivers/CMSIS/Include/cmsis_gcc.h ****   \details Returns the current state of the priority mask bit from the Priority Mask Register.
 380:Drivers/CMSIS/Include/cmsis_gcc.h ****   \return               Priority Mask value
 381:Drivers/CMSIS/Include/cmsis_gcc.h ****  */
 382:Drivers/CMSIS/Include/cmsis_gcc.h **** __STATIC_FORCEINLINE uint32_t __get_PRIMASK(void)
 383:Drivers/CMSIS/Include/cmsis_gcc.h **** {
 384:Drivers/CMSIS/Include/cmsis_gcc.h ****   uint32_t result;
 385:Drivers/CMSIS/Include/cmsis_gcc.h **** 
 386:Drivers/CMSIS/Include/cmsis_gcc.h ****   __ASM volatile ("MRS %0, primask" : "=r" (result) :: "memory");
 387:Drivers/CMSIS/Include/cmsis_gcc.h ****   return(result);
 388:Drivers/CMSIS/Include/cmsis_gcc.h **** }
 389:Drivers/CMSIS/Include/cmsis_gcc.h **** 
 390:Drivers/CMSIS/Include/cmsis_gcc.h **** 
 391:Drivers/CMSIS/Include/cmsis_gcc.h **** #if (defined (__ARM_FEATURE_CMSE ) && (__ARM_FEATURE_CMSE == 3))
 392:Drivers/CMSIS/Include/cmsis_gcc.h **** /**
 393:Drivers/CMSIS/Include/cmsis_gcc.h ****   \brief   Get Priority Mask (non-secure)
 394:Drivers/CMSIS/Include/cmsis_gcc.h ****   \details Returns the current state of the non-secure priority mask bit from the Priority Mask Reg
 395:Drivers/CMSIS/Include/cmsis_gcc.h ****   \return               Priority Mask value
 396:Drivers/CMSIS/Include/cmsis_gcc.h ****  */
 397:Drivers/CMSIS/Include/cmsis_gcc.h **** __STATIC_FORCEINLINE uint32_t __TZ_get_PRIMASK_NS(void)
 398:Drivers/CMSIS/Include/cmsis_gcc.h **** {
 399:Drivers/CMSIS/Include/cmsis_gcc.h ****   uint32_t result;
 400:Drivers/CMSIS/Include/cmsis_gcc.h **** 
 401:Drivers/CMSIS/Include/cmsis_gcc.h ****   __ASM volatile ("MRS %0, primask_ns" : "=r" (result) :: "memory");
 402:Drivers/CMSIS/Include/cmsis_gcc.h ****   return(result);
 403:Drivers/CMSIS/Include/cmsis_gcc.h **** }
 404:Drivers/CMSIS/Include/cmsis_gcc.h **** #endif
 405:Drivers/CMSIS/Include/cmsis_gcc.h **** 
 406:Drivers/CMSIS/Include/cmsis_gcc.h **** 
 407:Drivers/CMSIS/Include/cmsis_gcc.h **** /**
 408:Drivers/CMSIS/Include/cmsis_gcc.h ****   \brief   Set Priority Mask
 409:Drivers/CMSIS/Include/cmsis_gcc.h ****   \details Assigns the given value to the Priority Mask Register.
 410:Drivers/CMSIS/Include/cmsis_gcc.h ****   \param [in]    priMask  Priority Mask
 411:Drivers/CMSIS/Include/cmsis_gcc.h ****  */
 412:Drivers/CMSIS/Include/cmsis_gcc.h **** __STATIC_FORCEINLINE void __set_PRIMASK(uint32_t priMask)
 413:Drivers/CMSIS/Include/cmsis_gcc.h **** {
ARM GAS  /tmp/ccCiGuAf.s 			page 40


 414:Drivers/CMSIS/Include/cmsis_gcc.h ****   __ASM volatile ("MSR primask, %0" : : "r" (priMask) : "memory");
 415:Drivers/CMSIS/Include/cmsis_gcc.h **** }
 416:Drivers/CMSIS/Include/cmsis_gcc.h **** 
 417:Drivers/CMSIS/Include/cmsis_gcc.h **** 
 418:Drivers/CMSIS/Include/cmsis_gcc.h **** #if (defined (__ARM_FEATURE_CMSE ) && (__ARM_FEATURE_CMSE == 3))
 419:Drivers/CMSIS/Include/cmsis_gcc.h **** /**
 420:Drivers/CMSIS/Include/cmsis_gcc.h ****   \brief   Set Priority Mask (non-secure)
 421:Drivers/CMSIS/Include/cmsis_gcc.h ****   \details Assigns the given value to the non-secure Priority Mask Register when in secure state.
 422:Drivers/CMSIS/Include/cmsis_gcc.h ****   \param [in]    priMask  Priority Mask
 423:Drivers/CMSIS/Include/cmsis_gcc.h ****  */
 424:Drivers/CMSIS/Include/cmsis_gcc.h **** __STATIC_FORCEINLINE void __TZ_set_PRIMASK_NS(uint32_t priMask)
 425:Drivers/CMSIS/Include/cmsis_gcc.h **** {
 426:Drivers/CMSIS/Include/cmsis_gcc.h ****   __ASM volatile ("MSR primask_ns, %0" : : "r" (priMask) : "memory");
 427:Drivers/CMSIS/Include/cmsis_gcc.h **** }
 428:Drivers/CMSIS/Include/cmsis_gcc.h **** #endif
 429:Drivers/CMSIS/Include/cmsis_gcc.h **** 
 430:Drivers/CMSIS/Include/cmsis_gcc.h **** 
 431:Drivers/CMSIS/Include/cmsis_gcc.h **** #if ((defined (__ARM_ARCH_7M__      ) && (__ARM_ARCH_7M__      == 1)) || \
 432:Drivers/CMSIS/Include/cmsis_gcc.h ****      (defined (__ARM_ARCH_7EM__     ) && (__ARM_ARCH_7EM__     == 1)) || \
 433:Drivers/CMSIS/Include/cmsis_gcc.h ****      (defined (__ARM_ARCH_8M_MAIN__ ) && (__ARM_ARCH_8M_MAIN__ == 1))    )
 434:Drivers/CMSIS/Include/cmsis_gcc.h **** /**
 435:Drivers/CMSIS/Include/cmsis_gcc.h ****   \brief   Enable FIQ
 436:Drivers/CMSIS/Include/cmsis_gcc.h ****   \details Enables FIQ interrupts by clearing the F-bit in the CPSR.
 437:Drivers/CMSIS/Include/cmsis_gcc.h ****            Can only be executed in Privileged modes.
 438:Drivers/CMSIS/Include/cmsis_gcc.h ****  */
 439:Drivers/CMSIS/Include/cmsis_gcc.h **** __STATIC_FORCEINLINE void __enable_fault_irq(void)
 440:Drivers/CMSIS/Include/cmsis_gcc.h **** {
 441:Drivers/CMSIS/Include/cmsis_gcc.h ****   __ASM volatile ("cpsie f" : : : "memory");
 442:Drivers/CMSIS/Include/cmsis_gcc.h **** }
 443:Drivers/CMSIS/Include/cmsis_gcc.h **** 
 444:Drivers/CMSIS/Include/cmsis_gcc.h **** 
 445:Drivers/CMSIS/Include/cmsis_gcc.h **** /**
 446:Drivers/CMSIS/Include/cmsis_gcc.h ****   \brief   Disable FIQ
 447:Drivers/CMSIS/Include/cmsis_gcc.h ****   \details Disables FIQ interrupts by setting the F-bit in the CPSR.
 448:Drivers/CMSIS/Include/cmsis_gcc.h ****            Can only be executed in Privileged modes.
 449:Drivers/CMSIS/Include/cmsis_gcc.h ****  */
 450:Drivers/CMSIS/Include/cmsis_gcc.h **** __STATIC_FORCEINLINE void __disable_fault_irq(void)
 451:Drivers/CMSIS/Include/cmsis_gcc.h **** {
 452:Drivers/CMSIS/Include/cmsis_gcc.h ****   __ASM volatile ("cpsid f" : : : "memory");
 453:Drivers/CMSIS/Include/cmsis_gcc.h **** }
 454:Drivers/CMSIS/Include/cmsis_gcc.h **** 
 455:Drivers/CMSIS/Include/cmsis_gcc.h **** 
 456:Drivers/CMSIS/Include/cmsis_gcc.h **** /**
 457:Drivers/CMSIS/Include/cmsis_gcc.h ****   \brief   Get Base Priority
 458:Drivers/CMSIS/Include/cmsis_gcc.h ****   \details Returns the current value of the Base Priority register.
 459:Drivers/CMSIS/Include/cmsis_gcc.h ****   \return               Base Priority register value
 460:Drivers/CMSIS/Include/cmsis_gcc.h ****  */
 461:Drivers/CMSIS/Include/cmsis_gcc.h **** __STATIC_FORCEINLINE uint32_t __get_BASEPRI(void)
 462:Drivers/CMSIS/Include/cmsis_gcc.h **** {
 463:Drivers/CMSIS/Include/cmsis_gcc.h ****   uint32_t result;
 464:Drivers/CMSIS/Include/cmsis_gcc.h **** 
 465:Drivers/CMSIS/Include/cmsis_gcc.h ****   __ASM volatile ("MRS %0, basepri" : "=r" (result) );
 466:Drivers/CMSIS/Include/cmsis_gcc.h ****   return(result);
 467:Drivers/CMSIS/Include/cmsis_gcc.h **** }
 468:Drivers/CMSIS/Include/cmsis_gcc.h **** 
 469:Drivers/CMSIS/Include/cmsis_gcc.h **** 
 470:Drivers/CMSIS/Include/cmsis_gcc.h **** #if (defined (__ARM_FEATURE_CMSE ) && (__ARM_FEATURE_CMSE == 3))
ARM GAS  /tmp/ccCiGuAf.s 			page 41


 471:Drivers/CMSIS/Include/cmsis_gcc.h **** /**
 472:Drivers/CMSIS/Include/cmsis_gcc.h ****   \brief   Get Base Priority (non-secure)
 473:Drivers/CMSIS/Include/cmsis_gcc.h ****   \details Returns the current value of the non-secure Base Priority register when in secure state.
 474:Drivers/CMSIS/Include/cmsis_gcc.h ****   \return               Base Priority register value
 475:Drivers/CMSIS/Include/cmsis_gcc.h ****  */
 476:Drivers/CMSIS/Include/cmsis_gcc.h **** __STATIC_FORCEINLINE uint32_t __TZ_get_BASEPRI_NS(void)
 477:Drivers/CMSIS/Include/cmsis_gcc.h **** {
 478:Drivers/CMSIS/Include/cmsis_gcc.h ****   uint32_t result;
 479:Drivers/CMSIS/Include/cmsis_gcc.h **** 
 480:Drivers/CMSIS/Include/cmsis_gcc.h ****   __ASM volatile ("MRS %0, basepri_ns" : "=r" (result) );
 481:Drivers/CMSIS/Include/cmsis_gcc.h ****   return(result);
 482:Drivers/CMSIS/Include/cmsis_gcc.h **** }
 483:Drivers/CMSIS/Include/cmsis_gcc.h **** #endif
 484:Drivers/CMSIS/Include/cmsis_gcc.h **** 
 485:Drivers/CMSIS/Include/cmsis_gcc.h **** 
 486:Drivers/CMSIS/Include/cmsis_gcc.h **** /**
 487:Drivers/CMSIS/Include/cmsis_gcc.h ****   \brief   Set Base Priority
 488:Drivers/CMSIS/Include/cmsis_gcc.h ****   \details Assigns the given value to the Base Priority register.
 489:Drivers/CMSIS/Include/cmsis_gcc.h ****   \param [in]    basePri  Base Priority value to set
 490:Drivers/CMSIS/Include/cmsis_gcc.h ****  */
 491:Drivers/CMSIS/Include/cmsis_gcc.h **** __STATIC_FORCEINLINE void __set_BASEPRI(uint32_t basePri)
 492:Drivers/CMSIS/Include/cmsis_gcc.h **** {
 493:Drivers/CMSIS/Include/cmsis_gcc.h ****   __ASM volatile ("MSR basepri, %0" : : "r" (basePri) : "memory");
 494:Drivers/CMSIS/Include/cmsis_gcc.h **** }
 495:Drivers/CMSIS/Include/cmsis_gcc.h **** 
 496:Drivers/CMSIS/Include/cmsis_gcc.h **** 
 497:Drivers/CMSIS/Include/cmsis_gcc.h **** #if (defined (__ARM_FEATURE_CMSE ) && (__ARM_FEATURE_CMSE == 3))
 498:Drivers/CMSIS/Include/cmsis_gcc.h **** /**
 499:Drivers/CMSIS/Include/cmsis_gcc.h ****   \brief   Set Base Priority (non-secure)
 500:Drivers/CMSIS/Include/cmsis_gcc.h ****   \details Assigns the given value to the non-secure Base Priority register when in secure state.
 501:Drivers/CMSIS/Include/cmsis_gcc.h ****   \param [in]    basePri  Base Priority value to set
 502:Drivers/CMSIS/Include/cmsis_gcc.h ****  */
 503:Drivers/CMSIS/Include/cmsis_gcc.h **** __STATIC_FORCEINLINE void __TZ_set_BASEPRI_NS(uint32_t basePri)
 504:Drivers/CMSIS/Include/cmsis_gcc.h **** {
 505:Drivers/CMSIS/Include/cmsis_gcc.h ****   __ASM volatile ("MSR basepri_ns, %0" : : "r" (basePri) : "memory");
 506:Drivers/CMSIS/Include/cmsis_gcc.h **** }
 507:Drivers/CMSIS/Include/cmsis_gcc.h **** #endif
 508:Drivers/CMSIS/Include/cmsis_gcc.h **** 
 509:Drivers/CMSIS/Include/cmsis_gcc.h **** 
 510:Drivers/CMSIS/Include/cmsis_gcc.h **** /**
 511:Drivers/CMSIS/Include/cmsis_gcc.h ****   \brief   Set Base Priority with condition
 512:Drivers/CMSIS/Include/cmsis_gcc.h ****   \details Assigns the given value to the Base Priority register only if BASEPRI masking is disable
 513:Drivers/CMSIS/Include/cmsis_gcc.h ****            or the new value increases the BASEPRI priority level.
 514:Drivers/CMSIS/Include/cmsis_gcc.h ****   \param [in]    basePri  Base Priority value to set
 515:Drivers/CMSIS/Include/cmsis_gcc.h ****  */
 516:Drivers/CMSIS/Include/cmsis_gcc.h **** __STATIC_FORCEINLINE void __set_BASEPRI_MAX(uint32_t basePri)
 517:Drivers/CMSIS/Include/cmsis_gcc.h **** {
 518:Drivers/CMSIS/Include/cmsis_gcc.h ****   __ASM volatile ("MSR basepri_max, %0" : : "r" (basePri) : "memory");
 519:Drivers/CMSIS/Include/cmsis_gcc.h **** }
 520:Drivers/CMSIS/Include/cmsis_gcc.h **** 
 521:Drivers/CMSIS/Include/cmsis_gcc.h **** 
 522:Drivers/CMSIS/Include/cmsis_gcc.h **** /**
 523:Drivers/CMSIS/Include/cmsis_gcc.h ****   \brief   Get Fault Mask
 524:Drivers/CMSIS/Include/cmsis_gcc.h ****   \details Returns the current value of the Fault Mask register.
 525:Drivers/CMSIS/Include/cmsis_gcc.h ****   \return               Fault Mask register value
 526:Drivers/CMSIS/Include/cmsis_gcc.h ****  */
 527:Drivers/CMSIS/Include/cmsis_gcc.h **** __STATIC_FORCEINLINE uint32_t __get_FAULTMASK(void)
ARM GAS  /tmp/ccCiGuAf.s 			page 42


 528:Drivers/CMSIS/Include/cmsis_gcc.h **** {
 529:Drivers/CMSIS/Include/cmsis_gcc.h ****   uint32_t result;
 530:Drivers/CMSIS/Include/cmsis_gcc.h **** 
 531:Drivers/CMSIS/Include/cmsis_gcc.h ****   __ASM volatile ("MRS %0, faultmask" : "=r" (result) );
 532:Drivers/CMSIS/Include/cmsis_gcc.h ****   return(result);
 533:Drivers/CMSIS/Include/cmsis_gcc.h **** }
 534:Drivers/CMSIS/Include/cmsis_gcc.h **** 
 535:Drivers/CMSIS/Include/cmsis_gcc.h **** 
 536:Drivers/CMSIS/Include/cmsis_gcc.h **** #if (defined (__ARM_FEATURE_CMSE ) && (__ARM_FEATURE_CMSE == 3))
 537:Drivers/CMSIS/Include/cmsis_gcc.h **** /**
 538:Drivers/CMSIS/Include/cmsis_gcc.h ****   \brief   Get Fault Mask (non-secure)
 539:Drivers/CMSIS/Include/cmsis_gcc.h ****   \details Returns the current value of the non-secure Fault Mask register when in secure state.
 540:Drivers/CMSIS/Include/cmsis_gcc.h ****   \return               Fault Mask register value
 541:Drivers/CMSIS/Include/cmsis_gcc.h ****  */
 542:Drivers/CMSIS/Include/cmsis_gcc.h **** __STATIC_FORCEINLINE uint32_t __TZ_get_FAULTMASK_NS(void)
 543:Drivers/CMSIS/Include/cmsis_gcc.h **** {
 544:Drivers/CMSIS/Include/cmsis_gcc.h ****   uint32_t result;
 545:Drivers/CMSIS/Include/cmsis_gcc.h **** 
 546:Drivers/CMSIS/Include/cmsis_gcc.h ****   __ASM volatile ("MRS %0, faultmask_ns" : "=r" (result) );
 547:Drivers/CMSIS/Include/cmsis_gcc.h ****   return(result);
 548:Drivers/CMSIS/Include/cmsis_gcc.h **** }
 549:Drivers/CMSIS/Include/cmsis_gcc.h **** #endif
 550:Drivers/CMSIS/Include/cmsis_gcc.h **** 
 551:Drivers/CMSIS/Include/cmsis_gcc.h **** 
 552:Drivers/CMSIS/Include/cmsis_gcc.h **** /**
 553:Drivers/CMSIS/Include/cmsis_gcc.h ****   \brief   Set Fault Mask
 554:Drivers/CMSIS/Include/cmsis_gcc.h ****   \details Assigns the given value to the Fault Mask register.
 555:Drivers/CMSIS/Include/cmsis_gcc.h ****   \param [in]    faultMask  Fault Mask value to set
 556:Drivers/CMSIS/Include/cmsis_gcc.h ****  */
 557:Drivers/CMSIS/Include/cmsis_gcc.h **** __STATIC_FORCEINLINE void __set_FAULTMASK(uint32_t faultMask)
 558:Drivers/CMSIS/Include/cmsis_gcc.h **** {
 559:Drivers/CMSIS/Include/cmsis_gcc.h ****   __ASM volatile ("MSR faultmask, %0" : : "r" (faultMask) : "memory");
 560:Drivers/CMSIS/Include/cmsis_gcc.h **** }
 561:Drivers/CMSIS/Include/cmsis_gcc.h **** 
 562:Drivers/CMSIS/Include/cmsis_gcc.h **** 
 563:Drivers/CMSIS/Include/cmsis_gcc.h **** #if (defined (__ARM_FEATURE_CMSE ) && (__ARM_FEATURE_CMSE == 3))
 564:Drivers/CMSIS/Include/cmsis_gcc.h **** /**
 565:Drivers/CMSIS/Include/cmsis_gcc.h ****   \brief   Set Fault Mask (non-secure)
 566:Drivers/CMSIS/Include/cmsis_gcc.h ****   \details Assigns the given value to the non-secure Fault Mask register when in secure state.
 567:Drivers/CMSIS/Include/cmsis_gcc.h ****   \param [in]    faultMask  Fault Mask value to set
 568:Drivers/CMSIS/Include/cmsis_gcc.h ****  */
 569:Drivers/CMSIS/Include/cmsis_gcc.h **** __STATIC_FORCEINLINE void __TZ_set_FAULTMASK_NS(uint32_t faultMask)
 570:Drivers/CMSIS/Include/cmsis_gcc.h **** {
 571:Drivers/CMSIS/Include/cmsis_gcc.h ****   __ASM volatile ("MSR faultmask_ns, %0" : : "r" (faultMask) : "memory");
 572:Drivers/CMSIS/Include/cmsis_gcc.h **** }
 573:Drivers/CMSIS/Include/cmsis_gcc.h **** #endif
 574:Drivers/CMSIS/Include/cmsis_gcc.h **** 
 575:Drivers/CMSIS/Include/cmsis_gcc.h **** #endif /* ((defined (__ARM_ARCH_7M__      ) && (__ARM_ARCH_7M__      == 1)) || \
 576:Drivers/CMSIS/Include/cmsis_gcc.h ****            (defined (__ARM_ARCH_7EM__     ) && (__ARM_ARCH_7EM__     == 1)) || \
 577:Drivers/CMSIS/Include/cmsis_gcc.h ****            (defined (__ARM_ARCH_8M_MAIN__ ) && (__ARM_ARCH_8M_MAIN__ == 1))    ) */
 578:Drivers/CMSIS/Include/cmsis_gcc.h **** 
 579:Drivers/CMSIS/Include/cmsis_gcc.h **** 
 580:Drivers/CMSIS/Include/cmsis_gcc.h **** #if ((defined (__ARM_ARCH_8M_MAIN__ ) && (__ARM_ARCH_8M_MAIN__ == 1)) || \
 581:Drivers/CMSIS/Include/cmsis_gcc.h ****      (defined (__ARM_ARCH_8M_BASE__ ) && (__ARM_ARCH_8M_BASE__ == 1))    )
 582:Drivers/CMSIS/Include/cmsis_gcc.h **** 
 583:Drivers/CMSIS/Include/cmsis_gcc.h **** /**
 584:Drivers/CMSIS/Include/cmsis_gcc.h ****   \brief   Get Process Stack Pointer Limit
ARM GAS  /tmp/ccCiGuAf.s 			page 43


 585:Drivers/CMSIS/Include/cmsis_gcc.h ****   Devices without ARMv8-M Main Extensions (i.e. Cortex-M23) lack the non-secure
 586:Drivers/CMSIS/Include/cmsis_gcc.h ****   Stack Pointer Limit register hence zero is returned always in non-secure
 587:Drivers/CMSIS/Include/cmsis_gcc.h ****   mode.
 588:Drivers/CMSIS/Include/cmsis_gcc.h ****   
 589:Drivers/CMSIS/Include/cmsis_gcc.h ****   \details Returns the current value of the Process Stack Pointer Limit (PSPLIM).
 590:Drivers/CMSIS/Include/cmsis_gcc.h ****   \return               PSPLIM Register value
 591:Drivers/CMSIS/Include/cmsis_gcc.h ****  */
 592:Drivers/CMSIS/Include/cmsis_gcc.h **** __STATIC_FORCEINLINE uint32_t __get_PSPLIM(void)
 593:Drivers/CMSIS/Include/cmsis_gcc.h **** {
 594:Drivers/CMSIS/Include/cmsis_gcc.h **** #if (!(defined (__ARM_ARCH_8M_MAIN__ ) && (__ARM_ARCH_8M_MAIN__ == 1)) && \
 595:Drivers/CMSIS/Include/cmsis_gcc.h ****     (!defined (__ARM_FEATURE_CMSE) || (__ARM_FEATURE_CMSE < 3)))
 596:Drivers/CMSIS/Include/cmsis_gcc.h ****     // without main extensions, the non-secure PSPLIM is RAZ/WI
 597:Drivers/CMSIS/Include/cmsis_gcc.h ****   return 0U;
 598:Drivers/CMSIS/Include/cmsis_gcc.h **** #else
 599:Drivers/CMSIS/Include/cmsis_gcc.h ****   uint32_t result;
 600:Drivers/CMSIS/Include/cmsis_gcc.h ****   __ASM volatile ("MRS %0, psplim"  : "=r" (result) );
 601:Drivers/CMSIS/Include/cmsis_gcc.h ****   return result;
 602:Drivers/CMSIS/Include/cmsis_gcc.h **** #endif
 603:Drivers/CMSIS/Include/cmsis_gcc.h **** }
 604:Drivers/CMSIS/Include/cmsis_gcc.h **** 
 605:Drivers/CMSIS/Include/cmsis_gcc.h **** #if (defined (__ARM_FEATURE_CMSE) && (__ARM_FEATURE_CMSE == 3))
 606:Drivers/CMSIS/Include/cmsis_gcc.h **** /**
 607:Drivers/CMSIS/Include/cmsis_gcc.h ****   \brief   Get Process Stack Pointer Limit (non-secure)
 608:Drivers/CMSIS/Include/cmsis_gcc.h ****   Devices without ARMv8-M Main Extensions (i.e. Cortex-M23) lack the non-secure
 609:Drivers/CMSIS/Include/cmsis_gcc.h ****   Stack Pointer Limit register hence zero is returned always.
 610:Drivers/CMSIS/Include/cmsis_gcc.h **** 
 611:Drivers/CMSIS/Include/cmsis_gcc.h ****   \details Returns the current value of the non-secure Process Stack Pointer Limit (PSPLIM) when in
 612:Drivers/CMSIS/Include/cmsis_gcc.h ****   \return               PSPLIM Register value
 613:Drivers/CMSIS/Include/cmsis_gcc.h ****  */
 614:Drivers/CMSIS/Include/cmsis_gcc.h **** __STATIC_FORCEINLINE uint32_t __TZ_get_PSPLIM_NS(void)
 615:Drivers/CMSIS/Include/cmsis_gcc.h **** {
 616:Drivers/CMSIS/Include/cmsis_gcc.h **** #if (!(defined (__ARM_ARCH_8M_MAIN__ ) && (__ARM_ARCH_8M_MAIN__ == 1)))
 617:Drivers/CMSIS/Include/cmsis_gcc.h ****   // without main extensions, the non-secure PSPLIM is RAZ/WI
 618:Drivers/CMSIS/Include/cmsis_gcc.h ****   return 0U;
 619:Drivers/CMSIS/Include/cmsis_gcc.h **** #else
 620:Drivers/CMSIS/Include/cmsis_gcc.h ****   uint32_t result;
 621:Drivers/CMSIS/Include/cmsis_gcc.h ****   __ASM volatile ("MRS %0, psplim_ns"  : "=r" (result) );
 622:Drivers/CMSIS/Include/cmsis_gcc.h ****   return result;
 623:Drivers/CMSIS/Include/cmsis_gcc.h **** #endif
 624:Drivers/CMSIS/Include/cmsis_gcc.h **** }
 625:Drivers/CMSIS/Include/cmsis_gcc.h **** #endif
 626:Drivers/CMSIS/Include/cmsis_gcc.h **** 
 627:Drivers/CMSIS/Include/cmsis_gcc.h **** 
 628:Drivers/CMSIS/Include/cmsis_gcc.h **** /**
 629:Drivers/CMSIS/Include/cmsis_gcc.h ****   \brief   Set Process Stack Pointer Limit
 630:Drivers/CMSIS/Include/cmsis_gcc.h ****   Devices without ARMv8-M Main Extensions (i.e. Cortex-M23) lack the non-secure
 631:Drivers/CMSIS/Include/cmsis_gcc.h ****   Stack Pointer Limit register hence the write is silently ignored in non-secure
 632:Drivers/CMSIS/Include/cmsis_gcc.h ****   mode.
 633:Drivers/CMSIS/Include/cmsis_gcc.h ****   
 634:Drivers/CMSIS/Include/cmsis_gcc.h ****   \details Assigns the given value to the Process Stack Pointer Limit (PSPLIM).
 635:Drivers/CMSIS/Include/cmsis_gcc.h ****   \param [in]    ProcStackPtrLimit  Process Stack Pointer Limit value to set
 636:Drivers/CMSIS/Include/cmsis_gcc.h ****  */
 637:Drivers/CMSIS/Include/cmsis_gcc.h **** __STATIC_FORCEINLINE void __set_PSPLIM(uint32_t ProcStackPtrLimit)
 638:Drivers/CMSIS/Include/cmsis_gcc.h **** {
 639:Drivers/CMSIS/Include/cmsis_gcc.h **** #if (!(defined (__ARM_ARCH_8M_MAIN__ ) && (__ARM_ARCH_8M_MAIN__ == 1)) && \
 640:Drivers/CMSIS/Include/cmsis_gcc.h ****     (!defined (__ARM_FEATURE_CMSE) || (__ARM_FEATURE_CMSE < 3)))
 641:Drivers/CMSIS/Include/cmsis_gcc.h ****   // without main extensions, the non-secure PSPLIM is RAZ/WI
ARM GAS  /tmp/ccCiGuAf.s 			page 44


 642:Drivers/CMSIS/Include/cmsis_gcc.h ****   (void)ProcStackPtrLimit;
 643:Drivers/CMSIS/Include/cmsis_gcc.h **** #else
 644:Drivers/CMSIS/Include/cmsis_gcc.h ****   __ASM volatile ("MSR psplim, %0" : : "r" (ProcStackPtrLimit));
 645:Drivers/CMSIS/Include/cmsis_gcc.h **** #endif
 646:Drivers/CMSIS/Include/cmsis_gcc.h **** }
 647:Drivers/CMSIS/Include/cmsis_gcc.h **** 
 648:Drivers/CMSIS/Include/cmsis_gcc.h **** 
 649:Drivers/CMSIS/Include/cmsis_gcc.h **** #if (defined (__ARM_FEATURE_CMSE  ) && (__ARM_FEATURE_CMSE   == 3))
 650:Drivers/CMSIS/Include/cmsis_gcc.h **** /**
 651:Drivers/CMSIS/Include/cmsis_gcc.h ****   \brief   Set Process Stack Pointer (non-secure)
 652:Drivers/CMSIS/Include/cmsis_gcc.h ****   Devices without ARMv8-M Main Extensions (i.e. Cortex-M23) lack the non-secure
 653:Drivers/CMSIS/Include/cmsis_gcc.h ****   Stack Pointer Limit register hence the write is silently ignored.
 654:Drivers/CMSIS/Include/cmsis_gcc.h **** 
 655:Drivers/CMSIS/Include/cmsis_gcc.h ****   \details Assigns the given value to the non-secure Process Stack Pointer Limit (PSPLIM) when in s
 656:Drivers/CMSIS/Include/cmsis_gcc.h ****   \param [in]    ProcStackPtrLimit  Process Stack Pointer Limit value to set
 657:Drivers/CMSIS/Include/cmsis_gcc.h ****  */
 658:Drivers/CMSIS/Include/cmsis_gcc.h **** __STATIC_FORCEINLINE void __TZ_set_PSPLIM_NS(uint32_t ProcStackPtrLimit)
 659:Drivers/CMSIS/Include/cmsis_gcc.h **** {
 660:Drivers/CMSIS/Include/cmsis_gcc.h **** #if (!(defined (__ARM_ARCH_8M_MAIN__ ) && (__ARM_ARCH_8M_MAIN__ == 1)))
 661:Drivers/CMSIS/Include/cmsis_gcc.h ****   // without main extensions, the non-secure PSPLIM is RAZ/WI
 662:Drivers/CMSIS/Include/cmsis_gcc.h ****   (void)ProcStackPtrLimit;
 663:Drivers/CMSIS/Include/cmsis_gcc.h **** #else
 664:Drivers/CMSIS/Include/cmsis_gcc.h ****   __ASM volatile ("MSR psplim_ns, %0\n" : : "r" (ProcStackPtrLimit));
 665:Drivers/CMSIS/Include/cmsis_gcc.h **** #endif
 666:Drivers/CMSIS/Include/cmsis_gcc.h **** }
 667:Drivers/CMSIS/Include/cmsis_gcc.h **** #endif
 668:Drivers/CMSIS/Include/cmsis_gcc.h **** 
 669:Drivers/CMSIS/Include/cmsis_gcc.h **** 
 670:Drivers/CMSIS/Include/cmsis_gcc.h **** /**
 671:Drivers/CMSIS/Include/cmsis_gcc.h ****   \brief   Get Main Stack Pointer Limit
 672:Drivers/CMSIS/Include/cmsis_gcc.h ****   Devices without ARMv8-M Main Extensions (i.e. Cortex-M23) lack the non-secure
 673:Drivers/CMSIS/Include/cmsis_gcc.h ****   Stack Pointer Limit register hence zero is returned always in non-secure
 674:Drivers/CMSIS/Include/cmsis_gcc.h ****   mode.
 675:Drivers/CMSIS/Include/cmsis_gcc.h **** 
 676:Drivers/CMSIS/Include/cmsis_gcc.h ****   \details Returns the current value of the Main Stack Pointer Limit (MSPLIM).
 677:Drivers/CMSIS/Include/cmsis_gcc.h ****   \return               MSPLIM Register value
 678:Drivers/CMSIS/Include/cmsis_gcc.h ****  */
 679:Drivers/CMSIS/Include/cmsis_gcc.h **** __STATIC_FORCEINLINE uint32_t __get_MSPLIM(void)
 680:Drivers/CMSIS/Include/cmsis_gcc.h **** {
 681:Drivers/CMSIS/Include/cmsis_gcc.h **** #if (!(defined (__ARM_ARCH_8M_MAIN__ ) && (__ARM_ARCH_8M_MAIN__ == 1)) && \
 682:Drivers/CMSIS/Include/cmsis_gcc.h ****     (!defined (__ARM_FEATURE_CMSE) || (__ARM_FEATURE_CMSE < 3)))
 683:Drivers/CMSIS/Include/cmsis_gcc.h ****   // without main extensions, the non-secure MSPLIM is RAZ/WI
 684:Drivers/CMSIS/Include/cmsis_gcc.h ****   return 0U;
 685:Drivers/CMSIS/Include/cmsis_gcc.h **** #else
 686:Drivers/CMSIS/Include/cmsis_gcc.h ****   uint32_t result;
 687:Drivers/CMSIS/Include/cmsis_gcc.h ****   __ASM volatile ("MRS %0, msplim" : "=r" (result) );
 688:Drivers/CMSIS/Include/cmsis_gcc.h ****   return result;
 689:Drivers/CMSIS/Include/cmsis_gcc.h **** #endif
 690:Drivers/CMSIS/Include/cmsis_gcc.h **** }
 691:Drivers/CMSIS/Include/cmsis_gcc.h **** 
 692:Drivers/CMSIS/Include/cmsis_gcc.h **** 
 693:Drivers/CMSIS/Include/cmsis_gcc.h **** #if (defined (__ARM_FEATURE_CMSE  ) && (__ARM_FEATURE_CMSE   == 3))
 694:Drivers/CMSIS/Include/cmsis_gcc.h **** /**
 695:Drivers/CMSIS/Include/cmsis_gcc.h ****   \brief   Get Main Stack Pointer Limit (non-secure)
 696:Drivers/CMSIS/Include/cmsis_gcc.h ****   Devices without ARMv8-M Main Extensions (i.e. Cortex-M23) lack the non-secure
 697:Drivers/CMSIS/Include/cmsis_gcc.h ****   Stack Pointer Limit register hence zero is returned always.
 698:Drivers/CMSIS/Include/cmsis_gcc.h **** 
ARM GAS  /tmp/ccCiGuAf.s 			page 45


 699:Drivers/CMSIS/Include/cmsis_gcc.h ****   \details Returns the current value of the non-secure Main Stack Pointer Limit(MSPLIM) when in sec
 700:Drivers/CMSIS/Include/cmsis_gcc.h ****   \return               MSPLIM Register value
 701:Drivers/CMSIS/Include/cmsis_gcc.h ****  */
 702:Drivers/CMSIS/Include/cmsis_gcc.h **** __STATIC_FORCEINLINE uint32_t __TZ_get_MSPLIM_NS(void)
 703:Drivers/CMSIS/Include/cmsis_gcc.h **** {
 704:Drivers/CMSIS/Include/cmsis_gcc.h **** #if (!(defined (__ARM_ARCH_8M_MAIN__ ) && (__ARM_ARCH_8M_MAIN__ == 1)))
 705:Drivers/CMSIS/Include/cmsis_gcc.h ****   // without main extensions, the non-secure MSPLIM is RAZ/WI
 706:Drivers/CMSIS/Include/cmsis_gcc.h ****   return 0U;
 707:Drivers/CMSIS/Include/cmsis_gcc.h **** #else
 708:Drivers/CMSIS/Include/cmsis_gcc.h ****   uint32_t result;
 709:Drivers/CMSIS/Include/cmsis_gcc.h ****   __ASM volatile ("MRS %0, msplim_ns" : "=r" (result) );
 710:Drivers/CMSIS/Include/cmsis_gcc.h ****   return result;
 711:Drivers/CMSIS/Include/cmsis_gcc.h **** #endif
 712:Drivers/CMSIS/Include/cmsis_gcc.h **** }
 713:Drivers/CMSIS/Include/cmsis_gcc.h **** #endif
 714:Drivers/CMSIS/Include/cmsis_gcc.h **** 
 715:Drivers/CMSIS/Include/cmsis_gcc.h **** 
 716:Drivers/CMSIS/Include/cmsis_gcc.h **** /**
 717:Drivers/CMSIS/Include/cmsis_gcc.h ****   \brief   Set Main Stack Pointer Limit
 718:Drivers/CMSIS/Include/cmsis_gcc.h ****   Devices without ARMv8-M Main Extensions (i.e. Cortex-M23) lack the non-secure
 719:Drivers/CMSIS/Include/cmsis_gcc.h ****   Stack Pointer Limit register hence the write is silently ignored in non-secure
 720:Drivers/CMSIS/Include/cmsis_gcc.h ****   mode.
 721:Drivers/CMSIS/Include/cmsis_gcc.h **** 
 722:Drivers/CMSIS/Include/cmsis_gcc.h ****   \details Assigns the given value to the Main Stack Pointer Limit (MSPLIM).
 723:Drivers/CMSIS/Include/cmsis_gcc.h ****   \param [in]    MainStackPtrLimit  Main Stack Pointer Limit value to set
 724:Drivers/CMSIS/Include/cmsis_gcc.h ****  */
 725:Drivers/CMSIS/Include/cmsis_gcc.h **** __STATIC_FORCEINLINE void __set_MSPLIM(uint32_t MainStackPtrLimit)
 726:Drivers/CMSIS/Include/cmsis_gcc.h **** {
 727:Drivers/CMSIS/Include/cmsis_gcc.h **** #if (!(defined (__ARM_ARCH_8M_MAIN__ ) && (__ARM_ARCH_8M_MAIN__ == 1)) && \
 728:Drivers/CMSIS/Include/cmsis_gcc.h ****     (!defined (__ARM_FEATURE_CMSE) || (__ARM_FEATURE_CMSE < 3)))
 729:Drivers/CMSIS/Include/cmsis_gcc.h ****   // without main extensions, the non-secure MSPLIM is RAZ/WI
 730:Drivers/CMSIS/Include/cmsis_gcc.h ****   (void)MainStackPtrLimit;
 731:Drivers/CMSIS/Include/cmsis_gcc.h **** #else
 732:Drivers/CMSIS/Include/cmsis_gcc.h ****   __ASM volatile ("MSR msplim, %0" : : "r" (MainStackPtrLimit));
 733:Drivers/CMSIS/Include/cmsis_gcc.h **** #endif
 734:Drivers/CMSIS/Include/cmsis_gcc.h **** }
 735:Drivers/CMSIS/Include/cmsis_gcc.h **** 
 736:Drivers/CMSIS/Include/cmsis_gcc.h **** 
 737:Drivers/CMSIS/Include/cmsis_gcc.h **** #if (defined (__ARM_FEATURE_CMSE  ) && (__ARM_FEATURE_CMSE   == 3))
 738:Drivers/CMSIS/Include/cmsis_gcc.h **** /**
 739:Drivers/CMSIS/Include/cmsis_gcc.h ****   \brief   Set Main Stack Pointer Limit (non-secure)
 740:Drivers/CMSIS/Include/cmsis_gcc.h ****   Devices without ARMv8-M Main Extensions (i.e. Cortex-M23) lack the non-secure
 741:Drivers/CMSIS/Include/cmsis_gcc.h ****   Stack Pointer Limit register hence the write is silently ignored.
 742:Drivers/CMSIS/Include/cmsis_gcc.h **** 
 743:Drivers/CMSIS/Include/cmsis_gcc.h ****   \details Assigns the given value to the non-secure Main Stack Pointer Limit (MSPLIM) when in secu
 744:Drivers/CMSIS/Include/cmsis_gcc.h ****   \param [in]    MainStackPtrLimit  Main Stack Pointer value to set
 745:Drivers/CMSIS/Include/cmsis_gcc.h ****  */
 746:Drivers/CMSIS/Include/cmsis_gcc.h **** __STATIC_FORCEINLINE void __TZ_set_MSPLIM_NS(uint32_t MainStackPtrLimit)
 747:Drivers/CMSIS/Include/cmsis_gcc.h **** {
 748:Drivers/CMSIS/Include/cmsis_gcc.h **** #if (!(defined (__ARM_ARCH_8M_MAIN__ ) && (__ARM_ARCH_8M_MAIN__ == 1)))
 749:Drivers/CMSIS/Include/cmsis_gcc.h ****   // without main extensions, the non-secure MSPLIM is RAZ/WI
 750:Drivers/CMSIS/Include/cmsis_gcc.h ****   (void)MainStackPtrLimit;
 751:Drivers/CMSIS/Include/cmsis_gcc.h **** #else
 752:Drivers/CMSIS/Include/cmsis_gcc.h ****   __ASM volatile ("MSR msplim_ns, %0" : : "r" (MainStackPtrLimit));
 753:Drivers/CMSIS/Include/cmsis_gcc.h **** #endif
 754:Drivers/CMSIS/Include/cmsis_gcc.h **** }
 755:Drivers/CMSIS/Include/cmsis_gcc.h **** #endif
ARM GAS  /tmp/ccCiGuAf.s 			page 46


 756:Drivers/CMSIS/Include/cmsis_gcc.h **** 
 757:Drivers/CMSIS/Include/cmsis_gcc.h **** #endif /* ((defined (__ARM_ARCH_8M_MAIN__ ) && (__ARM_ARCH_8M_MAIN__ == 1)) || \
 758:Drivers/CMSIS/Include/cmsis_gcc.h ****            (defined (__ARM_ARCH_8M_BASE__ ) && (__ARM_ARCH_8M_BASE__ == 1))    ) */
 759:Drivers/CMSIS/Include/cmsis_gcc.h **** 
 760:Drivers/CMSIS/Include/cmsis_gcc.h **** 
 761:Drivers/CMSIS/Include/cmsis_gcc.h **** /**
 762:Drivers/CMSIS/Include/cmsis_gcc.h ****   \brief   Get FPSCR
 763:Drivers/CMSIS/Include/cmsis_gcc.h ****   \details Returns the current value of the Floating Point Status/Control register.
 764:Drivers/CMSIS/Include/cmsis_gcc.h ****   \return               Floating Point Status/Control register value
 765:Drivers/CMSIS/Include/cmsis_gcc.h ****  */
 766:Drivers/CMSIS/Include/cmsis_gcc.h **** __STATIC_FORCEINLINE uint32_t __get_FPSCR(void)
 767:Drivers/CMSIS/Include/cmsis_gcc.h **** {
 768:Drivers/CMSIS/Include/cmsis_gcc.h **** #if ((defined (__FPU_PRESENT) && (__FPU_PRESENT == 1U)) && \
 769:Drivers/CMSIS/Include/cmsis_gcc.h ****      (defined (__FPU_USED   ) && (__FPU_USED    == 1U))     )
 770:Drivers/CMSIS/Include/cmsis_gcc.h **** #if __has_builtin(__builtin_arm_get_fpscr) 
 771:Drivers/CMSIS/Include/cmsis_gcc.h **** // Re-enable using built-in when GCC has been fixed
 772:Drivers/CMSIS/Include/cmsis_gcc.h **** // || (__GNUC__ > 7) || (__GNUC__ == 7 && __GNUC_MINOR__ >= 2)
 773:Drivers/CMSIS/Include/cmsis_gcc.h ****   /* see https://gcc.gnu.org/ml/gcc-patches/2017-04/msg00443.html */
 774:Drivers/CMSIS/Include/cmsis_gcc.h ****   return __builtin_arm_get_fpscr();
 775:Drivers/CMSIS/Include/cmsis_gcc.h **** #else
 776:Drivers/CMSIS/Include/cmsis_gcc.h ****   uint32_t result;
 777:Drivers/CMSIS/Include/cmsis_gcc.h **** 
 778:Drivers/CMSIS/Include/cmsis_gcc.h ****   __ASM volatile ("VMRS %0, fpscr" : "=r" (result) );
 779:Drivers/CMSIS/Include/cmsis_gcc.h ****   return(result);
 780:Drivers/CMSIS/Include/cmsis_gcc.h **** #endif
 781:Drivers/CMSIS/Include/cmsis_gcc.h **** #else
 782:Drivers/CMSIS/Include/cmsis_gcc.h ****   return(0U);
 783:Drivers/CMSIS/Include/cmsis_gcc.h **** #endif
 784:Drivers/CMSIS/Include/cmsis_gcc.h **** }
 785:Drivers/CMSIS/Include/cmsis_gcc.h **** 
 786:Drivers/CMSIS/Include/cmsis_gcc.h **** 
 787:Drivers/CMSIS/Include/cmsis_gcc.h **** /**
 788:Drivers/CMSIS/Include/cmsis_gcc.h ****   \brief   Set FPSCR
 789:Drivers/CMSIS/Include/cmsis_gcc.h ****   \details Assigns the given value to the Floating Point Status/Control register.
 790:Drivers/CMSIS/Include/cmsis_gcc.h ****   \param [in]    fpscr  Floating Point Status/Control value to set
 791:Drivers/CMSIS/Include/cmsis_gcc.h ****  */
 792:Drivers/CMSIS/Include/cmsis_gcc.h **** __STATIC_FORCEINLINE void __set_FPSCR(uint32_t fpscr)
 793:Drivers/CMSIS/Include/cmsis_gcc.h **** {
 794:Drivers/CMSIS/Include/cmsis_gcc.h **** #if ((defined (__FPU_PRESENT) && (__FPU_PRESENT == 1U)) && \
 795:Drivers/CMSIS/Include/cmsis_gcc.h ****      (defined (__FPU_USED   ) && (__FPU_USED    == 1U))     )
 796:Drivers/CMSIS/Include/cmsis_gcc.h **** #if __has_builtin(__builtin_arm_set_fpscr)
 797:Drivers/CMSIS/Include/cmsis_gcc.h **** // Re-enable using built-in when GCC has been fixed
 798:Drivers/CMSIS/Include/cmsis_gcc.h **** // || (__GNUC__ > 7) || (__GNUC__ == 7 && __GNUC_MINOR__ >= 2)
 799:Drivers/CMSIS/Include/cmsis_gcc.h ****   /* see https://gcc.gnu.org/ml/gcc-patches/2017-04/msg00443.html */
 800:Drivers/CMSIS/Include/cmsis_gcc.h ****   __builtin_arm_set_fpscr(fpscr);
 801:Drivers/CMSIS/Include/cmsis_gcc.h **** #else
 802:Drivers/CMSIS/Include/cmsis_gcc.h ****   __ASM volatile ("VMSR fpscr, %0" : : "r" (fpscr) : "vfpcc", "memory");
 803:Drivers/CMSIS/Include/cmsis_gcc.h **** #endif
 804:Drivers/CMSIS/Include/cmsis_gcc.h **** #else
 805:Drivers/CMSIS/Include/cmsis_gcc.h ****   (void)fpscr;
 806:Drivers/CMSIS/Include/cmsis_gcc.h **** #endif
 807:Drivers/CMSIS/Include/cmsis_gcc.h **** }
 808:Drivers/CMSIS/Include/cmsis_gcc.h **** 
 809:Drivers/CMSIS/Include/cmsis_gcc.h **** 
 810:Drivers/CMSIS/Include/cmsis_gcc.h **** /*@} end of CMSIS_Core_RegAccFunctions */
 811:Drivers/CMSIS/Include/cmsis_gcc.h **** 
 812:Drivers/CMSIS/Include/cmsis_gcc.h **** 
ARM GAS  /tmp/ccCiGuAf.s 			page 47


 813:Drivers/CMSIS/Include/cmsis_gcc.h **** /* ##########################  Core Instruction Access  ######################### */
 814:Drivers/CMSIS/Include/cmsis_gcc.h **** /** \defgroup CMSIS_Core_InstructionInterface CMSIS Core Instruction Interface
 815:Drivers/CMSIS/Include/cmsis_gcc.h ****   Access to dedicated instructions
 816:Drivers/CMSIS/Include/cmsis_gcc.h ****   @{
 817:Drivers/CMSIS/Include/cmsis_gcc.h **** */
 818:Drivers/CMSIS/Include/cmsis_gcc.h **** 
 819:Drivers/CMSIS/Include/cmsis_gcc.h **** /* Define macros for porting to both thumb1 and thumb2.
 820:Drivers/CMSIS/Include/cmsis_gcc.h ****  * For thumb1, use low register (r0-r7), specified by constraint "l"
 821:Drivers/CMSIS/Include/cmsis_gcc.h ****  * Otherwise, use general registers, specified by constraint "r" */
 822:Drivers/CMSIS/Include/cmsis_gcc.h **** #if defined (__thumb__) && !defined (__thumb2__)
 823:Drivers/CMSIS/Include/cmsis_gcc.h **** #define __CMSIS_GCC_OUT_REG(r) "=l" (r)
 824:Drivers/CMSIS/Include/cmsis_gcc.h **** #define __CMSIS_GCC_RW_REG(r) "+l" (r)
 825:Drivers/CMSIS/Include/cmsis_gcc.h **** #define __CMSIS_GCC_USE_REG(r) "l" (r)
 826:Drivers/CMSIS/Include/cmsis_gcc.h **** #else
 827:Drivers/CMSIS/Include/cmsis_gcc.h **** #define __CMSIS_GCC_OUT_REG(r) "=r" (r)
 828:Drivers/CMSIS/Include/cmsis_gcc.h **** #define __CMSIS_GCC_RW_REG(r) "+r" (r)
 829:Drivers/CMSIS/Include/cmsis_gcc.h **** #define __CMSIS_GCC_USE_REG(r) "r" (r)
 830:Drivers/CMSIS/Include/cmsis_gcc.h **** #endif
 831:Drivers/CMSIS/Include/cmsis_gcc.h **** 
 832:Drivers/CMSIS/Include/cmsis_gcc.h **** /**
 833:Drivers/CMSIS/Include/cmsis_gcc.h ****   \brief   No Operation
 834:Drivers/CMSIS/Include/cmsis_gcc.h ****   \details No Operation does nothing. This instruction can be used for code alignment purposes.
 835:Drivers/CMSIS/Include/cmsis_gcc.h ****  */
 836:Drivers/CMSIS/Include/cmsis_gcc.h **** #define __NOP()                             __ASM volatile ("nop")
 837:Drivers/CMSIS/Include/cmsis_gcc.h **** 
 838:Drivers/CMSIS/Include/cmsis_gcc.h **** /**
 839:Drivers/CMSIS/Include/cmsis_gcc.h ****   \brief   Wait For Interrupt
 840:Drivers/CMSIS/Include/cmsis_gcc.h ****   \details Wait For Interrupt is a hint instruction that suspends execution until one of a number o
 841:Drivers/CMSIS/Include/cmsis_gcc.h ****  */
 842:Drivers/CMSIS/Include/cmsis_gcc.h **** #define __WFI()                             __ASM volatile ("wfi")
 843:Drivers/CMSIS/Include/cmsis_gcc.h **** 
 844:Drivers/CMSIS/Include/cmsis_gcc.h **** 
 845:Drivers/CMSIS/Include/cmsis_gcc.h **** /**
 846:Drivers/CMSIS/Include/cmsis_gcc.h ****   \brief   Wait For Event
 847:Drivers/CMSIS/Include/cmsis_gcc.h ****   \details Wait For Event is a hint instruction that permits the processor to enter
 848:Drivers/CMSIS/Include/cmsis_gcc.h ****            a low-power state until one of a number of events occurs.
 849:Drivers/CMSIS/Include/cmsis_gcc.h ****  */
 850:Drivers/CMSIS/Include/cmsis_gcc.h **** #define __WFE()                             __ASM volatile ("wfe")
 851:Drivers/CMSIS/Include/cmsis_gcc.h **** 
 852:Drivers/CMSIS/Include/cmsis_gcc.h **** 
 853:Drivers/CMSIS/Include/cmsis_gcc.h **** /**
 854:Drivers/CMSIS/Include/cmsis_gcc.h ****   \brief   Send Event
 855:Drivers/CMSIS/Include/cmsis_gcc.h ****   \details Send Event is a hint instruction. It causes an event to be signaled to the CPU.
 856:Drivers/CMSIS/Include/cmsis_gcc.h ****  */
 857:Drivers/CMSIS/Include/cmsis_gcc.h **** #define __SEV()                             __ASM volatile ("sev")
 858:Drivers/CMSIS/Include/cmsis_gcc.h **** 
 859:Drivers/CMSIS/Include/cmsis_gcc.h **** 
 860:Drivers/CMSIS/Include/cmsis_gcc.h **** /**
 861:Drivers/CMSIS/Include/cmsis_gcc.h ****   \brief   Instruction Synchronization Barrier
 862:Drivers/CMSIS/Include/cmsis_gcc.h ****   \details Instruction Synchronization Barrier flushes the pipeline in the processor,
 863:Drivers/CMSIS/Include/cmsis_gcc.h ****            so that all instructions following the ISB are fetched from cache or memory,
 864:Drivers/CMSIS/Include/cmsis_gcc.h ****            after the instruction has been completed.
 865:Drivers/CMSIS/Include/cmsis_gcc.h ****  */
 866:Drivers/CMSIS/Include/cmsis_gcc.h **** __STATIC_FORCEINLINE void __ISB(void)
 867:Drivers/CMSIS/Include/cmsis_gcc.h **** {
 868:Drivers/CMSIS/Include/cmsis_gcc.h ****   __ASM volatile ("isb 0xF":::"memory");
 1139              		.loc 2 868 3
ARM GAS  /tmp/ccCiGuAf.s 			page 48


 1140              		.syntax unified
 1141              	@ 868 "Drivers/CMSIS/Include/cmsis_gcc.h" 1
 1142 0036 BFF36F8F 		isb 0xF
 1143              	@ 0 "" 2
 869:Drivers/CMSIS/Include/cmsis_gcc.h **** }
 1144              		.loc 2 869 1
 1145              		.thumb
 1146              		.syntax unified
 1147 003a 00BF     		nop
 1148              	.LBE13:
 1149              	.LBE12:
 665:Drivers/STM32F7xx_HAL_Driver/Src/stm32f7xx_hal_flash.c ****   /* Barrier to ensure programming is performed in 2 steps, in right order
 666:Drivers/STM32F7xx_HAL_Driver/Src/stm32f7xx_hal_flash.c ****     (independently of compiler optimization behavior) */
 667:Drivers/STM32F7xx_HAL_Driver/Src/stm32f7xx_hal_flash.c ****   __ISB();
 668:Drivers/STM32F7xx_HAL_Driver/Src/stm32f7xx_hal_flash.c **** 
 669:Drivers/STM32F7xx_HAL_Driver/Src/stm32f7xx_hal_flash.c ****   /* Program second word */
 670:Drivers/STM32F7xx_HAL_Driver/Src/stm32f7xx_hal_flash.c ****   *(__IO uint32_t*)(Address+4) = (uint32_t)(Data >> 32);
 1150              		.loc 1 670 50
 1151 003c D7E90001 		ldrd	r0, [r7]
 1152 0040 4FF00002 		mov	r2, #0
 1153 0044 4FF00003 		mov	r3, #0
 1154 0048 0A00     		movs	r2, r1
 1155 004a 0023     		movs	r3, #0
 1156              		.loc 1 670 28
 1157 004c F968     		ldr	r1, [r7, #12]
 1158 004e 0431     		adds	r1, r1, #4
 1159              		.loc 1 670 34
 1160 0050 1346     		mov	r3, r2
 1161              		.loc 1 670 32
 1162 0052 0B60     		str	r3, [r1]
 1163              	.LBB14:
 1164              	.LBB15:
 870:Drivers/CMSIS/Include/cmsis_gcc.h **** 
 871:Drivers/CMSIS/Include/cmsis_gcc.h **** 
 872:Drivers/CMSIS/Include/cmsis_gcc.h **** /**
 873:Drivers/CMSIS/Include/cmsis_gcc.h ****   \brief   Data Synchronization Barrier
 874:Drivers/CMSIS/Include/cmsis_gcc.h ****   \details Acts as a special kind of Data Memory Barrier.
 875:Drivers/CMSIS/Include/cmsis_gcc.h ****            It completes when all explicit memory accesses before this instruction complete.
 876:Drivers/CMSIS/Include/cmsis_gcc.h ****  */
 877:Drivers/CMSIS/Include/cmsis_gcc.h **** __STATIC_FORCEINLINE void __DSB(void)
 878:Drivers/CMSIS/Include/cmsis_gcc.h **** {
 879:Drivers/CMSIS/Include/cmsis_gcc.h ****   __ASM volatile ("dsb 0xF":::"memory");
 1165              		.loc 2 879 3
 1166              		.syntax unified
 1167              	@ 879 "Drivers/CMSIS/Include/cmsis_gcc.h" 1
 1168 0054 BFF34F8F 		dsb 0xF
 1169              	@ 0 "" 2
 880:Drivers/CMSIS/Include/cmsis_gcc.h **** }
 1170              		.loc 2 880 1
 1171              		.thumb
 1172              		.syntax unified
 1173 0058 00BF     		nop
 1174              	.LBE15:
 1175              	.LBE14:
 671:Drivers/STM32F7xx_HAL_Driver/Src/stm32f7xx_hal_flash.c **** 
 672:Drivers/STM32F7xx_HAL_Driver/Src/stm32f7xx_hal_flash.c ****   /* Data synchronous Barrier (DSB) Just after the write operation
 673:Drivers/STM32F7xx_HAL_Driver/Src/stm32f7xx_hal_flash.c ****      This will force the CPU to respect the sequence of instruction (no optimization).*/
ARM GAS  /tmp/ccCiGuAf.s 			page 49


 674:Drivers/STM32F7xx_HAL_Driver/Src/stm32f7xx_hal_flash.c ****   __DSB();
 675:Drivers/STM32F7xx_HAL_Driver/Src/stm32f7xx_hal_flash.c **** }
 1176              		.loc 1 675 1
 1177 005a 00BF     		nop
 1178 005c 1437     		adds	r7, r7, #20
 1179              	.LCFI59:
 1180              		.cfi_def_cfa_offset 4
 1181 005e BD46     		mov	sp, r7
 1182              	.LCFI60:
 1183              		.cfi_def_cfa_register 13
 1184              		@ sp needed
 1185 0060 5DF8047B 		ldr	r7, [sp], #4
 1186              	.LCFI61:
 1187              		.cfi_restore 7
 1188              		.cfi_def_cfa_offset 0
 1189 0064 7047     		bx	lr
 1190              	.L89:
 1191 0066 00BF     		.align	2
 1192              	.L88:
 1193 0068 003C0240 		.word	1073888256
 1194              		.cfi_endproc
 1195              	.LFE153:
 1197              		.section	.text.FLASH_Program_Word,"ax",%progbits
 1198              		.align	1
 1199              		.syntax unified
 1200              		.thumb
 1201              		.thumb_func
 1202              		.fpu fpv5-d16
 1204              	FLASH_Program_Word:
 1205              	.LFB154:
 676:Drivers/STM32F7xx_HAL_Driver/Src/stm32f7xx_hal_flash.c **** 
 677:Drivers/STM32F7xx_HAL_Driver/Src/stm32f7xx_hal_flash.c **** 
 678:Drivers/STM32F7xx_HAL_Driver/Src/stm32f7xx_hal_flash.c **** /**
 679:Drivers/STM32F7xx_HAL_Driver/Src/stm32f7xx_hal_flash.c ****   * @brief  Program word (32-bit) at a specified address.
 680:Drivers/STM32F7xx_HAL_Driver/Src/stm32f7xx_hal_flash.c ****   * @note   This function must be used when the device voltage range is from
 681:Drivers/STM32F7xx_HAL_Driver/Src/stm32f7xx_hal_flash.c ****   *         2.7V to 3.3V.
 682:Drivers/STM32F7xx_HAL_Driver/Src/stm32f7xx_hal_flash.c ****   *
 683:Drivers/STM32F7xx_HAL_Driver/Src/stm32f7xx_hal_flash.c ****   * @note   If an erase and a program operations are requested simultaneously,    
 684:Drivers/STM32F7xx_HAL_Driver/Src/stm32f7xx_hal_flash.c ****   *         the erase operation is performed before the program one.
 685:Drivers/STM32F7xx_HAL_Driver/Src/stm32f7xx_hal_flash.c ****   *  
 686:Drivers/STM32F7xx_HAL_Driver/Src/stm32f7xx_hal_flash.c ****   * @param  Address specifies the address to be programmed.
 687:Drivers/STM32F7xx_HAL_Driver/Src/stm32f7xx_hal_flash.c ****   * @param  Data specifies the data to be programmed.
 688:Drivers/STM32F7xx_HAL_Driver/Src/stm32f7xx_hal_flash.c ****   * @retval None
 689:Drivers/STM32F7xx_HAL_Driver/Src/stm32f7xx_hal_flash.c ****   */
 690:Drivers/STM32F7xx_HAL_Driver/Src/stm32f7xx_hal_flash.c **** static void FLASH_Program_Word(uint32_t Address, uint32_t Data)
 691:Drivers/STM32F7xx_HAL_Driver/Src/stm32f7xx_hal_flash.c **** {
 1206              		.loc 1 691 1
 1207              		.cfi_startproc
 1208              		@ args = 0, pretend = 0, frame = 8
 1209              		@ frame_needed = 1, uses_anonymous_args = 0
 1210              		@ link register save eliminated.
 1211 0000 80B4     		push	{r7}
 1212              	.LCFI62:
 1213              		.cfi_def_cfa_offset 4
 1214              		.cfi_offset 7, -4
 1215 0002 83B0     		sub	sp, sp, #12
 1216              	.LCFI63:
ARM GAS  /tmp/ccCiGuAf.s 			page 50


 1217              		.cfi_def_cfa_offset 16
 1218 0004 00AF     		add	r7, sp, #0
 1219              	.LCFI64:
 1220              		.cfi_def_cfa_register 7
 1221 0006 7860     		str	r0, [r7, #4]
 1222 0008 3960     		str	r1, [r7]
 692:Drivers/STM32F7xx_HAL_Driver/Src/stm32f7xx_hal_flash.c ****   /* Check the parameters */
 693:Drivers/STM32F7xx_HAL_Driver/Src/stm32f7xx_hal_flash.c ****   assert_param(IS_FLASH_ADDRESS(Address));
 694:Drivers/STM32F7xx_HAL_Driver/Src/stm32f7xx_hal_flash.c ****   
 695:Drivers/STM32F7xx_HAL_Driver/Src/stm32f7xx_hal_flash.c ****   /* If the previous operation is completed, proceed to program the new data */
 696:Drivers/STM32F7xx_HAL_Driver/Src/stm32f7xx_hal_flash.c ****   FLASH->CR &= CR_PSIZE_MASK;
 1223              		.loc 1 696 13
 1224 000a 0F4B     		ldr	r3, .L91
 1225 000c 1B69     		ldr	r3, [r3, #16]
 1226 000e 0E4A     		ldr	r2, .L91
 1227 0010 23F44073 		bic	r3, r3, #768
 1228 0014 1361     		str	r3, [r2, #16]
 697:Drivers/STM32F7xx_HAL_Driver/Src/stm32f7xx_hal_flash.c ****   FLASH->CR |= FLASH_PSIZE_WORD;
 1229              		.loc 1 697 13
 1230 0016 0C4B     		ldr	r3, .L91
 1231 0018 1B69     		ldr	r3, [r3, #16]
 1232 001a 0B4A     		ldr	r2, .L91
 1233 001c 43F40073 		orr	r3, r3, #512
 1234 0020 1361     		str	r3, [r2, #16]
 698:Drivers/STM32F7xx_HAL_Driver/Src/stm32f7xx_hal_flash.c ****   FLASH->CR |= FLASH_CR_PG;
 1235              		.loc 1 698 13
 1236 0022 094B     		ldr	r3, .L91
 1237 0024 1B69     		ldr	r3, [r3, #16]
 1238 0026 084A     		ldr	r2, .L91
 1239 0028 43F00103 		orr	r3, r3, #1
 1240 002c 1361     		str	r3, [r2, #16]
 699:Drivers/STM32F7xx_HAL_Driver/Src/stm32f7xx_hal_flash.c **** 
 700:Drivers/STM32F7xx_HAL_Driver/Src/stm32f7xx_hal_flash.c ****   *(__IO uint32_t*)Address = Data;
 1241              		.loc 1 700 4
 1242 002e 7B68     		ldr	r3, [r7, #4]
 1243              		.loc 1 700 28
 1244 0030 3A68     		ldr	r2, [r7]
 1245 0032 1A60     		str	r2, [r3]
 1246              	.LBB16:
 1247              	.LBB17:
 879:Drivers/CMSIS/Include/cmsis_gcc.h **** }
 1248              		.loc 2 879 3
 1249              		.syntax unified
 1250              	@ 879 "Drivers/CMSIS/Include/cmsis_gcc.h" 1
 1251 0034 BFF34F8F 		dsb 0xF
 1252              	@ 0 "" 2
 1253              		.loc 2 880 1
 1254              		.thumb
 1255              		.syntax unified
 1256 0038 00BF     		nop
 1257              	.LBE17:
 1258              	.LBE16:
 701:Drivers/STM32F7xx_HAL_Driver/Src/stm32f7xx_hal_flash.c ****   
 702:Drivers/STM32F7xx_HAL_Driver/Src/stm32f7xx_hal_flash.c ****   /* Data synchronous Barrier (DSB) Just after the write operation
 703:Drivers/STM32F7xx_HAL_Driver/Src/stm32f7xx_hal_flash.c ****      This will force the CPU to respect the sequence of instruction (no optimization).*/
 704:Drivers/STM32F7xx_HAL_Driver/Src/stm32f7xx_hal_flash.c ****   __DSB();
 705:Drivers/STM32F7xx_HAL_Driver/Src/stm32f7xx_hal_flash.c **** }
ARM GAS  /tmp/ccCiGuAf.s 			page 51


 1259              		.loc 1 705 1
 1260 003a 00BF     		nop
 1261 003c 0C37     		adds	r7, r7, #12
 1262              	.LCFI65:
 1263              		.cfi_def_cfa_offset 4
 1264 003e BD46     		mov	sp, r7
 1265              	.LCFI66:
 1266              		.cfi_def_cfa_register 13
 1267              		@ sp needed
 1268 0040 5DF8047B 		ldr	r7, [sp], #4
 1269              	.LCFI67:
 1270              		.cfi_restore 7
 1271              		.cfi_def_cfa_offset 0
 1272 0044 7047     		bx	lr
 1273              	.L92:
 1274 0046 00BF     		.align	2
 1275              	.L91:
 1276 0048 003C0240 		.word	1073888256
 1277              		.cfi_endproc
 1278              	.LFE154:
 1280              		.section	.text.FLASH_Program_HalfWord,"ax",%progbits
 1281              		.align	1
 1282              		.syntax unified
 1283              		.thumb
 1284              		.thumb_func
 1285              		.fpu fpv5-d16
 1287              	FLASH_Program_HalfWord:
 1288              	.LFB155:
 706:Drivers/STM32F7xx_HAL_Driver/Src/stm32f7xx_hal_flash.c **** 
 707:Drivers/STM32F7xx_HAL_Driver/Src/stm32f7xx_hal_flash.c **** /**
 708:Drivers/STM32F7xx_HAL_Driver/Src/stm32f7xx_hal_flash.c ****   * @brief  Program a half-word (16-bit) at a specified address.
 709:Drivers/STM32F7xx_HAL_Driver/Src/stm32f7xx_hal_flash.c ****   * @note   This function must be used when the device voltage range is from
 710:Drivers/STM32F7xx_HAL_Driver/Src/stm32f7xx_hal_flash.c ****   *         2.1V to 3.6V.
 711:Drivers/STM32F7xx_HAL_Driver/Src/stm32f7xx_hal_flash.c ****   *
 712:Drivers/STM32F7xx_HAL_Driver/Src/stm32f7xx_hal_flash.c ****   * @note   If an erase and a program operations are requested simultaneously,    
 713:Drivers/STM32F7xx_HAL_Driver/Src/stm32f7xx_hal_flash.c ****   *         the erase operation is performed before the program one.
 714:Drivers/STM32F7xx_HAL_Driver/Src/stm32f7xx_hal_flash.c ****   *  
 715:Drivers/STM32F7xx_HAL_Driver/Src/stm32f7xx_hal_flash.c ****   * @param  Address specifies the address to be programmed.
 716:Drivers/STM32F7xx_HAL_Driver/Src/stm32f7xx_hal_flash.c ****   * @param  Data specifies the data to be programmed.
 717:Drivers/STM32F7xx_HAL_Driver/Src/stm32f7xx_hal_flash.c ****   * @retval None
 718:Drivers/STM32F7xx_HAL_Driver/Src/stm32f7xx_hal_flash.c ****   */
 719:Drivers/STM32F7xx_HAL_Driver/Src/stm32f7xx_hal_flash.c **** static void FLASH_Program_HalfWord(uint32_t Address, uint16_t Data)
 720:Drivers/STM32F7xx_HAL_Driver/Src/stm32f7xx_hal_flash.c **** {
 1289              		.loc 1 720 1
 1290              		.cfi_startproc
 1291              		@ args = 0, pretend = 0, frame = 8
 1292              		@ frame_needed = 1, uses_anonymous_args = 0
 1293              		@ link register save eliminated.
 1294 0000 80B4     		push	{r7}
 1295              	.LCFI68:
 1296              		.cfi_def_cfa_offset 4
 1297              		.cfi_offset 7, -4
 1298 0002 83B0     		sub	sp, sp, #12
 1299              	.LCFI69:
 1300              		.cfi_def_cfa_offset 16
 1301 0004 00AF     		add	r7, sp, #0
 1302              	.LCFI70:
ARM GAS  /tmp/ccCiGuAf.s 			page 52


 1303              		.cfi_def_cfa_register 7
 1304 0006 7860     		str	r0, [r7, #4]
 1305 0008 0B46     		mov	r3, r1
 1306 000a 7B80     		strh	r3, [r7, #2]	@ movhi
 721:Drivers/STM32F7xx_HAL_Driver/Src/stm32f7xx_hal_flash.c ****   /* Check the parameters */
 722:Drivers/STM32F7xx_HAL_Driver/Src/stm32f7xx_hal_flash.c ****   assert_param(IS_FLASH_ADDRESS(Address));
 723:Drivers/STM32F7xx_HAL_Driver/Src/stm32f7xx_hal_flash.c ****   
 724:Drivers/STM32F7xx_HAL_Driver/Src/stm32f7xx_hal_flash.c ****   /* If the previous operation is completed, proceed to program the new data */
 725:Drivers/STM32F7xx_HAL_Driver/Src/stm32f7xx_hal_flash.c ****   FLASH->CR &= CR_PSIZE_MASK;
 1307              		.loc 1 725 13
 1308 000c 0E4B     		ldr	r3, .L94
 1309 000e 1B69     		ldr	r3, [r3, #16]
 1310 0010 0D4A     		ldr	r2, .L94
 1311 0012 23F44073 		bic	r3, r3, #768
 1312 0016 1361     		str	r3, [r2, #16]
 726:Drivers/STM32F7xx_HAL_Driver/Src/stm32f7xx_hal_flash.c ****   FLASH->CR |= FLASH_PSIZE_HALF_WORD;
 1313              		.loc 1 726 13
 1314 0018 0B4B     		ldr	r3, .L94
 1315 001a 1B69     		ldr	r3, [r3, #16]
 1316 001c 0A4A     		ldr	r2, .L94
 1317 001e 43F48073 		orr	r3, r3, #256
 1318 0022 1361     		str	r3, [r2, #16]
 727:Drivers/STM32F7xx_HAL_Driver/Src/stm32f7xx_hal_flash.c ****   FLASH->CR |= FLASH_CR_PG;
 1319              		.loc 1 727 13
 1320 0024 084B     		ldr	r3, .L94
 1321 0026 1B69     		ldr	r3, [r3, #16]
 1322 0028 074A     		ldr	r2, .L94
 1323 002a 43F00103 		orr	r3, r3, #1
 1324 002e 1361     		str	r3, [r2, #16]
 728:Drivers/STM32F7xx_HAL_Driver/Src/stm32f7xx_hal_flash.c **** 
 729:Drivers/STM32F7xx_HAL_Driver/Src/stm32f7xx_hal_flash.c ****   *(__IO uint16_t*)Address = Data;
 1325              		.loc 1 729 4
 1326 0030 7B68     		ldr	r3, [r7, #4]
 1327              		.loc 1 729 28
 1328 0032 7A88     		ldrh	r2, [r7, #2]	@ movhi
 1329 0034 1A80     		strh	r2, [r3]	@ movhi
 1330              	.LBB18:
 1331              	.LBB19:
 879:Drivers/CMSIS/Include/cmsis_gcc.h **** }
 1332              		.loc 2 879 3
 1333              		.syntax unified
 1334              	@ 879 "Drivers/CMSIS/Include/cmsis_gcc.h" 1
 1335 0036 BFF34F8F 		dsb 0xF
 1336              	@ 0 "" 2
 1337              		.loc 2 880 1
 1338              		.thumb
 1339              		.syntax unified
 1340 003a 00BF     		nop
 1341              	.LBE19:
 1342              	.LBE18:
 730:Drivers/STM32F7xx_HAL_Driver/Src/stm32f7xx_hal_flash.c **** 
 731:Drivers/STM32F7xx_HAL_Driver/Src/stm32f7xx_hal_flash.c ****   /* Data synchronous Barrier (DSB) Just after the write operation
 732:Drivers/STM32F7xx_HAL_Driver/Src/stm32f7xx_hal_flash.c ****      This will force the CPU to respect the sequence of instruction (no optimization).*/
 733:Drivers/STM32F7xx_HAL_Driver/Src/stm32f7xx_hal_flash.c ****   __DSB();
 734:Drivers/STM32F7xx_HAL_Driver/Src/stm32f7xx_hal_flash.c ****   
 735:Drivers/STM32F7xx_HAL_Driver/Src/stm32f7xx_hal_flash.c **** }
 1343              		.loc 1 735 1
ARM GAS  /tmp/ccCiGuAf.s 			page 53


 1344 003c 00BF     		nop
 1345 003e 0C37     		adds	r7, r7, #12
 1346              	.LCFI71:
 1347              		.cfi_def_cfa_offset 4
 1348 0040 BD46     		mov	sp, r7
 1349              	.LCFI72:
 1350              		.cfi_def_cfa_register 13
 1351              		@ sp needed
 1352 0042 5DF8047B 		ldr	r7, [sp], #4
 1353              	.LCFI73:
 1354              		.cfi_restore 7
 1355              		.cfi_def_cfa_offset 0
 1356 0046 7047     		bx	lr
 1357              	.L95:
 1358              		.align	2
 1359              	.L94:
 1360 0048 003C0240 		.word	1073888256
 1361              		.cfi_endproc
 1362              	.LFE155:
 1364              		.section	.text.FLASH_Program_Byte,"ax",%progbits
 1365              		.align	1
 1366              		.syntax unified
 1367              		.thumb
 1368              		.thumb_func
 1369              		.fpu fpv5-d16
 1371              	FLASH_Program_Byte:
 1372              	.LFB156:
 736:Drivers/STM32F7xx_HAL_Driver/Src/stm32f7xx_hal_flash.c **** 
 737:Drivers/STM32F7xx_HAL_Driver/Src/stm32f7xx_hal_flash.c **** /**
 738:Drivers/STM32F7xx_HAL_Driver/Src/stm32f7xx_hal_flash.c ****   * @brief  Program byte (8-bit) at a specified address.
 739:Drivers/STM32F7xx_HAL_Driver/Src/stm32f7xx_hal_flash.c ****   * @note   This function must be used when the device voltage range is from
 740:Drivers/STM32F7xx_HAL_Driver/Src/stm32f7xx_hal_flash.c ****   *         1.7V to 3.6V.
 741:Drivers/STM32F7xx_HAL_Driver/Src/stm32f7xx_hal_flash.c ****   *
 742:Drivers/STM32F7xx_HAL_Driver/Src/stm32f7xx_hal_flash.c ****   * @note   If an erase and a program operations are requested simultaneously,    
 743:Drivers/STM32F7xx_HAL_Driver/Src/stm32f7xx_hal_flash.c ****   *         the erase operation is performed before the program one.
 744:Drivers/STM32F7xx_HAL_Driver/Src/stm32f7xx_hal_flash.c ****   *  
 745:Drivers/STM32F7xx_HAL_Driver/Src/stm32f7xx_hal_flash.c ****   * @param  Address specifies the address to be programmed.
 746:Drivers/STM32F7xx_HAL_Driver/Src/stm32f7xx_hal_flash.c ****   * @param  Data specifies the data to be programmed.
 747:Drivers/STM32F7xx_HAL_Driver/Src/stm32f7xx_hal_flash.c ****   * @retval None
 748:Drivers/STM32F7xx_HAL_Driver/Src/stm32f7xx_hal_flash.c ****   */
 749:Drivers/STM32F7xx_HAL_Driver/Src/stm32f7xx_hal_flash.c **** static void FLASH_Program_Byte(uint32_t Address, uint8_t Data)
 750:Drivers/STM32F7xx_HAL_Driver/Src/stm32f7xx_hal_flash.c **** {
 1373              		.loc 1 750 1
 1374              		.cfi_startproc
 1375              		@ args = 0, pretend = 0, frame = 8
 1376              		@ frame_needed = 1, uses_anonymous_args = 0
 1377              		@ link register save eliminated.
 1378 0000 80B4     		push	{r7}
 1379              	.LCFI74:
 1380              		.cfi_def_cfa_offset 4
 1381              		.cfi_offset 7, -4
 1382 0002 83B0     		sub	sp, sp, #12
 1383              	.LCFI75:
 1384              		.cfi_def_cfa_offset 16
 1385 0004 00AF     		add	r7, sp, #0
 1386              	.LCFI76:
 1387              		.cfi_def_cfa_register 7
ARM GAS  /tmp/ccCiGuAf.s 			page 54


 1388 0006 7860     		str	r0, [r7, #4]
 1389 0008 0B46     		mov	r3, r1
 1390 000a FB70     		strb	r3, [r7, #3]
 751:Drivers/STM32F7xx_HAL_Driver/Src/stm32f7xx_hal_flash.c ****   /* Check the parameters */
 752:Drivers/STM32F7xx_HAL_Driver/Src/stm32f7xx_hal_flash.c ****   assert_param(IS_FLASH_ADDRESS(Address));
 753:Drivers/STM32F7xx_HAL_Driver/Src/stm32f7xx_hal_flash.c ****   
 754:Drivers/STM32F7xx_HAL_Driver/Src/stm32f7xx_hal_flash.c ****   /* If the previous operation is completed, proceed to program the new data */
 755:Drivers/STM32F7xx_HAL_Driver/Src/stm32f7xx_hal_flash.c ****   FLASH->CR &= CR_PSIZE_MASK;
 1391              		.loc 1 755 13
 1392 000c 0D4B     		ldr	r3, .L97
 1393 000e 1B69     		ldr	r3, [r3, #16]
 1394 0010 0C4A     		ldr	r2, .L97
 1395 0012 23F44073 		bic	r3, r3, #768
 1396 0016 1361     		str	r3, [r2, #16]
 756:Drivers/STM32F7xx_HAL_Driver/Src/stm32f7xx_hal_flash.c ****   FLASH->CR |= FLASH_PSIZE_BYTE;
 1397              		.loc 1 756 13
 1398 0018 0A4B     		ldr	r3, .L97
 1399 001a 0A4A     		ldr	r2, .L97
 1400 001c 1B69     		ldr	r3, [r3, #16]
 1401 001e 1361     		str	r3, [r2, #16]
 757:Drivers/STM32F7xx_HAL_Driver/Src/stm32f7xx_hal_flash.c ****   FLASH->CR |= FLASH_CR_PG;
 1402              		.loc 1 757 13
 1403 0020 084B     		ldr	r3, .L97
 1404 0022 1B69     		ldr	r3, [r3, #16]
 1405 0024 074A     		ldr	r2, .L97
 1406 0026 43F00103 		orr	r3, r3, #1
 1407 002a 1361     		str	r3, [r2, #16]
 758:Drivers/STM32F7xx_HAL_Driver/Src/stm32f7xx_hal_flash.c **** 
 759:Drivers/STM32F7xx_HAL_Driver/Src/stm32f7xx_hal_flash.c ****   *(__IO uint8_t*)Address = Data;
 1408              		.loc 1 759 4
 1409 002c 7B68     		ldr	r3, [r7, #4]
 1410              		.loc 1 759 27
 1411 002e FA78     		ldrb	r2, [r7, #3]
 1412 0030 1A70     		strb	r2, [r3]
 1413              	.LBB20:
 1414              	.LBB21:
 879:Drivers/CMSIS/Include/cmsis_gcc.h **** }
 1415              		.loc 2 879 3
 1416              		.syntax unified
 1417              	@ 879 "Drivers/CMSIS/Include/cmsis_gcc.h" 1
 1418 0032 BFF34F8F 		dsb 0xF
 1419              	@ 0 "" 2
 1420              		.loc 2 880 1
 1421              		.thumb
 1422              		.syntax unified
 1423 0036 00BF     		nop
 1424              	.LBE21:
 1425              	.LBE20:
 760:Drivers/STM32F7xx_HAL_Driver/Src/stm32f7xx_hal_flash.c **** 
 761:Drivers/STM32F7xx_HAL_Driver/Src/stm32f7xx_hal_flash.c ****   /* Data synchronous Barrier (DSB) Just after the write operation
 762:Drivers/STM32F7xx_HAL_Driver/Src/stm32f7xx_hal_flash.c ****      This will force the CPU to respect the sequence of instruction (no optimization).*/
 763:Drivers/STM32F7xx_HAL_Driver/Src/stm32f7xx_hal_flash.c ****   __DSB();
 764:Drivers/STM32F7xx_HAL_Driver/Src/stm32f7xx_hal_flash.c **** }
 1426              		.loc 1 764 1
 1427 0038 00BF     		nop
 1428 003a 0C37     		adds	r7, r7, #12
 1429              	.LCFI77:
ARM GAS  /tmp/ccCiGuAf.s 			page 55


 1430              		.cfi_def_cfa_offset 4
 1431 003c BD46     		mov	sp, r7
 1432              	.LCFI78:
 1433              		.cfi_def_cfa_register 13
 1434              		@ sp needed
 1435 003e 5DF8047B 		ldr	r7, [sp], #4
 1436              	.LCFI79:
 1437              		.cfi_restore 7
 1438              		.cfi_def_cfa_offset 0
 1439 0042 7047     		bx	lr
 1440              	.L98:
 1441              		.align	2
 1442              	.L97:
 1443 0044 003C0240 		.word	1073888256
 1444              		.cfi_endproc
 1445              	.LFE156:
 1447              		.section	.text.FLASH_SetErrorCode,"ax",%progbits
 1448              		.align	1
 1449              		.syntax unified
 1450              		.thumb
 1451              		.thumb_func
 1452              		.fpu fpv5-d16
 1454              	FLASH_SetErrorCode:
 1455              	.LFB157:
 765:Drivers/STM32F7xx_HAL_Driver/Src/stm32f7xx_hal_flash.c **** 
 766:Drivers/STM32F7xx_HAL_Driver/Src/stm32f7xx_hal_flash.c **** /**
 767:Drivers/STM32F7xx_HAL_Driver/Src/stm32f7xx_hal_flash.c ****   * @brief  Set the specific FLASH error flag.
 768:Drivers/STM32F7xx_HAL_Driver/Src/stm32f7xx_hal_flash.c ****   * @retval None
 769:Drivers/STM32F7xx_HAL_Driver/Src/stm32f7xx_hal_flash.c ****   */
 770:Drivers/STM32F7xx_HAL_Driver/Src/stm32f7xx_hal_flash.c **** static void FLASH_SetErrorCode(void)
 771:Drivers/STM32F7xx_HAL_Driver/Src/stm32f7xx_hal_flash.c **** {
 1456              		.loc 1 771 1
 1457              		.cfi_startproc
 1458              		@ args = 0, pretend = 0, frame = 0
 1459              		@ frame_needed = 1, uses_anonymous_args = 0
 1460              		@ link register save eliminated.
 1461 0000 80B4     		push	{r7}
 1462              	.LCFI80:
 1463              		.cfi_def_cfa_offset 4
 1464              		.cfi_offset 7, -4
 1465 0002 00AF     		add	r7, sp, #0
 1466              	.LCFI81:
 1467              		.cfi_def_cfa_register 7
 772:Drivers/STM32F7xx_HAL_Driver/Src/stm32f7xx_hal_flash.c ****   if(__HAL_FLASH_GET_FLAG(FLASH_FLAG_OPERR) != RESET)
 1468              		.loc 1 772 6
 1469 0004 214B     		ldr	r3, .L105
 1470 0006 DB68     		ldr	r3, [r3, #12]
 1471 0008 03F00203 		and	r3, r3, #2
 1472              		.loc 1 772 5
 1473 000c 002B     		cmp	r3, #0
 1474 000e 05D0     		beq	.L100
 773:Drivers/STM32F7xx_HAL_Driver/Src/stm32f7xx_hal_flash.c ****   {
 774:Drivers/STM32F7xx_HAL_Driver/Src/stm32f7xx_hal_flash.c ****     pFlash.ErrorCode |= HAL_FLASH_ERROR_OPERATION;
 1475              		.loc 1 774 22
 1476 0010 1F4B     		ldr	r3, .L105+4
 1477 0012 9B69     		ldr	r3, [r3, #24]
 1478 0014 43F02003 		orr	r3, r3, #32
ARM GAS  /tmp/ccCiGuAf.s 			page 56


 1479 0018 1D4A     		ldr	r2, .L105+4
 1480 001a 9361     		str	r3, [r2, #24]
 1481              	.L100:
 775:Drivers/STM32F7xx_HAL_Driver/Src/stm32f7xx_hal_flash.c ****   }
 776:Drivers/STM32F7xx_HAL_Driver/Src/stm32f7xx_hal_flash.c ****   
 777:Drivers/STM32F7xx_HAL_Driver/Src/stm32f7xx_hal_flash.c ****   if(__HAL_FLASH_GET_FLAG(FLASH_FLAG_WRPERR) != RESET)
 1482              		.loc 1 777 6
 1483 001c 1B4B     		ldr	r3, .L105
 1484 001e DB68     		ldr	r3, [r3, #12]
 1485 0020 03F01003 		and	r3, r3, #16
 1486              		.loc 1 777 5
 1487 0024 002B     		cmp	r3, #0
 1488 0026 05D0     		beq	.L101
 778:Drivers/STM32F7xx_HAL_Driver/Src/stm32f7xx_hal_flash.c ****   {
 779:Drivers/STM32F7xx_HAL_Driver/Src/stm32f7xx_hal_flash.c ****    pFlash.ErrorCode |= HAL_FLASH_ERROR_WRP;
 1489              		.loc 1 779 21
 1490 0028 194B     		ldr	r3, .L105+4
 1491 002a 9B69     		ldr	r3, [r3, #24]
 1492 002c 43F01003 		orr	r3, r3, #16
 1493 0030 174A     		ldr	r2, .L105+4
 1494 0032 9361     		str	r3, [r2, #24]
 1495              	.L101:
 780:Drivers/STM32F7xx_HAL_Driver/Src/stm32f7xx_hal_flash.c ****   }
 781:Drivers/STM32F7xx_HAL_Driver/Src/stm32f7xx_hal_flash.c ****   
 782:Drivers/STM32F7xx_HAL_Driver/Src/stm32f7xx_hal_flash.c ****   if(__HAL_FLASH_GET_FLAG(FLASH_FLAG_PGAERR) != RESET)
 1496              		.loc 1 782 6
 1497 0034 154B     		ldr	r3, .L105
 1498 0036 DB68     		ldr	r3, [r3, #12]
 1499 0038 03F02003 		and	r3, r3, #32
 1500              		.loc 1 782 5
 1501 003c 002B     		cmp	r3, #0
 1502 003e 05D0     		beq	.L102
 783:Drivers/STM32F7xx_HAL_Driver/Src/stm32f7xx_hal_flash.c ****   {
 784:Drivers/STM32F7xx_HAL_Driver/Src/stm32f7xx_hal_flash.c ****    pFlash.ErrorCode |= HAL_FLASH_ERROR_PGA;
 1503              		.loc 1 784 21
 1504 0040 134B     		ldr	r3, .L105+4
 1505 0042 9B69     		ldr	r3, [r3, #24]
 1506 0044 43F00803 		orr	r3, r3, #8
 1507 0048 114A     		ldr	r2, .L105+4
 1508 004a 9361     		str	r3, [r2, #24]
 1509              	.L102:
 785:Drivers/STM32F7xx_HAL_Driver/Src/stm32f7xx_hal_flash.c ****   }
 786:Drivers/STM32F7xx_HAL_Driver/Src/stm32f7xx_hal_flash.c ****   
 787:Drivers/STM32F7xx_HAL_Driver/Src/stm32f7xx_hal_flash.c ****   if(__HAL_FLASH_GET_FLAG(FLASH_FLAG_PGPERR) != RESET)
 1510              		.loc 1 787 6
 1511 004c 0F4B     		ldr	r3, .L105
 1512 004e DB68     		ldr	r3, [r3, #12]
 1513 0050 03F04003 		and	r3, r3, #64
 1514              		.loc 1 787 5
 1515 0054 002B     		cmp	r3, #0
 1516 0056 05D0     		beq	.L103
 788:Drivers/STM32F7xx_HAL_Driver/Src/stm32f7xx_hal_flash.c ****   {
 789:Drivers/STM32F7xx_HAL_Driver/Src/stm32f7xx_hal_flash.c ****     pFlash.ErrorCode |= HAL_FLASH_ERROR_PGP;
 1517              		.loc 1 789 22
 1518 0058 0D4B     		ldr	r3, .L105+4
 1519 005a 9B69     		ldr	r3, [r3, #24]
 1520 005c 43F00403 		orr	r3, r3, #4
ARM GAS  /tmp/ccCiGuAf.s 			page 57


 1521 0060 0B4A     		ldr	r2, .L105+4
 1522 0062 9361     		str	r3, [r2, #24]
 1523              	.L103:
 790:Drivers/STM32F7xx_HAL_Driver/Src/stm32f7xx_hal_flash.c ****   }
 791:Drivers/STM32F7xx_HAL_Driver/Src/stm32f7xx_hal_flash.c ****   
 792:Drivers/STM32F7xx_HAL_Driver/Src/stm32f7xx_hal_flash.c ****   if(__HAL_FLASH_GET_FLAG(FLASH_FLAG_ERSERR) != RESET)
 1524              		.loc 1 792 6
 1525 0064 094B     		ldr	r3, .L105
 1526 0066 DB68     		ldr	r3, [r3, #12]
 1527 0068 03F08003 		and	r3, r3, #128
 1528              		.loc 1 792 5
 1529 006c 002B     		cmp	r3, #0
 1530 006e 05D0     		beq	.L104
 793:Drivers/STM32F7xx_HAL_Driver/Src/stm32f7xx_hal_flash.c ****   {
 794:Drivers/STM32F7xx_HAL_Driver/Src/stm32f7xx_hal_flash.c ****     pFlash.ErrorCode |= HAL_FLASH_ERROR_ERS;
 1531              		.loc 1 794 22
 1532 0070 074B     		ldr	r3, .L105+4
 1533 0072 9B69     		ldr	r3, [r3, #24]
 1534 0074 43F00203 		orr	r3, r3, #2
 1535 0078 054A     		ldr	r2, .L105+4
 1536 007a 9361     		str	r3, [r2, #24]
 1537              	.L104:
 795:Drivers/STM32F7xx_HAL_Driver/Src/stm32f7xx_hal_flash.c ****   }
 796:Drivers/STM32F7xx_HAL_Driver/Src/stm32f7xx_hal_flash.c ****   
 797:Drivers/STM32F7xx_HAL_Driver/Src/stm32f7xx_hal_flash.c **** #if defined (FLASH_OPTCR2_PCROP)
 798:Drivers/STM32F7xx_HAL_Driver/Src/stm32f7xx_hal_flash.c ****   if(__HAL_FLASH_GET_FLAG(FLASH_FLAG_RDERR) != RESET)
 799:Drivers/STM32F7xx_HAL_Driver/Src/stm32f7xx_hal_flash.c ****   { 
 800:Drivers/STM32F7xx_HAL_Driver/Src/stm32f7xx_hal_flash.c ****    pFlash.ErrorCode |= HAL_FLASH_ERROR_RD;
 801:Drivers/STM32F7xx_HAL_Driver/Src/stm32f7xx_hal_flash.c ****   }  
 802:Drivers/STM32F7xx_HAL_Driver/Src/stm32f7xx_hal_flash.c **** #endif /* FLASH_OPTCR2_PCROP */
 803:Drivers/STM32F7xx_HAL_Driver/Src/stm32f7xx_hal_flash.c ****   
 804:Drivers/STM32F7xx_HAL_Driver/Src/stm32f7xx_hal_flash.c ****   /* Clear error programming flags */
 805:Drivers/STM32F7xx_HAL_Driver/Src/stm32f7xx_hal_flash.c ****   __HAL_FLASH_CLEAR_FLAG(FLASH_FLAG_ALL_ERRORS);
 1538              		.loc 1 805 3
 1539 007c 034B     		ldr	r3, .L105
 1540 007e F222     		movs	r2, #242
 1541 0080 DA60     		str	r2, [r3, #12]
 806:Drivers/STM32F7xx_HAL_Driver/Src/stm32f7xx_hal_flash.c **** }
 1542              		.loc 1 806 1
 1543 0082 00BF     		nop
 1544 0084 BD46     		mov	sp, r7
 1545              	.LCFI82:
 1546              		.cfi_def_cfa_register 13
 1547              		@ sp needed
 1548 0086 5DF8047B 		ldr	r7, [sp], #4
 1549              	.LCFI83:
 1550              		.cfi_restore 7
 1551              		.cfi_def_cfa_offset 0
 1552 008a 7047     		bx	lr
 1553              	.L106:
 1554              		.align	2
 1555              	.L105:
 1556 008c 003C0240 		.word	1073888256
 1557 0090 00000000 		.word	pFlash
 1558              		.cfi_endproc
 1559              	.LFE157:
 1561              		.text
ARM GAS  /tmp/ccCiGuAf.s 			page 58


 1562              	.Letext0:
 1563              		.file 3 "/usr/lib/gcc/arm-none-eabi/9.2.1/include/stdint.h"
 1564              		.file 4 "Drivers/CMSIS/Include/core_cm7.h"
 1565              		.file 5 "Drivers/CMSIS/Device/ST/STM32F7xx/Include/system_stm32f7xx.h"
 1566              		.file 6 "Drivers/CMSIS/Device/ST/STM32F7xx/Include/stm32f765xx.h"
 1567              		.file 7 "Drivers/CMSIS/Device/ST/STM32F7xx/Include/stm32f7xx.h"
 1568              		.file 8 "Drivers/STM32F7xx_HAL_Driver/Inc/stm32f7xx_hal_def.h"
 1569              		.file 9 "Drivers/STM32F7xx_HAL_Driver/Inc/stm32f7xx_hal_flash.h"
 1570              		.file 10 "Drivers/STM32F7xx_HAL_Driver/Inc/stm32f7xx_hal.h"
ARM GAS  /tmp/ccCiGuAf.s 			page 59

