ARM GAS  /tmp/ccop1lUE.s 			page 1


   1              		.cpu cortex-m7
   2              		.eabi_attribute 28, 1
   3              		.eabi_attribute 20, 1
   4              		.eabi_attribute 21, 1
   5              		.eabi_attribute 23, 3
   6              		.eabi_attribute 24, 1
   7              		.eabi_attribute 25, 1
   8              		.eabi_attribute 26, 1
   9              		.eabi_attribute 30, 6
  10              		.eabi_attribute 34, 1
  11              		.eabi_attribute 18, 4
  12              		.file	"stm32f7xx_hal_rcc.c"
  13              		.text
  14              	.Ltext0:
  15              		.cfi_sections	.debug_frame
  16              		.section	.text.HAL_RCC_DeInit,"ax",%progbits
  17              		.align	1
  18              		.global	HAL_RCC_DeInit
  19              		.arch armv7e-m
  20              		.syntax unified
  21              		.thumb
  22              		.thumb_func
  23              		.fpu fpv5-d16
  25              	HAL_RCC_DeInit:
  26              	.LFB141:
  27              		.file 1 "Drivers/STM32F7xx_HAL_Driver/Src/stm32f7xx_hal_rcc.c"
   1:Drivers/STM32F7xx_HAL_Driver/Src/stm32f7xx_hal_rcc.c **** /**
   2:Drivers/STM32F7xx_HAL_Driver/Src/stm32f7xx_hal_rcc.c ****   ******************************************************************************
   3:Drivers/STM32F7xx_HAL_Driver/Src/stm32f7xx_hal_rcc.c ****   * @file    stm32f7xx_hal_rcc.c
   4:Drivers/STM32F7xx_HAL_Driver/Src/stm32f7xx_hal_rcc.c ****   * @author  MCD Application Team
   5:Drivers/STM32F7xx_HAL_Driver/Src/stm32f7xx_hal_rcc.c ****   * @brief   RCC HAL module driver.
   6:Drivers/STM32F7xx_HAL_Driver/Src/stm32f7xx_hal_rcc.c ****   *          This file provides firmware functions to manage the following
   7:Drivers/STM32F7xx_HAL_Driver/Src/stm32f7xx_hal_rcc.c ****   *          functionalities of the Reset and Clock Control (RCC) peripheral:
   8:Drivers/STM32F7xx_HAL_Driver/Src/stm32f7xx_hal_rcc.c ****   *           + Initialization and de-initialization functions
   9:Drivers/STM32F7xx_HAL_Driver/Src/stm32f7xx_hal_rcc.c ****   *           + Peripheral Control functions
  10:Drivers/STM32F7xx_HAL_Driver/Src/stm32f7xx_hal_rcc.c ****   *
  11:Drivers/STM32F7xx_HAL_Driver/Src/stm32f7xx_hal_rcc.c ****   @verbatim
  12:Drivers/STM32F7xx_HAL_Driver/Src/stm32f7xx_hal_rcc.c ****   ==============================================================================
  13:Drivers/STM32F7xx_HAL_Driver/Src/stm32f7xx_hal_rcc.c ****                       ##### RCC specific features #####
  14:Drivers/STM32F7xx_HAL_Driver/Src/stm32f7xx_hal_rcc.c ****   ==============================================================================
  15:Drivers/STM32F7xx_HAL_Driver/Src/stm32f7xx_hal_rcc.c ****     [..]
  16:Drivers/STM32F7xx_HAL_Driver/Src/stm32f7xx_hal_rcc.c ****       After reset the device is running from Internal High Speed oscillator
  17:Drivers/STM32F7xx_HAL_Driver/Src/stm32f7xx_hal_rcc.c ****       (HSI 16MHz) with Flash 0 wait state, Flash prefetch buffer, D-Cache
  18:Drivers/STM32F7xx_HAL_Driver/Src/stm32f7xx_hal_rcc.c ****       and I-Cache are disabled, and all peripherals are off except internal
  19:Drivers/STM32F7xx_HAL_Driver/Src/stm32f7xx_hal_rcc.c ****       SRAM, Flash and JTAG.
  20:Drivers/STM32F7xx_HAL_Driver/Src/stm32f7xx_hal_rcc.c ****       (+) There is no prescaler on High speed (AHB) and Low speed (APB) buses;
  21:Drivers/STM32F7xx_HAL_Driver/Src/stm32f7xx_hal_rcc.c ****           all peripherals mapped on these buses are running at HSI speed.
  22:Drivers/STM32F7xx_HAL_Driver/Src/stm32f7xx_hal_rcc.c ****       (+) The clock for all peripherals is switched off, except the SRAM and FLASH.
  23:Drivers/STM32F7xx_HAL_Driver/Src/stm32f7xx_hal_rcc.c ****       (+) All GPIOs are in input floating state, except the JTAG pins which
  24:Drivers/STM32F7xx_HAL_Driver/Src/stm32f7xx_hal_rcc.c ****           are assigned to be used for debug purpose.
  25:Drivers/STM32F7xx_HAL_Driver/Src/stm32f7xx_hal_rcc.c **** 
  26:Drivers/STM32F7xx_HAL_Driver/Src/stm32f7xx_hal_rcc.c ****     [..]
  27:Drivers/STM32F7xx_HAL_Driver/Src/stm32f7xx_hal_rcc.c ****       Once the device started from reset, the user application has to:
  28:Drivers/STM32F7xx_HAL_Driver/Src/stm32f7xx_hal_rcc.c ****       (+) Configure the clock source to be used to drive the System clock
  29:Drivers/STM32F7xx_HAL_Driver/Src/stm32f7xx_hal_rcc.c ****           (if the application needs higher frequency/performance)
  30:Drivers/STM32F7xx_HAL_Driver/Src/stm32f7xx_hal_rcc.c ****       (+) Configure the System clock frequency and Flash settings
  31:Drivers/STM32F7xx_HAL_Driver/Src/stm32f7xx_hal_rcc.c ****       (+) Configure the AHB and APB buses prescalers
ARM GAS  /tmp/ccop1lUE.s 			page 2


  32:Drivers/STM32F7xx_HAL_Driver/Src/stm32f7xx_hal_rcc.c ****       (+) Enable the clock for the peripheral(s) to be used
  33:Drivers/STM32F7xx_HAL_Driver/Src/stm32f7xx_hal_rcc.c ****       (+) Configure the clock source(s) for peripherals which clocks are not
  34:Drivers/STM32F7xx_HAL_Driver/Src/stm32f7xx_hal_rcc.c ****           derived from the System clock (I2S, RTC, ADC, USB OTG FS/SDIO/RNG)
  35:Drivers/STM32F7xx_HAL_Driver/Src/stm32f7xx_hal_rcc.c **** 
  36:Drivers/STM32F7xx_HAL_Driver/Src/stm32f7xx_hal_rcc.c ****                       ##### RCC Limitations #####
  37:Drivers/STM32F7xx_HAL_Driver/Src/stm32f7xx_hal_rcc.c ****   ==============================================================================
  38:Drivers/STM32F7xx_HAL_Driver/Src/stm32f7xx_hal_rcc.c ****     [..]
  39:Drivers/STM32F7xx_HAL_Driver/Src/stm32f7xx_hal_rcc.c ****       A delay between an RCC peripheral clock enable and the effective peripheral
  40:Drivers/STM32F7xx_HAL_Driver/Src/stm32f7xx_hal_rcc.c ****       enabling should be taken into account in order to manage the peripheral read/write
  41:Drivers/STM32F7xx_HAL_Driver/Src/stm32f7xx_hal_rcc.c ****       from/to registers.
  42:Drivers/STM32F7xx_HAL_Driver/Src/stm32f7xx_hal_rcc.c ****       (+) This delay depends on the peripheral mapping.
  43:Drivers/STM32F7xx_HAL_Driver/Src/stm32f7xx_hal_rcc.c ****       (+) If peripheral is mapped on AHB: the delay is 2 AHB clock cycle
  44:Drivers/STM32F7xx_HAL_Driver/Src/stm32f7xx_hal_rcc.c ****           after the clock enable bit is set on the hardware register
  45:Drivers/STM32F7xx_HAL_Driver/Src/stm32f7xx_hal_rcc.c ****       (+) If peripheral is mapped on APB: the delay is 2 APB clock cycle
  46:Drivers/STM32F7xx_HAL_Driver/Src/stm32f7xx_hal_rcc.c ****           after the clock enable bit is set on the hardware register
  47:Drivers/STM32F7xx_HAL_Driver/Src/stm32f7xx_hal_rcc.c **** 
  48:Drivers/STM32F7xx_HAL_Driver/Src/stm32f7xx_hal_rcc.c ****     [..]
  49:Drivers/STM32F7xx_HAL_Driver/Src/stm32f7xx_hal_rcc.c ****       Implemented Workaround:
  50:Drivers/STM32F7xx_HAL_Driver/Src/stm32f7xx_hal_rcc.c ****       (+) For AHB & APB peripherals, a dummy read to the peripheral register has been
  51:Drivers/STM32F7xx_HAL_Driver/Src/stm32f7xx_hal_rcc.c ****           inserted in each __HAL_RCC_PPP_CLK_ENABLE() macro.
  52:Drivers/STM32F7xx_HAL_Driver/Src/stm32f7xx_hal_rcc.c **** 
  53:Drivers/STM32F7xx_HAL_Driver/Src/stm32f7xx_hal_rcc.c ****   @endverbatim
  54:Drivers/STM32F7xx_HAL_Driver/Src/stm32f7xx_hal_rcc.c ****   ******************************************************************************
  55:Drivers/STM32F7xx_HAL_Driver/Src/stm32f7xx_hal_rcc.c ****   * @attention
  56:Drivers/STM32F7xx_HAL_Driver/Src/stm32f7xx_hal_rcc.c ****   *
  57:Drivers/STM32F7xx_HAL_Driver/Src/stm32f7xx_hal_rcc.c ****   * <h2><center>&copy; Copyright (c) 2017 STMicroelectronics.
  58:Drivers/STM32F7xx_HAL_Driver/Src/stm32f7xx_hal_rcc.c ****   * All rights reserved.</center></h2>
  59:Drivers/STM32F7xx_HAL_Driver/Src/stm32f7xx_hal_rcc.c ****   *
  60:Drivers/STM32F7xx_HAL_Driver/Src/stm32f7xx_hal_rcc.c ****   * This software component is licensed by ST under BSD 3-Clause license,
  61:Drivers/STM32F7xx_HAL_Driver/Src/stm32f7xx_hal_rcc.c ****   * the "License"; You may not use this file except in compliance with the
  62:Drivers/STM32F7xx_HAL_Driver/Src/stm32f7xx_hal_rcc.c ****   * License. You may obtain a copy of the License at:
  63:Drivers/STM32F7xx_HAL_Driver/Src/stm32f7xx_hal_rcc.c ****   *                        opensource.org/licenses/BSD-3-Clause
  64:Drivers/STM32F7xx_HAL_Driver/Src/stm32f7xx_hal_rcc.c ****   *
  65:Drivers/STM32F7xx_HAL_Driver/Src/stm32f7xx_hal_rcc.c ****   ******************************************************************************
  66:Drivers/STM32F7xx_HAL_Driver/Src/stm32f7xx_hal_rcc.c ****   */
  67:Drivers/STM32F7xx_HAL_Driver/Src/stm32f7xx_hal_rcc.c **** 
  68:Drivers/STM32F7xx_HAL_Driver/Src/stm32f7xx_hal_rcc.c **** /* Includes ------------------------------------------------------------------*/
  69:Drivers/STM32F7xx_HAL_Driver/Src/stm32f7xx_hal_rcc.c **** #include "stm32f7xx_hal.h"
  70:Drivers/STM32F7xx_HAL_Driver/Src/stm32f7xx_hal_rcc.c **** 
  71:Drivers/STM32F7xx_HAL_Driver/Src/stm32f7xx_hal_rcc.c **** /** @addtogroup STM32F7xx_HAL_Driver
  72:Drivers/STM32F7xx_HAL_Driver/Src/stm32f7xx_hal_rcc.c ****   * @{
  73:Drivers/STM32F7xx_HAL_Driver/Src/stm32f7xx_hal_rcc.c ****   */
  74:Drivers/STM32F7xx_HAL_Driver/Src/stm32f7xx_hal_rcc.c **** 
  75:Drivers/STM32F7xx_HAL_Driver/Src/stm32f7xx_hal_rcc.c **** /** @defgroup RCC RCC
  76:Drivers/STM32F7xx_HAL_Driver/Src/stm32f7xx_hal_rcc.c ****   * @brief RCC HAL module driver
  77:Drivers/STM32F7xx_HAL_Driver/Src/stm32f7xx_hal_rcc.c ****   * @{
  78:Drivers/STM32F7xx_HAL_Driver/Src/stm32f7xx_hal_rcc.c ****   */
  79:Drivers/STM32F7xx_HAL_Driver/Src/stm32f7xx_hal_rcc.c **** 
  80:Drivers/STM32F7xx_HAL_Driver/Src/stm32f7xx_hal_rcc.c **** #ifdef HAL_RCC_MODULE_ENABLED
  81:Drivers/STM32F7xx_HAL_Driver/Src/stm32f7xx_hal_rcc.c **** 
  82:Drivers/STM32F7xx_HAL_Driver/Src/stm32f7xx_hal_rcc.c **** /* Private typedef -----------------------------------------------------------*/
  83:Drivers/STM32F7xx_HAL_Driver/Src/stm32f7xx_hal_rcc.c **** /* Private define ------------------------------------------------------------*/
  84:Drivers/STM32F7xx_HAL_Driver/Src/stm32f7xx_hal_rcc.c **** /* Private macro -------------------------------------------------------------*/
  85:Drivers/STM32F7xx_HAL_Driver/Src/stm32f7xx_hal_rcc.c **** /** @defgroup RCC_Private_Macros RCC Private Macros
  86:Drivers/STM32F7xx_HAL_Driver/Src/stm32f7xx_hal_rcc.c ****   * @{
  87:Drivers/STM32F7xx_HAL_Driver/Src/stm32f7xx_hal_rcc.c ****   */
  88:Drivers/STM32F7xx_HAL_Driver/Src/stm32f7xx_hal_rcc.c **** 
ARM GAS  /tmp/ccop1lUE.s 			page 3


  89:Drivers/STM32F7xx_HAL_Driver/Src/stm32f7xx_hal_rcc.c **** #define MCO1_CLK_ENABLE()   __HAL_RCC_GPIOA_CLK_ENABLE()
  90:Drivers/STM32F7xx_HAL_Driver/Src/stm32f7xx_hal_rcc.c **** #define MCO1_GPIO_PORT        GPIOA
  91:Drivers/STM32F7xx_HAL_Driver/Src/stm32f7xx_hal_rcc.c **** #define MCO1_PIN              GPIO_PIN_8
  92:Drivers/STM32F7xx_HAL_Driver/Src/stm32f7xx_hal_rcc.c **** 
  93:Drivers/STM32F7xx_HAL_Driver/Src/stm32f7xx_hal_rcc.c **** #define MCO2_CLK_ENABLE()   __HAL_RCC_GPIOC_CLK_ENABLE()
  94:Drivers/STM32F7xx_HAL_Driver/Src/stm32f7xx_hal_rcc.c **** #define MCO2_GPIO_PORT         GPIOC
  95:Drivers/STM32F7xx_HAL_Driver/Src/stm32f7xx_hal_rcc.c **** #define MCO2_PIN               GPIO_PIN_9
  96:Drivers/STM32F7xx_HAL_Driver/Src/stm32f7xx_hal_rcc.c **** 
  97:Drivers/STM32F7xx_HAL_Driver/Src/stm32f7xx_hal_rcc.c **** /**
  98:Drivers/STM32F7xx_HAL_Driver/Src/stm32f7xx_hal_rcc.c ****   * @}
  99:Drivers/STM32F7xx_HAL_Driver/Src/stm32f7xx_hal_rcc.c ****   */
 100:Drivers/STM32F7xx_HAL_Driver/Src/stm32f7xx_hal_rcc.c **** /* Private variables ---------------------------------------------------------*/
 101:Drivers/STM32F7xx_HAL_Driver/Src/stm32f7xx_hal_rcc.c **** /** @defgroup RCC_Private_Variables RCC Private Variables
 102:Drivers/STM32F7xx_HAL_Driver/Src/stm32f7xx_hal_rcc.c ****   * @{
 103:Drivers/STM32F7xx_HAL_Driver/Src/stm32f7xx_hal_rcc.c ****   */
 104:Drivers/STM32F7xx_HAL_Driver/Src/stm32f7xx_hal_rcc.c **** 
 105:Drivers/STM32F7xx_HAL_Driver/Src/stm32f7xx_hal_rcc.c **** /**
 106:Drivers/STM32F7xx_HAL_Driver/Src/stm32f7xx_hal_rcc.c ****   * @}
 107:Drivers/STM32F7xx_HAL_Driver/Src/stm32f7xx_hal_rcc.c ****   */
 108:Drivers/STM32F7xx_HAL_Driver/Src/stm32f7xx_hal_rcc.c **** 
 109:Drivers/STM32F7xx_HAL_Driver/Src/stm32f7xx_hal_rcc.c **** /* Private function prototypes -----------------------------------------------*/
 110:Drivers/STM32F7xx_HAL_Driver/Src/stm32f7xx_hal_rcc.c **** /* Exported functions ---------------------------------------------------------*/
 111:Drivers/STM32F7xx_HAL_Driver/Src/stm32f7xx_hal_rcc.c **** 
 112:Drivers/STM32F7xx_HAL_Driver/Src/stm32f7xx_hal_rcc.c **** /** @defgroup RCC_Exported_Functions RCC Exported Functions
 113:Drivers/STM32F7xx_HAL_Driver/Src/stm32f7xx_hal_rcc.c ****   * @{
 114:Drivers/STM32F7xx_HAL_Driver/Src/stm32f7xx_hal_rcc.c ****   */
 115:Drivers/STM32F7xx_HAL_Driver/Src/stm32f7xx_hal_rcc.c **** 
 116:Drivers/STM32F7xx_HAL_Driver/Src/stm32f7xx_hal_rcc.c **** /** @defgroup RCC_Exported_Functions_Group1 Initialization and de-initialization functions
 117:Drivers/STM32F7xx_HAL_Driver/Src/stm32f7xx_hal_rcc.c ****   *  @brief    Initialization and Configuration functions
 118:Drivers/STM32F7xx_HAL_Driver/Src/stm32f7xx_hal_rcc.c ****   *
 119:Drivers/STM32F7xx_HAL_Driver/Src/stm32f7xx_hal_rcc.c ****   @verbatim
 120:Drivers/STM32F7xx_HAL_Driver/Src/stm32f7xx_hal_rcc.c ****   ===============================================================================
 121:Drivers/STM32F7xx_HAL_Driver/Src/stm32f7xx_hal_rcc.c **** ##### Initialization and de-initialization functions #####
 122:Drivers/STM32F7xx_HAL_Driver/Src/stm32f7xx_hal_rcc.c ****   ===============================================================================
 123:Drivers/STM32F7xx_HAL_Driver/Src/stm32f7xx_hal_rcc.c ****     [..]
 124:Drivers/STM32F7xx_HAL_Driver/Src/stm32f7xx_hal_rcc.c ****       This section provides functions allowing to configure the internal/external oscillators
 125:Drivers/STM32F7xx_HAL_Driver/Src/stm32f7xx_hal_rcc.c ****       (HSE, HSI, LSE, LSI, PLL, CSS and MCO) and the System buses clocks (SYSCLK, AHB, APB1
 126:Drivers/STM32F7xx_HAL_Driver/Src/stm32f7xx_hal_rcc.c ****       and APB2).
 127:Drivers/STM32F7xx_HAL_Driver/Src/stm32f7xx_hal_rcc.c **** 
 128:Drivers/STM32F7xx_HAL_Driver/Src/stm32f7xx_hal_rcc.c ****     [..] Internal/external clock and PLL configuration
 129:Drivers/STM32F7xx_HAL_Driver/Src/stm32f7xx_hal_rcc.c ****       (#) HSI (high-speed internal), 16 MHz factory-trimmed RC used directly or through
 130:Drivers/STM32F7xx_HAL_Driver/Src/stm32f7xx_hal_rcc.c ****           the PLL as System clock source.
 131:Drivers/STM32F7xx_HAL_Driver/Src/stm32f7xx_hal_rcc.c **** 
 132:Drivers/STM32F7xx_HAL_Driver/Src/stm32f7xx_hal_rcc.c ****       (#) LSI (low-speed internal), 32 KHz low consumption RC used as IWDG and/or RTC
 133:Drivers/STM32F7xx_HAL_Driver/Src/stm32f7xx_hal_rcc.c ****           clock source.
 134:Drivers/STM32F7xx_HAL_Driver/Src/stm32f7xx_hal_rcc.c **** 
 135:Drivers/STM32F7xx_HAL_Driver/Src/stm32f7xx_hal_rcc.c ****       (#) HSE (high-speed external), 4 to 26 MHz crystal oscillator used directly or
 136:Drivers/STM32F7xx_HAL_Driver/Src/stm32f7xx_hal_rcc.c ****           through the PLL as System clock source. Can be used also as RTC clock source.
 137:Drivers/STM32F7xx_HAL_Driver/Src/stm32f7xx_hal_rcc.c **** 
 138:Drivers/STM32F7xx_HAL_Driver/Src/stm32f7xx_hal_rcc.c ****       (#) LSE (low-speed external), 32 KHz oscillator used as RTC clock source.
 139:Drivers/STM32F7xx_HAL_Driver/Src/stm32f7xx_hal_rcc.c **** 
 140:Drivers/STM32F7xx_HAL_Driver/Src/stm32f7xx_hal_rcc.c ****       (#) PLL (clocked by HSI or HSE), featuring two different output clocks:
 141:Drivers/STM32F7xx_HAL_Driver/Src/stm32f7xx_hal_rcc.c ****         (++) The first output is used to generate the high speed system clock (up to 216 MHz)
 142:Drivers/STM32F7xx_HAL_Driver/Src/stm32f7xx_hal_rcc.c ****         (++) The second output is used to generate the clock for the USB OTG FS (48 MHz),
 143:Drivers/STM32F7xx_HAL_Driver/Src/stm32f7xx_hal_rcc.c ****              the random analog generator (<=48 MHz) and the SDIO (<= 48 MHz).
 144:Drivers/STM32F7xx_HAL_Driver/Src/stm32f7xx_hal_rcc.c **** 
 145:Drivers/STM32F7xx_HAL_Driver/Src/stm32f7xx_hal_rcc.c ****       (#) CSS (Clock security system), once enable using the function HAL_RCC_EnableCSS()
ARM GAS  /tmp/ccop1lUE.s 			page 4


 146:Drivers/STM32F7xx_HAL_Driver/Src/stm32f7xx_hal_rcc.c ****           and if a HSE clock failure occurs(HSE used directly or through PLL as System
 147:Drivers/STM32F7xx_HAL_Driver/Src/stm32f7xx_hal_rcc.c ****           clock source), the System clock is automatically switched to HSI and an interrupt
 148:Drivers/STM32F7xx_HAL_Driver/Src/stm32f7xx_hal_rcc.c ****           is generated if enabled. The interrupt is linked to the Cortex-M7 NMI
 149:Drivers/STM32F7xx_HAL_Driver/Src/stm32f7xx_hal_rcc.c ****           (Non-Maskable Interrupt) exception vector.
 150:Drivers/STM32F7xx_HAL_Driver/Src/stm32f7xx_hal_rcc.c **** 
 151:Drivers/STM32F7xx_HAL_Driver/Src/stm32f7xx_hal_rcc.c ****       (#) MCO1 (microcontroller clock output), used to output HSI, LSE, HSE or PLL
 152:Drivers/STM32F7xx_HAL_Driver/Src/stm32f7xx_hal_rcc.c ****           clock (through a configurable prescaler) on PA8 pin.
 153:Drivers/STM32F7xx_HAL_Driver/Src/stm32f7xx_hal_rcc.c **** 
 154:Drivers/STM32F7xx_HAL_Driver/Src/stm32f7xx_hal_rcc.c ****       (#) MCO2 (microcontroller clock output), used to output HSE, PLL, SYSCLK or PLLI2S
 155:Drivers/STM32F7xx_HAL_Driver/Src/stm32f7xx_hal_rcc.c ****           clock (through a configurable prescaler) on PC9 pin.
 156:Drivers/STM32F7xx_HAL_Driver/Src/stm32f7xx_hal_rcc.c **** 
 157:Drivers/STM32F7xx_HAL_Driver/Src/stm32f7xx_hal_rcc.c ****     [..] System, AHB and APB buses clocks configuration
 158:Drivers/STM32F7xx_HAL_Driver/Src/stm32f7xx_hal_rcc.c ****       (#) Several clock sources can be used to drive the System clock (SYSCLK): HSI,
 159:Drivers/STM32F7xx_HAL_Driver/Src/stm32f7xx_hal_rcc.c ****           HSE and PLL.
 160:Drivers/STM32F7xx_HAL_Driver/Src/stm32f7xx_hal_rcc.c ****           The AHB clock (HCLK) is derived from System clock through configurable
 161:Drivers/STM32F7xx_HAL_Driver/Src/stm32f7xx_hal_rcc.c ****           prescaler and used to clock the CPU, memory and peripherals mapped
 162:Drivers/STM32F7xx_HAL_Driver/Src/stm32f7xx_hal_rcc.c ****           on AHB bus (DMA, GPIO...). APB1 (PCLK1) and APB2 (PCLK2) clocks are derived
 163:Drivers/STM32F7xx_HAL_Driver/Src/stm32f7xx_hal_rcc.c ****           from AHB clock through configurable prescalers and used to clock
 164:Drivers/STM32F7xx_HAL_Driver/Src/stm32f7xx_hal_rcc.c ****           the peripherals mapped on these buses. You can use
 165:Drivers/STM32F7xx_HAL_Driver/Src/stm32f7xx_hal_rcc.c ****           "HAL_RCC_GetSysClockFreq()" function to retrieve the frequencies of these clocks.
 166:Drivers/STM32F7xx_HAL_Driver/Src/stm32f7xx_hal_rcc.c **** 
 167:Drivers/STM32F7xx_HAL_Driver/Src/stm32f7xx_hal_rcc.c ****       -@- All the peripheral clocks are derived from the System clock (SYSCLK) except:
 168:Drivers/STM32F7xx_HAL_Driver/Src/stm32f7xx_hal_rcc.c ****           (+@) I2S: the I2S clock can be derived either from a specific PLL (PLLI2S) or
 169:Drivers/STM32F7xx_HAL_Driver/Src/stm32f7xx_hal_rcc.c ****               from an external clock mapped on the I2S_CKIN pin.
 170:Drivers/STM32F7xx_HAL_Driver/Src/stm32f7xx_hal_rcc.c ****               You have to use __HAL_RCC_PLLI2S_CONFIG() macro to configure this clock.
 171:Drivers/STM32F7xx_HAL_Driver/Src/stm32f7xx_hal_rcc.c ****           (+@)  SAI: the SAI clock can be derived either from a specific PLL (PLLI2S) or (PLLSAI) o
 172:Drivers/STM32F7xx_HAL_Driver/Src/stm32f7xx_hal_rcc.c ****               from an external clock mapped on the I2S_CKIN pin.
 173:Drivers/STM32F7xx_HAL_Driver/Src/stm32f7xx_hal_rcc.c ****                You have to use __HAL_RCC_PLLI2S_CONFIG() macro to configure this clock.
 174:Drivers/STM32F7xx_HAL_Driver/Src/stm32f7xx_hal_rcc.c ****           (+@) RTC: the RTC clock can be derived either from the LSI, LSE or HSE clock
 175:Drivers/STM32F7xx_HAL_Driver/Src/stm32f7xx_hal_rcc.c ****               divided by 2 to 31. You have to use __HAL_RCC_RTC_CONFIG() and __HAL_RCC_RTC_ENABLE()
 176:Drivers/STM32F7xx_HAL_Driver/Src/stm32f7xx_hal_rcc.c ****               macros to configure this clock.
 177:Drivers/STM32F7xx_HAL_Driver/Src/stm32f7xx_hal_rcc.c ****           (+@) USB OTG FS, SDIO and RTC: USB OTG FS require a frequency equal to 48 MHz
 178:Drivers/STM32F7xx_HAL_Driver/Src/stm32f7xx_hal_rcc.c ****               to work correctly, while the SDIO require a frequency equal or lower than
 179:Drivers/STM32F7xx_HAL_Driver/Src/stm32f7xx_hal_rcc.c ****               to 48. This clock is derived of the main PLL through PLLQ divider.
 180:Drivers/STM32F7xx_HAL_Driver/Src/stm32f7xx_hal_rcc.c ****           (+@) IWDG clock which is always the LSI clock.
 181:Drivers/STM32F7xx_HAL_Driver/Src/stm32f7xx_hal_rcc.c **** @endverbatim
 182:Drivers/STM32F7xx_HAL_Driver/Src/stm32f7xx_hal_rcc.c ****   * @{
 183:Drivers/STM32F7xx_HAL_Driver/Src/stm32f7xx_hal_rcc.c ****   */
 184:Drivers/STM32F7xx_HAL_Driver/Src/stm32f7xx_hal_rcc.c **** 
 185:Drivers/STM32F7xx_HAL_Driver/Src/stm32f7xx_hal_rcc.c **** /**
 186:Drivers/STM32F7xx_HAL_Driver/Src/stm32f7xx_hal_rcc.c ****   * @brief  Resets the RCC clock configuration to the default reset state.
 187:Drivers/STM32F7xx_HAL_Driver/Src/stm32f7xx_hal_rcc.c ****   * @note   The default reset state of the clock configuration is given below:
 188:Drivers/STM32F7xx_HAL_Driver/Src/stm32f7xx_hal_rcc.c ****   *            - HSI ON and used as system clock source
 189:Drivers/STM32F7xx_HAL_Driver/Src/stm32f7xx_hal_rcc.c ****   *            - HSE, PLL, PLLI2S and PLLSAI OFF
 190:Drivers/STM32F7xx_HAL_Driver/Src/stm32f7xx_hal_rcc.c ****   *            - AHB, APB1 and APB2 prescaler set to 1.
 191:Drivers/STM32F7xx_HAL_Driver/Src/stm32f7xx_hal_rcc.c ****   *            - CSS, MCO1 and MCO2 OFF
 192:Drivers/STM32F7xx_HAL_Driver/Src/stm32f7xx_hal_rcc.c ****   *            - All interrupts disabled
 193:Drivers/STM32F7xx_HAL_Driver/Src/stm32f7xx_hal_rcc.c ****   * @note   This function doesn't modify the configuration of the
 194:Drivers/STM32F7xx_HAL_Driver/Src/stm32f7xx_hal_rcc.c ****   *            - Peripheral clocks
 195:Drivers/STM32F7xx_HAL_Driver/Src/stm32f7xx_hal_rcc.c ****   *            - LSI, LSE and RTC clocks
 196:Drivers/STM32F7xx_HAL_Driver/Src/stm32f7xx_hal_rcc.c ****   * @retval None
 197:Drivers/STM32F7xx_HAL_Driver/Src/stm32f7xx_hal_rcc.c ****   */
 198:Drivers/STM32F7xx_HAL_Driver/Src/stm32f7xx_hal_rcc.c **** HAL_StatusTypeDef HAL_RCC_DeInit(void)
 199:Drivers/STM32F7xx_HAL_Driver/Src/stm32f7xx_hal_rcc.c **** {
  28              		.loc 1 199 1
  29              		.cfi_startproc
  30              		@ args = 0, pretend = 0, frame = 8
ARM GAS  /tmp/ccop1lUE.s 			page 5


  31              		@ frame_needed = 1, uses_anonymous_args = 0
  32 0000 80B5     		push	{r7, lr}
  33              	.LCFI0:
  34              		.cfi_def_cfa_offset 8
  35              		.cfi_offset 7, -8
  36              		.cfi_offset 14, -4
  37 0002 82B0     		sub	sp, sp, #8
  38              	.LCFI1:
  39              		.cfi_def_cfa_offset 16
  40 0004 00AF     		add	r7, sp, #0
  41              	.LCFI2:
  42              		.cfi_def_cfa_register 7
 200:Drivers/STM32F7xx_HAL_Driver/Src/stm32f7xx_hal_rcc.c ****   uint32_t tickstart;
 201:Drivers/STM32F7xx_HAL_Driver/Src/stm32f7xx_hal_rcc.c **** 
 202:Drivers/STM32F7xx_HAL_Driver/Src/stm32f7xx_hal_rcc.c ****   /* Get Start Tick */
 203:Drivers/STM32F7xx_HAL_Driver/Src/stm32f7xx_hal_rcc.c ****   tickstart = HAL_GetTick();
  43              		.loc 1 203 15
  44 0006 FFF7FEFF 		bl	HAL_GetTick
  45 000a 7860     		str	r0, [r7, #4]
 204:Drivers/STM32F7xx_HAL_Driver/Src/stm32f7xx_hal_rcc.c **** 
 205:Drivers/STM32F7xx_HAL_Driver/Src/stm32f7xx_hal_rcc.c ****   /* Set HSION bit to the reset value */
 206:Drivers/STM32F7xx_HAL_Driver/Src/stm32f7xx_hal_rcc.c ****   SET_BIT(RCC->CR, RCC_CR_HSION);
  46              		.loc 1 206 3
  47 000c 664B     		ldr	r3, .L16
  48 000e 1B68     		ldr	r3, [r3]
  49 0010 654A     		ldr	r2, .L16
  50 0012 43F00103 		orr	r3, r3, #1
  51 0016 1360     		str	r3, [r2]
 207:Drivers/STM32F7xx_HAL_Driver/Src/stm32f7xx_hal_rcc.c **** 
 208:Drivers/STM32F7xx_HAL_Driver/Src/stm32f7xx_hal_rcc.c ****   /* Wait till HSI is ready */
 209:Drivers/STM32F7xx_HAL_Driver/Src/stm32f7xx_hal_rcc.c ****   while (READ_BIT(RCC->CR, RCC_CR_HSIRDY) == RESET)
  52              		.loc 1 209 9
  53 0018 08E0     		b	.L2
  54              	.L4:
 210:Drivers/STM32F7xx_HAL_Driver/Src/stm32f7xx_hal_rcc.c ****   {
 211:Drivers/STM32F7xx_HAL_Driver/Src/stm32f7xx_hal_rcc.c ****     if ((HAL_GetTick() - tickstart) > HSI_TIMEOUT_VALUE)
  55              		.loc 1 211 10
  56 001a FFF7FEFF 		bl	HAL_GetTick
  57 001e 0246     		mov	r2, r0
  58              		.loc 1 211 24
  59 0020 7B68     		ldr	r3, [r7, #4]
  60 0022 D31A     		subs	r3, r2, r3
  61              		.loc 1 211 8
  62 0024 022B     		cmp	r3, #2
  63 0026 01D9     		bls	.L2
 212:Drivers/STM32F7xx_HAL_Driver/Src/stm32f7xx_hal_rcc.c ****     {
 213:Drivers/STM32F7xx_HAL_Driver/Src/stm32f7xx_hal_rcc.c ****       return HAL_TIMEOUT;
  64              		.loc 1 213 14
  65 0028 0323     		movs	r3, #3
  66 002a B8E0     		b	.L3
  67              	.L2:
 209:Drivers/STM32F7xx_HAL_Driver/Src/stm32f7xx_hal_rcc.c ****   {
  68              		.loc 1 209 10
  69 002c 5E4B     		ldr	r3, .L16
  70 002e 1B68     		ldr	r3, [r3]
  71 0030 03F00203 		and	r3, r3, #2
 209:Drivers/STM32F7xx_HAL_Driver/Src/stm32f7xx_hal_rcc.c ****   {
ARM GAS  /tmp/ccop1lUE.s 			page 6


  72              		.loc 1 209 9
  73 0034 002B     		cmp	r3, #0
  74 0036 F0D0     		beq	.L4
 214:Drivers/STM32F7xx_HAL_Driver/Src/stm32f7xx_hal_rcc.c ****     }
 215:Drivers/STM32F7xx_HAL_Driver/Src/stm32f7xx_hal_rcc.c ****   }
 216:Drivers/STM32F7xx_HAL_Driver/Src/stm32f7xx_hal_rcc.c **** 
 217:Drivers/STM32F7xx_HAL_Driver/Src/stm32f7xx_hal_rcc.c ****   /* Set HSITRIM[4:0] bits to the reset value */
 218:Drivers/STM32F7xx_HAL_Driver/Src/stm32f7xx_hal_rcc.c ****   SET_BIT(RCC->CR, RCC_CR_HSITRIM_4);
  75              		.loc 1 218 3
  76 0038 5B4B     		ldr	r3, .L16
  77 003a 1B68     		ldr	r3, [r3]
  78 003c 5A4A     		ldr	r2, .L16
  79 003e 43F08003 		orr	r3, r3, #128
  80 0042 1360     		str	r3, [r2]
 219:Drivers/STM32F7xx_HAL_Driver/Src/stm32f7xx_hal_rcc.c **** 
 220:Drivers/STM32F7xx_HAL_Driver/Src/stm32f7xx_hal_rcc.c ****   /* Get Start Tick */
 221:Drivers/STM32F7xx_HAL_Driver/Src/stm32f7xx_hal_rcc.c ****   tickstart = HAL_GetTick();
  81              		.loc 1 221 15
  82 0044 FFF7FEFF 		bl	HAL_GetTick
  83 0048 7860     		str	r0, [r7, #4]
 222:Drivers/STM32F7xx_HAL_Driver/Src/stm32f7xx_hal_rcc.c **** 
 223:Drivers/STM32F7xx_HAL_Driver/Src/stm32f7xx_hal_rcc.c ****   /* Reset CFGR register */
 224:Drivers/STM32F7xx_HAL_Driver/Src/stm32f7xx_hal_rcc.c ****   CLEAR_REG(RCC->CFGR);
  84              		.loc 1 224 3
  85 004a 574B     		ldr	r3, .L16
  86 004c 0022     		movs	r2, #0
  87 004e 9A60     		str	r2, [r3, #8]
 225:Drivers/STM32F7xx_HAL_Driver/Src/stm32f7xx_hal_rcc.c **** 
 226:Drivers/STM32F7xx_HAL_Driver/Src/stm32f7xx_hal_rcc.c ****   /* Wait till clock switch is ready */
 227:Drivers/STM32F7xx_HAL_Driver/Src/stm32f7xx_hal_rcc.c ****   while (READ_BIT(RCC->CFGR, RCC_CFGR_SWS) != RESET)
  88              		.loc 1 227 9
  89 0050 0AE0     		b	.L5
  90              	.L6:
 228:Drivers/STM32F7xx_HAL_Driver/Src/stm32f7xx_hal_rcc.c ****   {
 229:Drivers/STM32F7xx_HAL_Driver/Src/stm32f7xx_hal_rcc.c ****     if ((HAL_GetTick() - tickstart) > CLOCKSWITCH_TIMEOUT_VALUE)
  91              		.loc 1 229 10
  92 0052 FFF7FEFF 		bl	HAL_GetTick
  93 0056 0246     		mov	r2, r0
  94              		.loc 1 229 24
  95 0058 7B68     		ldr	r3, [r7, #4]
  96 005a D31A     		subs	r3, r2, r3
  97              		.loc 1 229 8
  98 005c 41F28832 		movw	r2, #5000
  99 0060 9342     		cmp	r3, r2
 100 0062 01D9     		bls	.L5
 230:Drivers/STM32F7xx_HAL_Driver/Src/stm32f7xx_hal_rcc.c ****     {
 231:Drivers/STM32F7xx_HAL_Driver/Src/stm32f7xx_hal_rcc.c ****       return HAL_TIMEOUT;
 101              		.loc 1 231 14
 102 0064 0323     		movs	r3, #3
 103 0066 9AE0     		b	.L3
 104              	.L5:
 227:Drivers/STM32F7xx_HAL_Driver/Src/stm32f7xx_hal_rcc.c ****   {
 105              		.loc 1 227 10
 106 0068 4F4B     		ldr	r3, .L16
 107 006a 9B68     		ldr	r3, [r3, #8]
 108 006c 03F00C03 		and	r3, r3, #12
 227:Drivers/STM32F7xx_HAL_Driver/Src/stm32f7xx_hal_rcc.c ****   {
ARM GAS  /tmp/ccop1lUE.s 			page 7


 109              		.loc 1 227 9
 110 0070 002B     		cmp	r3, #0
 111 0072 EED1     		bne	.L6
 232:Drivers/STM32F7xx_HAL_Driver/Src/stm32f7xx_hal_rcc.c ****     }
 233:Drivers/STM32F7xx_HAL_Driver/Src/stm32f7xx_hal_rcc.c ****   }
 234:Drivers/STM32F7xx_HAL_Driver/Src/stm32f7xx_hal_rcc.c **** 
 235:Drivers/STM32F7xx_HAL_Driver/Src/stm32f7xx_hal_rcc.c ****   /* Get Start Tick */
 236:Drivers/STM32F7xx_HAL_Driver/Src/stm32f7xx_hal_rcc.c ****   tickstart = HAL_GetTick();
 112              		.loc 1 236 15
 113 0074 FFF7FEFF 		bl	HAL_GetTick
 114 0078 7860     		str	r0, [r7, #4]
 237:Drivers/STM32F7xx_HAL_Driver/Src/stm32f7xx_hal_rcc.c **** 
 238:Drivers/STM32F7xx_HAL_Driver/Src/stm32f7xx_hal_rcc.c ****   /* Clear HSEON, HSEBYP and CSSON bits */
 239:Drivers/STM32F7xx_HAL_Driver/Src/stm32f7xx_hal_rcc.c ****   CLEAR_BIT(RCC->CR, RCC_CR_HSEON | RCC_CR_HSEBYP | RCC_CR_CSSON);
 115              		.loc 1 239 3
 116 007a 4B4B     		ldr	r3, .L16
 117 007c 1B68     		ldr	r3, [r3]
 118 007e 4A4A     		ldr	r2, .L16
 119 0080 23F45023 		bic	r3, r3, #851968
 120 0084 1360     		str	r3, [r2]
 240:Drivers/STM32F7xx_HAL_Driver/Src/stm32f7xx_hal_rcc.c **** 
 241:Drivers/STM32F7xx_HAL_Driver/Src/stm32f7xx_hal_rcc.c ****   /* Wait till HSE is disabled */
 242:Drivers/STM32F7xx_HAL_Driver/Src/stm32f7xx_hal_rcc.c ****   while (READ_BIT(RCC->CR, RCC_CR_HSERDY) != RESET)
 121              		.loc 1 242 9
 122 0086 08E0     		b	.L7
 123              	.L8:
 243:Drivers/STM32F7xx_HAL_Driver/Src/stm32f7xx_hal_rcc.c ****   {
 244:Drivers/STM32F7xx_HAL_Driver/Src/stm32f7xx_hal_rcc.c ****     if ((HAL_GetTick() - tickstart) > HSE_TIMEOUT_VALUE)
 124              		.loc 1 244 10
 125 0088 FFF7FEFF 		bl	HAL_GetTick
 126 008c 0246     		mov	r2, r0
 127              		.loc 1 244 24
 128 008e 7B68     		ldr	r3, [r7, #4]
 129 0090 D31A     		subs	r3, r2, r3
 130              		.loc 1 244 8
 131 0092 642B     		cmp	r3, #100
 132 0094 01D9     		bls	.L7
 245:Drivers/STM32F7xx_HAL_Driver/Src/stm32f7xx_hal_rcc.c ****     {
 246:Drivers/STM32F7xx_HAL_Driver/Src/stm32f7xx_hal_rcc.c ****       return HAL_TIMEOUT;
 133              		.loc 1 246 14
 134 0096 0323     		movs	r3, #3
 135 0098 81E0     		b	.L3
 136              	.L7:
 242:Drivers/STM32F7xx_HAL_Driver/Src/stm32f7xx_hal_rcc.c ****   {
 137              		.loc 1 242 10
 138 009a 434B     		ldr	r3, .L16
 139 009c 1B68     		ldr	r3, [r3]
 140 009e 03F40033 		and	r3, r3, #131072
 242:Drivers/STM32F7xx_HAL_Driver/Src/stm32f7xx_hal_rcc.c ****   {
 141              		.loc 1 242 9
 142 00a2 002B     		cmp	r3, #0
 143 00a4 F0D1     		bne	.L8
 247:Drivers/STM32F7xx_HAL_Driver/Src/stm32f7xx_hal_rcc.c ****     }
 248:Drivers/STM32F7xx_HAL_Driver/Src/stm32f7xx_hal_rcc.c ****   }
 249:Drivers/STM32F7xx_HAL_Driver/Src/stm32f7xx_hal_rcc.c **** 
 250:Drivers/STM32F7xx_HAL_Driver/Src/stm32f7xx_hal_rcc.c ****   /* Get Start Tick */
 251:Drivers/STM32F7xx_HAL_Driver/Src/stm32f7xx_hal_rcc.c ****   tickstart = HAL_GetTick();
ARM GAS  /tmp/ccop1lUE.s 			page 8


 144              		.loc 1 251 15
 145 00a6 FFF7FEFF 		bl	HAL_GetTick
 146 00aa 7860     		str	r0, [r7, #4]
 252:Drivers/STM32F7xx_HAL_Driver/Src/stm32f7xx_hal_rcc.c **** 
 253:Drivers/STM32F7xx_HAL_Driver/Src/stm32f7xx_hal_rcc.c ****   /* Clear PLLON bit */
 254:Drivers/STM32F7xx_HAL_Driver/Src/stm32f7xx_hal_rcc.c ****   CLEAR_BIT(RCC->CR, RCC_CR_PLLON);
 147              		.loc 1 254 3
 148 00ac 3E4B     		ldr	r3, .L16
 149 00ae 1B68     		ldr	r3, [r3]
 150 00b0 3D4A     		ldr	r2, .L16
 151 00b2 23F08073 		bic	r3, r3, #16777216
 152 00b6 1360     		str	r3, [r2]
 255:Drivers/STM32F7xx_HAL_Driver/Src/stm32f7xx_hal_rcc.c **** 
 256:Drivers/STM32F7xx_HAL_Driver/Src/stm32f7xx_hal_rcc.c ****   /* Wait till PLL is disabled */
 257:Drivers/STM32F7xx_HAL_Driver/Src/stm32f7xx_hal_rcc.c ****   while (READ_BIT(RCC->CR, RCC_CR_PLLRDY) != RESET)
 153              		.loc 1 257 9
 154 00b8 08E0     		b	.L9
 155              	.L10:
 258:Drivers/STM32F7xx_HAL_Driver/Src/stm32f7xx_hal_rcc.c ****   {
 259:Drivers/STM32F7xx_HAL_Driver/Src/stm32f7xx_hal_rcc.c ****     if ((HAL_GetTick() - tickstart) > PLL_TIMEOUT_VALUE)
 156              		.loc 1 259 10
 157 00ba FFF7FEFF 		bl	HAL_GetTick
 158 00be 0246     		mov	r2, r0
 159              		.loc 1 259 24
 160 00c0 7B68     		ldr	r3, [r7, #4]
 161 00c2 D31A     		subs	r3, r2, r3
 162              		.loc 1 259 8
 163 00c4 022B     		cmp	r3, #2
 164 00c6 01D9     		bls	.L9
 260:Drivers/STM32F7xx_HAL_Driver/Src/stm32f7xx_hal_rcc.c ****     {
 261:Drivers/STM32F7xx_HAL_Driver/Src/stm32f7xx_hal_rcc.c ****       return HAL_TIMEOUT;
 165              		.loc 1 261 14
 166 00c8 0323     		movs	r3, #3
 167 00ca 68E0     		b	.L3
 168              	.L9:
 257:Drivers/STM32F7xx_HAL_Driver/Src/stm32f7xx_hal_rcc.c ****   {
 169              		.loc 1 257 10
 170 00cc 364B     		ldr	r3, .L16
 171 00ce 1B68     		ldr	r3, [r3]
 172 00d0 03F00073 		and	r3, r3, #33554432
 257:Drivers/STM32F7xx_HAL_Driver/Src/stm32f7xx_hal_rcc.c ****   {
 173              		.loc 1 257 9
 174 00d4 002B     		cmp	r3, #0
 175 00d6 F0D1     		bne	.L10
 262:Drivers/STM32F7xx_HAL_Driver/Src/stm32f7xx_hal_rcc.c ****     }
 263:Drivers/STM32F7xx_HAL_Driver/Src/stm32f7xx_hal_rcc.c ****   }
 264:Drivers/STM32F7xx_HAL_Driver/Src/stm32f7xx_hal_rcc.c **** 
 265:Drivers/STM32F7xx_HAL_Driver/Src/stm32f7xx_hal_rcc.c ****   /* Get Start Tick */
 266:Drivers/STM32F7xx_HAL_Driver/Src/stm32f7xx_hal_rcc.c ****   tickstart = HAL_GetTick();
 176              		.loc 1 266 15
 177 00d8 FFF7FEFF 		bl	HAL_GetTick
 178 00dc 7860     		str	r0, [r7, #4]
 267:Drivers/STM32F7xx_HAL_Driver/Src/stm32f7xx_hal_rcc.c **** 
 268:Drivers/STM32F7xx_HAL_Driver/Src/stm32f7xx_hal_rcc.c ****   /* Reset PLLI2SON bit */
 269:Drivers/STM32F7xx_HAL_Driver/Src/stm32f7xx_hal_rcc.c ****   CLEAR_BIT(RCC->CR, RCC_CR_PLLI2SON);
 179              		.loc 1 269 3
 180 00de 324B     		ldr	r3, .L16
ARM GAS  /tmp/ccop1lUE.s 			page 9


 181 00e0 1B68     		ldr	r3, [r3]
 182 00e2 314A     		ldr	r2, .L16
 183 00e4 23F08063 		bic	r3, r3, #67108864
 184 00e8 1360     		str	r3, [r2]
 270:Drivers/STM32F7xx_HAL_Driver/Src/stm32f7xx_hal_rcc.c **** 
 271:Drivers/STM32F7xx_HAL_Driver/Src/stm32f7xx_hal_rcc.c ****   /* Wait till PLLI2S is disabled */
 272:Drivers/STM32F7xx_HAL_Driver/Src/stm32f7xx_hal_rcc.c ****   while (READ_BIT(RCC->CR, RCC_CR_PLLI2SRDY) != RESET)
 185              		.loc 1 272 9
 186 00ea 08E0     		b	.L11
 187              	.L12:
 273:Drivers/STM32F7xx_HAL_Driver/Src/stm32f7xx_hal_rcc.c ****   {
 274:Drivers/STM32F7xx_HAL_Driver/Src/stm32f7xx_hal_rcc.c ****     if ((HAL_GetTick() - tickstart) > PLLI2S_TIMEOUT_VALUE)
 188              		.loc 1 274 10
 189 00ec FFF7FEFF 		bl	HAL_GetTick
 190 00f0 0246     		mov	r2, r0
 191              		.loc 1 274 24
 192 00f2 7B68     		ldr	r3, [r7, #4]
 193 00f4 D31A     		subs	r3, r2, r3
 194              		.loc 1 274 8
 195 00f6 642B     		cmp	r3, #100
 196 00f8 01D9     		bls	.L11
 275:Drivers/STM32F7xx_HAL_Driver/Src/stm32f7xx_hal_rcc.c ****     {
 276:Drivers/STM32F7xx_HAL_Driver/Src/stm32f7xx_hal_rcc.c ****       return HAL_TIMEOUT;
 197              		.loc 1 276 14
 198 00fa 0323     		movs	r3, #3
 199 00fc 4FE0     		b	.L3
 200              	.L11:
 272:Drivers/STM32F7xx_HAL_Driver/Src/stm32f7xx_hal_rcc.c ****   {
 201              		.loc 1 272 10
 202 00fe 2A4B     		ldr	r3, .L16
 203 0100 1B68     		ldr	r3, [r3]
 204 0102 03F00063 		and	r3, r3, #134217728
 272:Drivers/STM32F7xx_HAL_Driver/Src/stm32f7xx_hal_rcc.c ****   {
 205              		.loc 1 272 9
 206 0106 002B     		cmp	r3, #0
 207 0108 F0D1     		bne	.L12
 277:Drivers/STM32F7xx_HAL_Driver/Src/stm32f7xx_hal_rcc.c ****     }
 278:Drivers/STM32F7xx_HAL_Driver/Src/stm32f7xx_hal_rcc.c ****   }
 279:Drivers/STM32F7xx_HAL_Driver/Src/stm32f7xx_hal_rcc.c **** 
 280:Drivers/STM32F7xx_HAL_Driver/Src/stm32f7xx_hal_rcc.c ****   /* Get Start Tick */
 281:Drivers/STM32F7xx_HAL_Driver/Src/stm32f7xx_hal_rcc.c ****   tickstart = HAL_GetTick();
 208              		.loc 1 281 15
 209 010a FFF7FEFF 		bl	HAL_GetTick
 210 010e 7860     		str	r0, [r7, #4]
 282:Drivers/STM32F7xx_HAL_Driver/Src/stm32f7xx_hal_rcc.c **** 
 283:Drivers/STM32F7xx_HAL_Driver/Src/stm32f7xx_hal_rcc.c ****   /* Reset PLLSAI bit */
 284:Drivers/STM32F7xx_HAL_Driver/Src/stm32f7xx_hal_rcc.c ****   CLEAR_BIT(RCC->CR, RCC_CR_PLLSAION);
 211              		.loc 1 284 3
 212 0110 254B     		ldr	r3, .L16
 213 0112 1B68     		ldr	r3, [r3]
 214 0114 244A     		ldr	r2, .L16
 215 0116 23F08053 		bic	r3, r3, #268435456
 216 011a 1360     		str	r3, [r2]
 285:Drivers/STM32F7xx_HAL_Driver/Src/stm32f7xx_hal_rcc.c **** 
 286:Drivers/STM32F7xx_HAL_Driver/Src/stm32f7xx_hal_rcc.c ****   /* Wait till PLLSAI is disabled */
 287:Drivers/STM32F7xx_HAL_Driver/Src/stm32f7xx_hal_rcc.c ****   while (READ_BIT(RCC->CR, RCC_CR_PLLSAIRDY) != RESET)
 217              		.loc 1 287 9
ARM GAS  /tmp/ccop1lUE.s 			page 10


 218 011c 08E0     		b	.L13
 219              	.L14:
 288:Drivers/STM32F7xx_HAL_Driver/Src/stm32f7xx_hal_rcc.c ****   {
 289:Drivers/STM32F7xx_HAL_Driver/Src/stm32f7xx_hal_rcc.c ****     if ((HAL_GetTick() - tickstart) > PLLSAI_TIMEOUT_VALUE)
 220              		.loc 1 289 10
 221 011e FFF7FEFF 		bl	HAL_GetTick
 222 0122 0246     		mov	r2, r0
 223              		.loc 1 289 24
 224 0124 7B68     		ldr	r3, [r7, #4]
 225 0126 D31A     		subs	r3, r2, r3
 226              		.loc 1 289 8
 227 0128 642B     		cmp	r3, #100
 228 012a 01D9     		bls	.L13
 290:Drivers/STM32F7xx_HAL_Driver/Src/stm32f7xx_hal_rcc.c ****     {
 291:Drivers/STM32F7xx_HAL_Driver/Src/stm32f7xx_hal_rcc.c ****       return HAL_TIMEOUT;
 229              		.loc 1 291 14
 230 012c 0323     		movs	r3, #3
 231 012e 36E0     		b	.L3
 232              	.L13:
 287:Drivers/STM32F7xx_HAL_Driver/Src/stm32f7xx_hal_rcc.c ****   {
 233              		.loc 1 287 10
 234 0130 1D4B     		ldr	r3, .L16
 235 0132 1B68     		ldr	r3, [r3]
 236 0134 03F00053 		and	r3, r3, #536870912
 287:Drivers/STM32F7xx_HAL_Driver/Src/stm32f7xx_hal_rcc.c ****   {
 237              		.loc 1 287 9
 238 0138 002B     		cmp	r3, #0
 239 013a F0D1     		bne	.L14
 292:Drivers/STM32F7xx_HAL_Driver/Src/stm32f7xx_hal_rcc.c ****     }
 293:Drivers/STM32F7xx_HAL_Driver/Src/stm32f7xx_hal_rcc.c ****   }
 294:Drivers/STM32F7xx_HAL_Driver/Src/stm32f7xx_hal_rcc.c **** 
 295:Drivers/STM32F7xx_HAL_Driver/Src/stm32f7xx_hal_rcc.c ****   /* Once PLL, PLLI2S and PLLSAI are OFF, reset PLLCFGR register to default value */
 296:Drivers/STM32F7xx_HAL_Driver/Src/stm32f7xx_hal_rcc.c ****   RCC->PLLCFGR = RCC_PLLCFGR_PLLM_4 | RCC_PLLCFGR_PLLN_6 | RCC_PLLCFGR_PLLN_7 | RCC_PLLCFGR_PLLQ_2 
 240              		.loc 1 296 6
 241 013c 1A4B     		ldr	r3, .L16
 242              		.loc 1 296 16
 243 013e 1B4A     		ldr	r2, .L16+4
 244 0140 5A60     		str	r2, [r3, #4]
 297:Drivers/STM32F7xx_HAL_Driver/Src/stm32f7xx_hal_rcc.c **** 
 298:Drivers/STM32F7xx_HAL_Driver/Src/stm32f7xx_hal_rcc.c ****   /* Reset PLLI2SCFGR register to default value */
 299:Drivers/STM32F7xx_HAL_Driver/Src/stm32f7xx_hal_rcc.c ****   RCC->PLLI2SCFGR = RCC_PLLI2SCFGR_PLLI2SN_6 | RCC_PLLI2SCFGR_PLLI2SN_7 | RCC_PLLI2SCFGR_PLLI2SQ_2 
 245              		.loc 1 299 6
 246 0142 194B     		ldr	r3, .L16
 247              		.loc 1 299 19
 248 0144 1A4A     		ldr	r2, .L16+8
 249 0146 C3F88420 		str	r2, [r3, #132]
 300:Drivers/STM32F7xx_HAL_Driver/Src/stm32f7xx_hal_rcc.c **** 
 301:Drivers/STM32F7xx_HAL_Driver/Src/stm32f7xx_hal_rcc.c ****   /* Reset PLLSAICFGR register to default value */
 302:Drivers/STM32F7xx_HAL_Driver/Src/stm32f7xx_hal_rcc.c ****   RCC->PLLSAICFGR = RCC_PLLSAICFGR_PLLSAIN_6 | RCC_PLLSAICFGR_PLLSAIN_7 | RCC_PLLSAICFGR_PLLSAIQ_2 
 250              		.loc 1 302 6
 251 014a 174B     		ldr	r3, .L16
 252              		.loc 1 302 19
 253 014c 184A     		ldr	r2, .L16+8
 254 014e C3F88820 		str	r2, [r3, #136]
 303:Drivers/STM32F7xx_HAL_Driver/Src/stm32f7xx_hal_rcc.c **** 
 304:Drivers/STM32F7xx_HAL_Driver/Src/stm32f7xx_hal_rcc.c ****   /* Disable all interrupts */
 305:Drivers/STM32F7xx_HAL_Driver/Src/stm32f7xx_hal_rcc.c ****   CLEAR_BIT(RCC->CIR, RCC_CIR_LSIRDYIE | RCC_CIR_LSERDYIE | RCC_CIR_HSIRDYIE | RCC_CIR_HSERDYIE | R
ARM GAS  /tmp/ccop1lUE.s 			page 11


 255              		.loc 1 305 3
 256 0152 154B     		ldr	r3, .L16
 257 0154 DB68     		ldr	r3, [r3, #12]
 258 0156 144A     		ldr	r2, .L16
 259 0158 23F4FE43 		bic	r3, r3, #32512
 260 015c D360     		str	r3, [r2, #12]
 306:Drivers/STM32F7xx_HAL_Driver/Src/stm32f7xx_hal_rcc.c **** 
 307:Drivers/STM32F7xx_HAL_Driver/Src/stm32f7xx_hal_rcc.c ****   /* Clear all interrupt flags */
 308:Drivers/STM32F7xx_HAL_Driver/Src/stm32f7xx_hal_rcc.c ****   SET_BIT(RCC->CIR, RCC_CIR_LSIRDYC | RCC_CIR_LSERDYC | RCC_CIR_HSIRDYC | RCC_CIR_HSERDYC | RCC_CIR
 261              		.loc 1 308 3
 262 015e 124B     		ldr	r3, .L16
 263 0160 DB68     		ldr	r3, [r3, #12]
 264 0162 114A     		ldr	r2, .L16
 265 0164 43F47F03 		orr	r3, r3, #16711680
 266 0168 D360     		str	r3, [r2, #12]
 309:Drivers/STM32F7xx_HAL_Driver/Src/stm32f7xx_hal_rcc.c **** 
 310:Drivers/STM32F7xx_HAL_Driver/Src/stm32f7xx_hal_rcc.c ****   /* Clear LSION bit */
 311:Drivers/STM32F7xx_HAL_Driver/Src/stm32f7xx_hal_rcc.c ****   CLEAR_BIT(RCC->CSR, RCC_CSR_LSION);
 267              		.loc 1 311 3
 268 016a 0F4B     		ldr	r3, .L16
 269 016c 5B6F     		ldr	r3, [r3, #116]
 270 016e 0E4A     		ldr	r2, .L16
 271 0170 23F00103 		bic	r3, r3, #1
 272 0174 5367     		str	r3, [r2, #116]
 312:Drivers/STM32F7xx_HAL_Driver/Src/stm32f7xx_hal_rcc.c **** 
 313:Drivers/STM32F7xx_HAL_Driver/Src/stm32f7xx_hal_rcc.c ****   /* Reset all CSR flags */
 314:Drivers/STM32F7xx_HAL_Driver/Src/stm32f7xx_hal_rcc.c ****   SET_BIT(RCC->CSR, RCC_CSR_RMVF);
 273              		.loc 1 314 3
 274 0176 0C4B     		ldr	r3, .L16
 275 0178 5B6F     		ldr	r3, [r3, #116]
 276 017a 0B4A     		ldr	r2, .L16
 277 017c 43F08073 		orr	r3, r3, #16777216
 278 0180 5367     		str	r3, [r2, #116]
 315:Drivers/STM32F7xx_HAL_Driver/Src/stm32f7xx_hal_rcc.c **** 
 316:Drivers/STM32F7xx_HAL_Driver/Src/stm32f7xx_hal_rcc.c ****   /* Update the SystemCoreClock global variable */
 317:Drivers/STM32F7xx_HAL_Driver/Src/stm32f7xx_hal_rcc.c ****   SystemCoreClock = HSI_VALUE;
 279              		.loc 1 317 19
 280 0182 0C4B     		ldr	r3, .L16+12
 281 0184 0C4A     		ldr	r2, .L16+16
 282 0186 1A60     		str	r2, [r3]
 318:Drivers/STM32F7xx_HAL_Driver/Src/stm32f7xx_hal_rcc.c **** 
 319:Drivers/STM32F7xx_HAL_Driver/Src/stm32f7xx_hal_rcc.c ****   /* Adapt Systick interrupt period */
 320:Drivers/STM32F7xx_HAL_Driver/Src/stm32f7xx_hal_rcc.c ****   if (HAL_InitTick(uwTickPrio) != HAL_OK)
 283              		.loc 1 320 7
 284 0188 0C4B     		ldr	r3, .L16+20
 285 018a 1B68     		ldr	r3, [r3]
 286 018c 1846     		mov	r0, r3
 287 018e FFF7FEFF 		bl	HAL_InitTick
 288 0192 0346     		mov	r3, r0
 289              		.loc 1 320 6
 290 0194 002B     		cmp	r3, #0
 291 0196 01D0     		beq	.L15
 321:Drivers/STM32F7xx_HAL_Driver/Src/stm32f7xx_hal_rcc.c ****   {
 322:Drivers/STM32F7xx_HAL_Driver/Src/stm32f7xx_hal_rcc.c ****     return HAL_ERROR;
 292              		.loc 1 322 12
 293 0198 0123     		movs	r3, #1
 294 019a 00E0     		b	.L3
ARM GAS  /tmp/ccop1lUE.s 			page 12


 295              	.L15:
 323:Drivers/STM32F7xx_HAL_Driver/Src/stm32f7xx_hal_rcc.c ****   }
 324:Drivers/STM32F7xx_HAL_Driver/Src/stm32f7xx_hal_rcc.c ****   else
 325:Drivers/STM32F7xx_HAL_Driver/Src/stm32f7xx_hal_rcc.c ****   {
 326:Drivers/STM32F7xx_HAL_Driver/Src/stm32f7xx_hal_rcc.c ****     return HAL_OK;
 296              		.loc 1 326 12
 297 019c 0023     		movs	r3, #0
 298              	.L3:
 327:Drivers/STM32F7xx_HAL_Driver/Src/stm32f7xx_hal_rcc.c ****   }
 328:Drivers/STM32F7xx_HAL_Driver/Src/stm32f7xx_hal_rcc.c **** }
 299              		.loc 1 328 1
 300 019e 1846     		mov	r0, r3
 301 01a0 0837     		adds	r7, r7, #8
 302              	.LCFI3:
 303              		.cfi_def_cfa_offset 8
 304 01a2 BD46     		mov	sp, r7
 305              	.LCFI4:
 306              		.cfi_def_cfa_register 13
 307              		@ sp needed
 308 01a4 80BD     		pop	{r7, pc}
 309              	.L17:
 310 01a6 00BF     		.align	2
 311              	.L16:
 312 01a8 00380240 		.word	1073887232
 313 01ac 10300024 		.word	603992080
 314 01b0 00300024 		.word	603992064
 315 01b4 00000000 		.word	SystemCoreClock
 316 01b8 0024F400 		.word	16000000
 317 01bc 00000000 		.word	uwTickPrio
 318              		.cfi_endproc
 319              	.LFE141:
 321              		.section	.text.HAL_RCC_OscConfig,"ax",%progbits
 322              		.align	1
 323              		.global	HAL_RCC_OscConfig
 324              		.syntax unified
 325              		.thumb
 326              		.thumb_func
 327              		.fpu fpv5-d16
 329              	HAL_RCC_OscConfig:
 330              	.LFB142:
 329:Drivers/STM32F7xx_HAL_Driver/Src/stm32f7xx_hal_rcc.c **** 
 330:Drivers/STM32F7xx_HAL_Driver/Src/stm32f7xx_hal_rcc.c **** /**
 331:Drivers/STM32F7xx_HAL_Driver/Src/stm32f7xx_hal_rcc.c ****   * @brief  Initializes the RCC Oscillators according to the specified parameters in the
 332:Drivers/STM32F7xx_HAL_Driver/Src/stm32f7xx_hal_rcc.c ****   *         RCC_OscInitTypeDef.
 333:Drivers/STM32F7xx_HAL_Driver/Src/stm32f7xx_hal_rcc.c ****   * @param  RCC_OscInitStruct pointer to an RCC_OscInitTypeDef structure that
 334:Drivers/STM32F7xx_HAL_Driver/Src/stm32f7xx_hal_rcc.c ****   *         contains the configuration information for the RCC Oscillators.
 335:Drivers/STM32F7xx_HAL_Driver/Src/stm32f7xx_hal_rcc.c ****   * @note   The PLL is not disabled when used as system clock.
 336:Drivers/STM32F7xx_HAL_Driver/Src/stm32f7xx_hal_rcc.c ****   * @note   Transitions LSE Bypass to LSE On and LSE On to LSE Bypass are not
 337:Drivers/STM32F7xx_HAL_Driver/Src/stm32f7xx_hal_rcc.c ****   *         supported by this function. User should request a transition to LSE Off
 338:Drivers/STM32F7xx_HAL_Driver/Src/stm32f7xx_hal_rcc.c ****   *         first and then LSE On or LSE Bypass.
 339:Drivers/STM32F7xx_HAL_Driver/Src/stm32f7xx_hal_rcc.c ****   * @note   Transition HSE Bypass to HSE On and HSE On to HSE Bypass are not
 340:Drivers/STM32F7xx_HAL_Driver/Src/stm32f7xx_hal_rcc.c ****   *         supported by this function. User should request a transition to HSE Off
 341:Drivers/STM32F7xx_HAL_Driver/Src/stm32f7xx_hal_rcc.c ****   *         first and then HSE On or HSE Bypass.
 342:Drivers/STM32F7xx_HAL_Driver/Src/stm32f7xx_hal_rcc.c ****   * @retval HAL status
 343:Drivers/STM32F7xx_HAL_Driver/Src/stm32f7xx_hal_rcc.c ****   */
 344:Drivers/STM32F7xx_HAL_Driver/Src/stm32f7xx_hal_rcc.c **** HAL_StatusTypeDef HAL_RCC_OscConfig(RCC_OscInitTypeDef  *RCC_OscInitStruct)
 345:Drivers/STM32F7xx_HAL_Driver/Src/stm32f7xx_hal_rcc.c **** {
ARM GAS  /tmp/ccop1lUE.s 			page 13


 331              		.loc 1 345 1
 332              		.cfi_startproc
 333              		@ args = 0, pretend = 0, frame = 24
 334              		@ frame_needed = 1, uses_anonymous_args = 0
 335 0000 80B5     		push	{r7, lr}
 336              	.LCFI5:
 337              		.cfi_def_cfa_offset 8
 338              		.cfi_offset 7, -8
 339              		.cfi_offset 14, -4
 340 0002 86B0     		sub	sp, sp, #24
 341              	.LCFI6:
 342              		.cfi_def_cfa_offset 32
 343 0004 00AF     		add	r7, sp, #0
 344              	.LCFI7:
 345              		.cfi_def_cfa_register 7
 346 0006 7860     		str	r0, [r7, #4]
 346:Drivers/STM32F7xx_HAL_Driver/Src/stm32f7xx_hal_rcc.c ****   uint32_t tickstart;
 347:Drivers/STM32F7xx_HAL_Driver/Src/stm32f7xx_hal_rcc.c ****   uint32_t pll_config;
 348:Drivers/STM32F7xx_HAL_Driver/Src/stm32f7xx_hal_rcc.c ****   FlagStatus pwrclkchanged = RESET;
 347              		.loc 1 348 14
 348 0008 0023     		movs	r3, #0
 349 000a FB75     		strb	r3, [r7, #23]
 349:Drivers/STM32F7xx_HAL_Driver/Src/stm32f7xx_hal_rcc.c **** 
 350:Drivers/STM32F7xx_HAL_Driver/Src/stm32f7xx_hal_rcc.c ****   /* Check Null pointer */
 351:Drivers/STM32F7xx_HAL_Driver/Src/stm32f7xx_hal_rcc.c ****   if (RCC_OscInitStruct == NULL)
 350              		.loc 1 351 6
 351 000c 7B68     		ldr	r3, [r7, #4]
 352 000e 002B     		cmp	r3, #0
 353 0010 01D1     		bne	.L19
 352:Drivers/STM32F7xx_HAL_Driver/Src/stm32f7xx_hal_rcc.c ****   {
 353:Drivers/STM32F7xx_HAL_Driver/Src/stm32f7xx_hal_rcc.c ****     return HAL_ERROR;
 354              		.loc 1 353 12
 355 0012 0123     		movs	r3, #1
 356 0014 9BE2     		b	.L20
 357              	.L19:
 354:Drivers/STM32F7xx_HAL_Driver/Src/stm32f7xx_hal_rcc.c ****   }
 355:Drivers/STM32F7xx_HAL_Driver/Src/stm32f7xx_hal_rcc.c **** 
 356:Drivers/STM32F7xx_HAL_Driver/Src/stm32f7xx_hal_rcc.c ****   /* Check the parameters */
 357:Drivers/STM32F7xx_HAL_Driver/Src/stm32f7xx_hal_rcc.c ****   assert_param(IS_RCC_OSCILLATORTYPE(RCC_OscInitStruct->OscillatorType));
 358:Drivers/STM32F7xx_HAL_Driver/Src/stm32f7xx_hal_rcc.c **** 
 359:Drivers/STM32F7xx_HAL_Driver/Src/stm32f7xx_hal_rcc.c ****   /*------------------------------- HSE Configuration ------------------------*/
 360:Drivers/STM32F7xx_HAL_Driver/Src/stm32f7xx_hal_rcc.c ****   if (((RCC_OscInitStruct->OscillatorType) & RCC_OSCILLATORTYPE_HSE) == RCC_OSCILLATORTYPE_HSE)
 358              		.loc 1 360 26
 359 0016 7B68     		ldr	r3, [r7, #4]
 360 0018 1B68     		ldr	r3, [r3]
 361              		.loc 1 360 44
 362 001a 03F00103 		and	r3, r3, #1
 363              		.loc 1 360 6
 364 001e 002B     		cmp	r3, #0
 365 0020 00F08780 		beq	.L21
 361:Drivers/STM32F7xx_HAL_Driver/Src/stm32f7xx_hal_rcc.c ****   {
 362:Drivers/STM32F7xx_HAL_Driver/Src/stm32f7xx_hal_rcc.c ****     /* Check the parameters */
 363:Drivers/STM32F7xx_HAL_Driver/Src/stm32f7xx_hal_rcc.c ****     assert_param(IS_RCC_HSE(RCC_OscInitStruct->HSEState));
 364:Drivers/STM32F7xx_HAL_Driver/Src/stm32f7xx_hal_rcc.c ****     /* When the HSE is used as system clock or clock source for PLL, It can not be disabled */
 365:Drivers/STM32F7xx_HAL_Driver/Src/stm32f7xx_hal_rcc.c ****     if ((__HAL_RCC_GET_SYSCLK_SOURCE() == RCC_SYSCLKSOURCE_STATUS_HSE)
 366              		.loc 1 365 10
 367 0024 964B     		ldr	r3, .L75
ARM GAS  /tmp/ccop1lUE.s 			page 14


 368 0026 9B68     		ldr	r3, [r3, #8]
 369 0028 03F00C03 		and	r3, r3, #12
 370              		.loc 1 365 8
 371 002c 042B     		cmp	r3, #4
 372 002e 0CD0     		beq	.L22
 366:Drivers/STM32F7xx_HAL_Driver/Src/stm32f7xx_hal_rcc.c ****         || ((__HAL_RCC_GET_SYSCLK_SOURCE() == RCC_SYSCLKSOURCE_STATUS_PLLCLK) && ((RCC->PLLCFGR & R
 373              		.loc 1 366 14
 374 0030 934B     		ldr	r3, .L75
 375 0032 9B68     		ldr	r3, [r3, #8]
 376 0034 03F00C03 		and	r3, r3, #12
 377              		.loc 1 366 9
 378 0038 082B     		cmp	r3, #8
 379 003a 12D1     		bne	.L23
 380              		.loc 1 366 87 discriminator 1
 381 003c 904B     		ldr	r3, .L75
 382 003e 5B68     		ldr	r3, [r3, #4]
 383              		.loc 1 366 97 discriminator 1
 384 0040 03F48003 		and	r3, r3, #4194304
 385              		.loc 1 366 79 discriminator 1
 386 0044 B3F5800F 		cmp	r3, #4194304
 387 0048 0BD1     		bne	.L23
 388              	.L22:
 367:Drivers/STM32F7xx_HAL_Driver/Src/stm32f7xx_hal_rcc.c ****     {
 368:Drivers/STM32F7xx_HAL_Driver/Src/stm32f7xx_hal_rcc.c ****       if ((__HAL_RCC_GET_FLAG(RCC_FLAG_HSERDY) != RESET) && (RCC_OscInitStruct->HSEState == RCC_HSE
 389              		.loc 1 368 12
 390 004a 8D4B     		ldr	r3, .L75
 391 004c 1B68     		ldr	r3, [r3]
 392 004e 03F40033 		and	r3, r3, #131072
 393              		.loc 1 368 10
 394 0052 002B     		cmp	r3, #0
 395 0054 6CD0     		beq	.L74
 396              		.loc 1 368 79 discriminator 1
 397 0056 7B68     		ldr	r3, [r7, #4]
 398 0058 5B68     		ldr	r3, [r3, #4]
 399              		.loc 1 368 58 discriminator 1
 400 005a 002B     		cmp	r3, #0
 401 005c 68D1     		bne	.L74
 369:Drivers/STM32F7xx_HAL_Driver/Src/stm32f7xx_hal_rcc.c ****       {
 370:Drivers/STM32F7xx_HAL_Driver/Src/stm32f7xx_hal_rcc.c ****         return HAL_ERROR;
 402              		.loc 1 370 16
 403 005e 0123     		movs	r3, #1
 404 0060 75E2     		b	.L20
 405              	.L23:
 371:Drivers/STM32F7xx_HAL_Driver/Src/stm32f7xx_hal_rcc.c ****       }
 372:Drivers/STM32F7xx_HAL_Driver/Src/stm32f7xx_hal_rcc.c ****     }
 373:Drivers/STM32F7xx_HAL_Driver/Src/stm32f7xx_hal_rcc.c ****     else
 374:Drivers/STM32F7xx_HAL_Driver/Src/stm32f7xx_hal_rcc.c ****     {
 375:Drivers/STM32F7xx_HAL_Driver/Src/stm32f7xx_hal_rcc.c ****       /* Set the new HSE configuration ---------------------------------------*/
 376:Drivers/STM32F7xx_HAL_Driver/Src/stm32f7xx_hal_rcc.c ****       __HAL_RCC_HSE_CONFIG(RCC_OscInitStruct->HSEState);
 406              		.loc 1 376 7
 407 0062 7B68     		ldr	r3, [r7, #4]
 408 0064 5B68     		ldr	r3, [r3, #4]
 409 0066 B3F5803F 		cmp	r3, #65536
 410 006a 06D1     		bne	.L25
 411              		.loc 1 376 7 is_stmt 0 discriminator 1
 412 006c 844B     		ldr	r3, .L75
 413 006e 1B68     		ldr	r3, [r3]
ARM GAS  /tmp/ccop1lUE.s 			page 15


 414 0070 834A     		ldr	r2, .L75
 415 0072 43F48033 		orr	r3, r3, #65536
 416 0076 1360     		str	r3, [r2]
 417 0078 2EE0     		b	.L26
 418              	.L25:
 419              		.loc 1 376 7 discriminator 2
 420 007a 7B68     		ldr	r3, [r7, #4]
 421 007c 5B68     		ldr	r3, [r3, #4]
 422 007e 002B     		cmp	r3, #0
 423 0080 0CD1     		bne	.L27
 424              		.loc 1 376 7 discriminator 3
 425 0082 7F4B     		ldr	r3, .L75
 426 0084 1B68     		ldr	r3, [r3]
 427 0086 7E4A     		ldr	r2, .L75
 428 0088 23F48033 		bic	r3, r3, #65536
 429 008c 1360     		str	r3, [r2]
 430 008e 7C4B     		ldr	r3, .L75
 431 0090 1B68     		ldr	r3, [r3]
 432 0092 7B4A     		ldr	r2, .L75
 433 0094 23F48023 		bic	r3, r3, #262144
 434 0098 1360     		str	r3, [r2]
 435 009a 1DE0     		b	.L26
 436              	.L27:
 437              		.loc 1 376 7 discriminator 4
 438 009c 7B68     		ldr	r3, [r7, #4]
 439 009e 5B68     		ldr	r3, [r3, #4]
 440 00a0 B3F5A02F 		cmp	r3, #327680
 441 00a4 0CD1     		bne	.L28
 442              		.loc 1 376 7 discriminator 5
 443 00a6 764B     		ldr	r3, .L75
 444 00a8 1B68     		ldr	r3, [r3]
 445 00aa 754A     		ldr	r2, .L75
 446 00ac 43F48023 		orr	r3, r3, #262144
 447 00b0 1360     		str	r3, [r2]
 448 00b2 734B     		ldr	r3, .L75
 449 00b4 1B68     		ldr	r3, [r3]
 450 00b6 724A     		ldr	r2, .L75
 451 00b8 43F48033 		orr	r3, r3, #65536
 452 00bc 1360     		str	r3, [r2]
 453 00be 0BE0     		b	.L26
 454              	.L28:
 455              		.loc 1 376 7 discriminator 6
 456 00c0 6F4B     		ldr	r3, .L75
 457 00c2 1B68     		ldr	r3, [r3]
 458 00c4 6E4A     		ldr	r2, .L75
 459 00c6 23F48033 		bic	r3, r3, #65536
 460 00ca 1360     		str	r3, [r2]
 461 00cc 6C4B     		ldr	r3, .L75
 462 00ce 1B68     		ldr	r3, [r3]
 463 00d0 6B4A     		ldr	r2, .L75
 464 00d2 23F48023 		bic	r3, r3, #262144
 465 00d6 1360     		str	r3, [r2]
 466              	.L26:
 377:Drivers/STM32F7xx_HAL_Driver/Src/stm32f7xx_hal_rcc.c **** 
 378:Drivers/STM32F7xx_HAL_Driver/Src/stm32f7xx_hal_rcc.c ****       /* Check the HSE State */
 379:Drivers/STM32F7xx_HAL_Driver/Src/stm32f7xx_hal_rcc.c ****       if (RCC_OscInitStruct->HSEState != RCC_HSE_OFF)
 467              		.loc 1 379 28 is_stmt 1
ARM GAS  /tmp/ccop1lUE.s 			page 16


 468 00d8 7B68     		ldr	r3, [r7, #4]
 469 00da 5B68     		ldr	r3, [r3, #4]
 470              		.loc 1 379 10
 471 00dc 002B     		cmp	r3, #0
 472 00de 13D0     		beq	.L29
 380:Drivers/STM32F7xx_HAL_Driver/Src/stm32f7xx_hal_rcc.c ****       {
 381:Drivers/STM32F7xx_HAL_Driver/Src/stm32f7xx_hal_rcc.c ****         /* Get Start Tick*/
 382:Drivers/STM32F7xx_HAL_Driver/Src/stm32f7xx_hal_rcc.c ****         tickstart = HAL_GetTick();
 473              		.loc 1 382 21
 474 00e0 FFF7FEFF 		bl	HAL_GetTick
 475 00e4 3861     		str	r0, [r7, #16]
 383:Drivers/STM32F7xx_HAL_Driver/Src/stm32f7xx_hal_rcc.c **** 
 384:Drivers/STM32F7xx_HAL_Driver/Src/stm32f7xx_hal_rcc.c ****         /* Wait till HSE is ready */
 385:Drivers/STM32F7xx_HAL_Driver/Src/stm32f7xx_hal_rcc.c ****         while (__HAL_RCC_GET_FLAG(RCC_FLAG_HSERDY) == RESET)
 476              		.loc 1 385 15
 477 00e6 08E0     		b	.L30
 478              	.L31:
 386:Drivers/STM32F7xx_HAL_Driver/Src/stm32f7xx_hal_rcc.c ****         {
 387:Drivers/STM32F7xx_HAL_Driver/Src/stm32f7xx_hal_rcc.c ****           if ((HAL_GetTick() - tickstart) > HSE_TIMEOUT_VALUE)
 479              		.loc 1 387 16
 480 00e8 FFF7FEFF 		bl	HAL_GetTick
 481 00ec 0246     		mov	r2, r0
 482              		.loc 1 387 30
 483 00ee 3B69     		ldr	r3, [r7, #16]
 484 00f0 D31A     		subs	r3, r2, r3
 485              		.loc 1 387 14
 486 00f2 642B     		cmp	r3, #100
 487 00f4 01D9     		bls	.L30
 388:Drivers/STM32F7xx_HAL_Driver/Src/stm32f7xx_hal_rcc.c ****           {
 389:Drivers/STM32F7xx_HAL_Driver/Src/stm32f7xx_hal_rcc.c ****             return HAL_TIMEOUT;
 488              		.loc 1 389 20
 489 00f6 0323     		movs	r3, #3
 490 00f8 29E2     		b	.L20
 491              	.L30:
 385:Drivers/STM32F7xx_HAL_Driver/Src/stm32f7xx_hal_rcc.c ****         {
 492              		.loc 1 385 16
 493 00fa 614B     		ldr	r3, .L75
 494 00fc 1B68     		ldr	r3, [r3]
 495 00fe 03F40033 		and	r3, r3, #131072
 385:Drivers/STM32F7xx_HAL_Driver/Src/stm32f7xx_hal_rcc.c ****         {
 496              		.loc 1 385 15
 497 0102 002B     		cmp	r3, #0
 498 0104 F0D0     		beq	.L31
 499 0106 14E0     		b	.L21
 500              	.L29:
 390:Drivers/STM32F7xx_HAL_Driver/Src/stm32f7xx_hal_rcc.c ****           }
 391:Drivers/STM32F7xx_HAL_Driver/Src/stm32f7xx_hal_rcc.c ****         }
 392:Drivers/STM32F7xx_HAL_Driver/Src/stm32f7xx_hal_rcc.c ****       }
 393:Drivers/STM32F7xx_HAL_Driver/Src/stm32f7xx_hal_rcc.c ****       else
 394:Drivers/STM32F7xx_HAL_Driver/Src/stm32f7xx_hal_rcc.c ****       {
 395:Drivers/STM32F7xx_HAL_Driver/Src/stm32f7xx_hal_rcc.c ****         /* Get Start Tick*/
 396:Drivers/STM32F7xx_HAL_Driver/Src/stm32f7xx_hal_rcc.c ****         tickstart = HAL_GetTick();
 501              		.loc 1 396 21
 502 0108 FFF7FEFF 		bl	HAL_GetTick
 503 010c 3861     		str	r0, [r7, #16]
 397:Drivers/STM32F7xx_HAL_Driver/Src/stm32f7xx_hal_rcc.c **** 
 398:Drivers/STM32F7xx_HAL_Driver/Src/stm32f7xx_hal_rcc.c ****         /* Wait till HSE is bypassed or disabled */
ARM GAS  /tmp/ccop1lUE.s 			page 17


 399:Drivers/STM32F7xx_HAL_Driver/Src/stm32f7xx_hal_rcc.c ****         while (__HAL_RCC_GET_FLAG(RCC_FLAG_HSERDY) != RESET)
 504              		.loc 1 399 15
 505 010e 08E0     		b	.L32
 506              	.L33:
 400:Drivers/STM32F7xx_HAL_Driver/Src/stm32f7xx_hal_rcc.c ****         {
 401:Drivers/STM32F7xx_HAL_Driver/Src/stm32f7xx_hal_rcc.c ****           if ((HAL_GetTick() - tickstart) > HSE_TIMEOUT_VALUE)
 507              		.loc 1 401 16
 508 0110 FFF7FEFF 		bl	HAL_GetTick
 509 0114 0246     		mov	r2, r0
 510              		.loc 1 401 30
 511 0116 3B69     		ldr	r3, [r7, #16]
 512 0118 D31A     		subs	r3, r2, r3
 513              		.loc 1 401 14
 514 011a 642B     		cmp	r3, #100
 515 011c 01D9     		bls	.L32
 402:Drivers/STM32F7xx_HAL_Driver/Src/stm32f7xx_hal_rcc.c ****           {
 403:Drivers/STM32F7xx_HAL_Driver/Src/stm32f7xx_hal_rcc.c ****             return HAL_TIMEOUT;
 516              		.loc 1 403 20
 517 011e 0323     		movs	r3, #3
 518 0120 15E2     		b	.L20
 519              	.L32:
 399:Drivers/STM32F7xx_HAL_Driver/Src/stm32f7xx_hal_rcc.c ****         {
 520              		.loc 1 399 16
 521 0122 574B     		ldr	r3, .L75
 522 0124 1B68     		ldr	r3, [r3]
 523 0126 03F40033 		and	r3, r3, #131072
 399:Drivers/STM32F7xx_HAL_Driver/Src/stm32f7xx_hal_rcc.c ****         {
 524              		.loc 1 399 15
 525 012a 002B     		cmp	r3, #0
 526 012c F0D1     		bne	.L33
 527 012e 00E0     		b	.L21
 528              	.L74:
 368:Drivers/STM32F7xx_HAL_Driver/Src/stm32f7xx_hal_rcc.c ****       {
 529              		.loc 1 368 10
 530 0130 00BF     		nop
 531              	.L21:
 404:Drivers/STM32F7xx_HAL_Driver/Src/stm32f7xx_hal_rcc.c ****           }
 405:Drivers/STM32F7xx_HAL_Driver/Src/stm32f7xx_hal_rcc.c ****         }
 406:Drivers/STM32F7xx_HAL_Driver/Src/stm32f7xx_hal_rcc.c ****       }
 407:Drivers/STM32F7xx_HAL_Driver/Src/stm32f7xx_hal_rcc.c ****     }
 408:Drivers/STM32F7xx_HAL_Driver/Src/stm32f7xx_hal_rcc.c ****   }
 409:Drivers/STM32F7xx_HAL_Driver/Src/stm32f7xx_hal_rcc.c ****   /*----------------------------- HSI Configuration --------------------------*/
 410:Drivers/STM32F7xx_HAL_Driver/Src/stm32f7xx_hal_rcc.c ****   if (((RCC_OscInitStruct->OscillatorType) & RCC_OSCILLATORTYPE_HSI) == RCC_OSCILLATORTYPE_HSI)
 532              		.loc 1 410 26
 533 0132 7B68     		ldr	r3, [r7, #4]
 534 0134 1B68     		ldr	r3, [r3]
 535              		.loc 1 410 44
 536 0136 03F00203 		and	r3, r3, #2
 537              		.loc 1 410 6
 538 013a 002B     		cmp	r3, #0
 539 013c 69D0     		beq	.L34
 411:Drivers/STM32F7xx_HAL_Driver/Src/stm32f7xx_hal_rcc.c ****   {
 412:Drivers/STM32F7xx_HAL_Driver/Src/stm32f7xx_hal_rcc.c ****     /* Check the parameters */
 413:Drivers/STM32F7xx_HAL_Driver/Src/stm32f7xx_hal_rcc.c ****     assert_param(IS_RCC_HSI(RCC_OscInitStruct->HSIState));
 414:Drivers/STM32F7xx_HAL_Driver/Src/stm32f7xx_hal_rcc.c ****     assert_param(IS_RCC_CALIBRATION_VALUE(RCC_OscInitStruct->HSICalibrationValue));
 415:Drivers/STM32F7xx_HAL_Driver/Src/stm32f7xx_hal_rcc.c **** 
 416:Drivers/STM32F7xx_HAL_Driver/Src/stm32f7xx_hal_rcc.c ****     /* Check if HSI is used as system clock or as PLL source when PLL is selected as system clock *
ARM GAS  /tmp/ccop1lUE.s 			page 18


 417:Drivers/STM32F7xx_HAL_Driver/Src/stm32f7xx_hal_rcc.c ****     if ((__HAL_RCC_GET_SYSCLK_SOURCE() == RCC_SYSCLKSOURCE_STATUS_HSI)
 540              		.loc 1 417 10
 541 013e 504B     		ldr	r3, .L75
 542 0140 9B68     		ldr	r3, [r3, #8]
 543 0142 03F00C03 		and	r3, r3, #12
 544              		.loc 1 417 8
 545 0146 002B     		cmp	r3, #0
 546 0148 0BD0     		beq	.L35
 418:Drivers/STM32F7xx_HAL_Driver/Src/stm32f7xx_hal_rcc.c ****         || ((__HAL_RCC_GET_SYSCLK_SOURCE() == RCC_SYSCLKSOURCE_STATUS_PLLCLK) && ((RCC->PLLCFGR & R
 547              		.loc 1 418 14
 548 014a 4D4B     		ldr	r3, .L75
 549 014c 9B68     		ldr	r3, [r3, #8]
 550 014e 03F00C03 		and	r3, r3, #12
 551              		.loc 1 418 9
 552 0152 082B     		cmp	r3, #8
 553 0154 1CD1     		bne	.L36
 554              		.loc 1 418 87 discriminator 1
 555 0156 4A4B     		ldr	r3, .L75
 556 0158 5B68     		ldr	r3, [r3, #4]
 557              		.loc 1 418 97 discriminator 1
 558 015a 03F48003 		and	r3, r3, #4194304
 559              		.loc 1 418 79 discriminator 1
 560 015e 002B     		cmp	r3, #0
 561 0160 16D1     		bne	.L36
 562              	.L35:
 419:Drivers/STM32F7xx_HAL_Driver/Src/stm32f7xx_hal_rcc.c ****     {
 420:Drivers/STM32F7xx_HAL_Driver/Src/stm32f7xx_hal_rcc.c ****       /* When HSI is used as system clock it will not disabled */
 421:Drivers/STM32F7xx_HAL_Driver/Src/stm32f7xx_hal_rcc.c ****       if ((__HAL_RCC_GET_FLAG(RCC_FLAG_HSIRDY) != RESET) && (RCC_OscInitStruct->HSIState != RCC_HSI
 563              		.loc 1 421 12
 564 0162 474B     		ldr	r3, .L75
 565 0164 1B68     		ldr	r3, [r3]
 566 0166 03F00203 		and	r3, r3, #2
 567              		.loc 1 421 10
 568 016a 002B     		cmp	r3, #0
 569 016c 05D0     		beq	.L37
 570              		.loc 1 421 79 discriminator 1
 571 016e 7B68     		ldr	r3, [r7, #4]
 572 0170 DB68     		ldr	r3, [r3, #12]
 573              		.loc 1 421 58 discriminator 1
 574 0172 012B     		cmp	r3, #1
 575 0174 01D0     		beq	.L37
 422:Drivers/STM32F7xx_HAL_Driver/Src/stm32f7xx_hal_rcc.c ****       {
 423:Drivers/STM32F7xx_HAL_Driver/Src/stm32f7xx_hal_rcc.c ****         return HAL_ERROR;
 576              		.loc 1 423 16
 577 0176 0123     		movs	r3, #1
 578 0178 E9E1     		b	.L20
 579              	.L37:
 424:Drivers/STM32F7xx_HAL_Driver/Src/stm32f7xx_hal_rcc.c ****       }
 425:Drivers/STM32F7xx_HAL_Driver/Src/stm32f7xx_hal_rcc.c ****       /* Otherwise, just the calibration is allowed */
 426:Drivers/STM32F7xx_HAL_Driver/Src/stm32f7xx_hal_rcc.c ****       else
 427:Drivers/STM32F7xx_HAL_Driver/Src/stm32f7xx_hal_rcc.c ****       {
 428:Drivers/STM32F7xx_HAL_Driver/Src/stm32f7xx_hal_rcc.c ****         /* Adjusts the Internal High Speed oscillator (HSI) calibration value.*/
 429:Drivers/STM32F7xx_HAL_Driver/Src/stm32f7xx_hal_rcc.c ****         __HAL_RCC_HSI_CALIBRATIONVALUE_ADJUST(RCC_OscInitStruct->HSICalibrationValue);
 580              		.loc 1 429 9
 581 017a 414B     		ldr	r3, .L75
 582 017c 1B68     		ldr	r3, [r3]
 583 017e 23F0F802 		bic	r2, r3, #248
ARM GAS  /tmp/ccop1lUE.s 			page 19


 584 0182 7B68     		ldr	r3, [r7, #4]
 585 0184 1B69     		ldr	r3, [r3, #16]
 586 0186 DB00     		lsls	r3, r3, #3
 587 0188 3D49     		ldr	r1, .L75
 588 018a 1343     		orrs	r3, r3, r2
 589 018c 0B60     		str	r3, [r1]
 421:Drivers/STM32F7xx_HAL_Driver/Src/stm32f7xx_hal_rcc.c ****       {
 590              		.loc 1 421 10
 591 018e 40E0     		b	.L34
 592              	.L36:
 430:Drivers/STM32F7xx_HAL_Driver/Src/stm32f7xx_hal_rcc.c ****       }
 431:Drivers/STM32F7xx_HAL_Driver/Src/stm32f7xx_hal_rcc.c ****     }
 432:Drivers/STM32F7xx_HAL_Driver/Src/stm32f7xx_hal_rcc.c ****     else
 433:Drivers/STM32F7xx_HAL_Driver/Src/stm32f7xx_hal_rcc.c ****     {
 434:Drivers/STM32F7xx_HAL_Driver/Src/stm32f7xx_hal_rcc.c ****       /* Check the HSI State */
 435:Drivers/STM32F7xx_HAL_Driver/Src/stm32f7xx_hal_rcc.c ****       if ((RCC_OscInitStruct->HSIState) != RCC_HSI_OFF)
 593              		.loc 1 435 29
 594 0190 7B68     		ldr	r3, [r7, #4]
 595 0192 DB68     		ldr	r3, [r3, #12]
 596              		.loc 1 435 10
 597 0194 002B     		cmp	r3, #0
 598 0196 23D0     		beq	.L38
 436:Drivers/STM32F7xx_HAL_Driver/Src/stm32f7xx_hal_rcc.c ****       {
 437:Drivers/STM32F7xx_HAL_Driver/Src/stm32f7xx_hal_rcc.c ****         /* Enable the Internal High Speed oscillator (HSI). */
 438:Drivers/STM32F7xx_HAL_Driver/Src/stm32f7xx_hal_rcc.c ****         __HAL_RCC_HSI_ENABLE();
 599              		.loc 1 438 9
 600 0198 394B     		ldr	r3, .L75
 601 019a 1B68     		ldr	r3, [r3]
 602 019c 384A     		ldr	r2, .L75
 603 019e 43F00103 		orr	r3, r3, #1
 604 01a2 1360     		str	r3, [r2]
 439:Drivers/STM32F7xx_HAL_Driver/Src/stm32f7xx_hal_rcc.c **** 
 440:Drivers/STM32F7xx_HAL_Driver/Src/stm32f7xx_hal_rcc.c ****         /* Get Start Tick*/
 441:Drivers/STM32F7xx_HAL_Driver/Src/stm32f7xx_hal_rcc.c ****         tickstart = HAL_GetTick();
 605              		.loc 1 441 21
 606 01a4 FFF7FEFF 		bl	HAL_GetTick
 607 01a8 3861     		str	r0, [r7, #16]
 442:Drivers/STM32F7xx_HAL_Driver/Src/stm32f7xx_hal_rcc.c **** 
 443:Drivers/STM32F7xx_HAL_Driver/Src/stm32f7xx_hal_rcc.c ****         /* Wait till HSI is ready */
 444:Drivers/STM32F7xx_HAL_Driver/Src/stm32f7xx_hal_rcc.c ****         while (__HAL_RCC_GET_FLAG(RCC_FLAG_HSIRDY) == RESET)
 608              		.loc 1 444 15
 609 01aa 08E0     		b	.L39
 610              	.L40:
 445:Drivers/STM32F7xx_HAL_Driver/Src/stm32f7xx_hal_rcc.c ****         {
 446:Drivers/STM32F7xx_HAL_Driver/Src/stm32f7xx_hal_rcc.c ****           if ((HAL_GetTick() - tickstart) > HSI_TIMEOUT_VALUE)
 611              		.loc 1 446 16
 612 01ac FFF7FEFF 		bl	HAL_GetTick
 613 01b0 0246     		mov	r2, r0
 614              		.loc 1 446 30
 615 01b2 3B69     		ldr	r3, [r7, #16]
 616 01b4 D31A     		subs	r3, r2, r3
 617              		.loc 1 446 14
 618 01b6 022B     		cmp	r3, #2
 619 01b8 01D9     		bls	.L39
 447:Drivers/STM32F7xx_HAL_Driver/Src/stm32f7xx_hal_rcc.c ****           {
 448:Drivers/STM32F7xx_HAL_Driver/Src/stm32f7xx_hal_rcc.c ****             return HAL_TIMEOUT;
 620              		.loc 1 448 20
ARM GAS  /tmp/ccop1lUE.s 			page 20


 621 01ba 0323     		movs	r3, #3
 622 01bc C7E1     		b	.L20
 623              	.L39:
 444:Drivers/STM32F7xx_HAL_Driver/Src/stm32f7xx_hal_rcc.c ****         {
 624              		.loc 1 444 16
 625 01be 304B     		ldr	r3, .L75
 626 01c0 1B68     		ldr	r3, [r3]
 627 01c2 03F00203 		and	r3, r3, #2
 444:Drivers/STM32F7xx_HAL_Driver/Src/stm32f7xx_hal_rcc.c ****         {
 628              		.loc 1 444 15
 629 01c6 002B     		cmp	r3, #0
 630 01c8 F0D0     		beq	.L40
 449:Drivers/STM32F7xx_HAL_Driver/Src/stm32f7xx_hal_rcc.c ****           }
 450:Drivers/STM32F7xx_HAL_Driver/Src/stm32f7xx_hal_rcc.c ****         }
 451:Drivers/STM32F7xx_HAL_Driver/Src/stm32f7xx_hal_rcc.c **** 
 452:Drivers/STM32F7xx_HAL_Driver/Src/stm32f7xx_hal_rcc.c ****         /* Adjusts the Internal High Speed oscillator (HSI) calibration value.*/
 453:Drivers/STM32F7xx_HAL_Driver/Src/stm32f7xx_hal_rcc.c ****         __HAL_RCC_HSI_CALIBRATIONVALUE_ADJUST(RCC_OscInitStruct->HSICalibrationValue);
 631              		.loc 1 453 9
 632 01ca 2D4B     		ldr	r3, .L75
 633 01cc 1B68     		ldr	r3, [r3]
 634 01ce 23F0F802 		bic	r2, r3, #248
 635 01d2 7B68     		ldr	r3, [r7, #4]
 636 01d4 1B69     		ldr	r3, [r3, #16]
 637 01d6 DB00     		lsls	r3, r3, #3
 638 01d8 2949     		ldr	r1, .L75
 639 01da 1343     		orrs	r3, r3, r2
 640 01dc 0B60     		str	r3, [r1]
 641 01de 18E0     		b	.L34
 642              	.L38:
 454:Drivers/STM32F7xx_HAL_Driver/Src/stm32f7xx_hal_rcc.c ****       }
 455:Drivers/STM32F7xx_HAL_Driver/Src/stm32f7xx_hal_rcc.c ****       else
 456:Drivers/STM32F7xx_HAL_Driver/Src/stm32f7xx_hal_rcc.c ****       {
 457:Drivers/STM32F7xx_HAL_Driver/Src/stm32f7xx_hal_rcc.c ****         /* Disable the Internal High Speed oscillator (HSI). */
 458:Drivers/STM32F7xx_HAL_Driver/Src/stm32f7xx_hal_rcc.c ****         __HAL_RCC_HSI_DISABLE();
 643              		.loc 1 458 9
 644 01e0 274B     		ldr	r3, .L75
 645 01e2 1B68     		ldr	r3, [r3]
 646 01e4 264A     		ldr	r2, .L75
 647 01e6 23F00103 		bic	r3, r3, #1
 648 01ea 1360     		str	r3, [r2]
 459:Drivers/STM32F7xx_HAL_Driver/Src/stm32f7xx_hal_rcc.c **** 
 460:Drivers/STM32F7xx_HAL_Driver/Src/stm32f7xx_hal_rcc.c ****         /* Get Start Tick*/
 461:Drivers/STM32F7xx_HAL_Driver/Src/stm32f7xx_hal_rcc.c ****         tickstart = HAL_GetTick();
 649              		.loc 1 461 21
 650 01ec FFF7FEFF 		bl	HAL_GetTick
 651 01f0 3861     		str	r0, [r7, #16]
 462:Drivers/STM32F7xx_HAL_Driver/Src/stm32f7xx_hal_rcc.c **** 
 463:Drivers/STM32F7xx_HAL_Driver/Src/stm32f7xx_hal_rcc.c ****         /* Wait till HSI is ready */
 464:Drivers/STM32F7xx_HAL_Driver/Src/stm32f7xx_hal_rcc.c ****         while (__HAL_RCC_GET_FLAG(RCC_FLAG_HSIRDY) != RESET)
 652              		.loc 1 464 15
 653 01f2 08E0     		b	.L41
 654              	.L42:
 465:Drivers/STM32F7xx_HAL_Driver/Src/stm32f7xx_hal_rcc.c ****         {
 466:Drivers/STM32F7xx_HAL_Driver/Src/stm32f7xx_hal_rcc.c ****           if ((HAL_GetTick() - tickstart) > HSI_TIMEOUT_VALUE)
 655              		.loc 1 466 16
 656 01f4 FFF7FEFF 		bl	HAL_GetTick
 657 01f8 0246     		mov	r2, r0
ARM GAS  /tmp/ccop1lUE.s 			page 21


 658              		.loc 1 466 30
 659 01fa 3B69     		ldr	r3, [r7, #16]
 660 01fc D31A     		subs	r3, r2, r3
 661              		.loc 1 466 14
 662 01fe 022B     		cmp	r3, #2
 663 0200 01D9     		bls	.L41
 467:Drivers/STM32F7xx_HAL_Driver/Src/stm32f7xx_hal_rcc.c ****           {
 468:Drivers/STM32F7xx_HAL_Driver/Src/stm32f7xx_hal_rcc.c ****             return HAL_TIMEOUT;
 664              		.loc 1 468 20
 665 0202 0323     		movs	r3, #3
 666 0204 A3E1     		b	.L20
 667              	.L41:
 464:Drivers/STM32F7xx_HAL_Driver/Src/stm32f7xx_hal_rcc.c ****         {
 668              		.loc 1 464 16
 669 0206 1E4B     		ldr	r3, .L75
 670 0208 1B68     		ldr	r3, [r3]
 671 020a 03F00203 		and	r3, r3, #2
 464:Drivers/STM32F7xx_HAL_Driver/Src/stm32f7xx_hal_rcc.c ****         {
 672              		.loc 1 464 15
 673 020e 002B     		cmp	r3, #0
 674 0210 F0D1     		bne	.L42
 675              	.L34:
 469:Drivers/STM32F7xx_HAL_Driver/Src/stm32f7xx_hal_rcc.c ****           }
 470:Drivers/STM32F7xx_HAL_Driver/Src/stm32f7xx_hal_rcc.c ****         }
 471:Drivers/STM32F7xx_HAL_Driver/Src/stm32f7xx_hal_rcc.c ****       }
 472:Drivers/STM32F7xx_HAL_Driver/Src/stm32f7xx_hal_rcc.c ****     }
 473:Drivers/STM32F7xx_HAL_Driver/Src/stm32f7xx_hal_rcc.c ****   }
 474:Drivers/STM32F7xx_HAL_Driver/Src/stm32f7xx_hal_rcc.c ****   /*------------------------------ LSI Configuration -------------------------*/
 475:Drivers/STM32F7xx_HAL_Driver/Src/stm32f7xx_hal_rcc.c ****   if (((RCC_OscInitStruct->OscillatorType) & RCC_OSCILLATORTYPE_LSI) == RCC_OSCILLATORTYPE_LSI)
 676              		.loc 1 475 26
 677 0212 7B68     		ldr	r3, [r7, #4]
 678 0214 1B68     		ldr	r3, [r3]
 679              		.loc 1 475 44
 680 0216 03F00803 		and	r3, r3, #8
 681              		.loc 1 475 6
 682 021a 002B     		cmp	r3, #0
 683 021c 38D0     		beq	.L43
 476:Drivers/STM32F7xx_HAL_Driver/Src/stm32f7xx_hal_rcc.c ****   {
 477:Drivers/STM32F7xx_HAL_Driver/Src/stm32f7xx_hal_rcc.c ****     /* Check the parameters */
 478:Drivers/STM32F7xx_HAL_Driver/Src/stm32f7xx_hal_rcc.c ****     assert_param(IS_RCC_LSI(RCC_OscInitStruct->LSIState));
 479:Drivers/STM32F7xx_HAL_Driver/Src/stm32f7xx_hal_rcc.c **** 
 480:Drivers/STM32F7xx_HAL_Driver/Src/stm32f7xx_hal_rcc.c ****     /* Check the LSI State */
 481:Drivers/STM32F7xx_HAL_Driver/Src/stm32f7xx_hal_rcc.c ****     if ((RCC_OscInitStruct->LSIState) != RCC_LSI_OFF)
 684              		.loc 1 481 27
 685 021e 7B68     		ldr	r3, [r7, #4]
 686 0220 5B69     		ldr	r3, [r3, #20]
 687              		.loc 1 481 8
 688 0222 002B     		cmp	r3, #0
 689 0224 19D0     		beq	.L44
 482:Drivers/STM32F7xx_HAL_Driver/Src/stm32f7xx_hal_rcc.c ****     {
 483:Drivers/STM32F7xx_HAL_Driver/Src/stm32f7xx_hal_rcc.c ****       /* Enable the Internal Low Speed oscillator (LSI). */
 484:Drivers/STM32F7xx_HAL_Driver/Src/stm32f7xx_hal_rcc.c ****       __HAL_RCC_LSI_ENABLE();
 690              		.loc 1 484 7
 691 0226 164B     		ldr	r3, .L75
 692 0228 5B6F     		ldr	r3, [r3, #116]
 693 022a 154A     		ldr	r2, .L75
 694 022c 43F00103 		orr	r3, r3, #1
ARM GAS  /tmp/ccop1lUE.s 			page 22


 695 0230 5367     		str	r3, [r2, #116]
 485:Drivers/STM32F7xx_HAL_Driver/Src/stm32f7xx_hal_rcc.c **** 
 486:Drivers/STM32F7xx_HAL_Driver/Src/stm32f7xx_hal_rcc.c ****       /* Get Start Tick*/
 487:Drivers/STM32F7xx_HAL_Driver/Src/stm32f7xx_hal_rcc.c ****       tickstart = HAL_GetTick();
 696              		.loc 1 487 19
 697 0232 FFF7FEFF 		bl	HAL_GetTick
 698 0236 3861     		str	r0, [r7, #16]
 488:Drivers/STM32F7xx_HAL_Driver/Src/stm32f7xx_hal_rcc.c **** 
 489:Drivers/STM32F7xx_HAL_Driver/Src/stm32f7xx_hal_rcc.c ****       /* Wait till LSI is ready */
 490:Drivers/STM32F7xx_HAL_Driver/Src/stm32f7xx_hal_rcc.c ****       while (__HAL_RCC_GET_FLAG(RCC_FLAG_LSIRDY) == RESET)
 699              		.loc 1 490 13
 700 0238 08E0     		b	.L45
 701              	.L46:
 491:Drivers/STM32F7xx_HAL_Driver/Src/stm32f7xx_hal_rcc.c ****       {
 492:Drivers/STM32F7xx_HAL_Driver/Src/stm32f7xx_hal_rcc.c ****         if ((HAL_GetTick() - tickstart) > LSI_TIMEOUT_VALUE)
 702              		.loc 1 492 14
 703 023a FFF7FEFF 		bl	HAL_GetTick
 704 023e 0246     		mov	r2, r0
 705              		.loc 1 492 28
 706 0240 3B69     		ldr	r3, [r7, #16]
 707 0242 D31A     		subs	r3, r2, r3
 708              		.loc 1 492 12
 709 0244 022B     		cmp	r3, #2
 710 0246 01D9     		bls	.L45
 493:Drivers/STM32F7xx_HAL_Driver/Src/stm32f7xx_hal_rcc.c ****         {
 494:Drivers/STM32F7xx_HAL_Driver/Src/stm32f7xx_hal_rcc.c ****           return HAL_TIMEOUT;
 711              		.loc 1 494 18
 712 0248 0323     		movs	r3, #3
 713 024a 80E1     		b	.L20
 714              	.L45:
 490:Drivers/STM32F7xx_HAL_Driver/Src/stm32f7xx_hal_rcc.c ****       {
 715              		.loc 1 490 14
 716 024c 0C4B     		ldr	r3, .L75
 717 024e 5B6F     		ldr	r3, [r3, #116]
 718 0250 03F00203 		and	r3, r3, #2
 490:Drivers/STM32F7xx_HAL_Driver/Src/stm32f7xx_hal_rcc.c ****       {
 719              		.loc 1 490 13
 720 0254 002B     		cmp	r3, #0
 721 0256 F0D0     		beq	.L46
 722 0258 1AE0     		b	.L43
 723              	.L44:
 495:Drivers/STM32F7xx_HAL_Driver/Src/stm32f7xx_hal_rcc.c ****         }
 496:Drivers/STM32F7xx_HAL_Driver/Src/stm32f7xx_hal_rcc.c ****       }
 497:Drivers/STM32F7xx_HAL_Driver/Src/stm32f7xx_hal_rcc.c ****     }
 498:Drivers/STM32F7xx_HAL_Driver/Src/stm32f7xx_hal_rcc.c ****     else
 499:Drivers/STM32F7xx_HAL_Driver/Src/stm32f7xx_hal_rcc.c ****     {
 500:Drivers/STM32F7xx_HAL_Driver/Src/stm32f7xx_hal_rcc.c ****       /* Disable the Internal Low Speed oscillator (LSI). */
 501:Drivers/STM32F7xx_HAL_Driver/Src/stm32f7xx_hal_rcc.c ****       __HAL_RCC_LSI_DISABLE();
 724              		.loc 1 501 7
 725 025a 094B     		ldr	r3, .L75
 726 025c 5B6F     		ldr	r3, [r3, #116]
 727 025e 084A     		ldr	r2, .L75
 728 0260 23F00103 		bic	r3, r3, #1
 729 0264 5367     		str	r3, [r2, #116]
 502:Drivers/STM32F7xx_HAL_Driver/Src/stm32f7xx_hal_rcc.c **** 
 503:Drivers/STM32F7xx_HAL_Driver/Src/stm32f7xx_hal_rcc.c ****       /* Get Start Tick*/
 504:Drivers/STM32F7xx_HAL_Driver/Src/stm32f7xx_hal_rcc.c ****       tickstart = HAL_GetTick();
ARM GAS  /tmp/ccop1lUE.s 			page 23


 730              		.loc 1 504 19
 731 0266 FFF7FEFF 		bl	HAL_GetTick
 732 026a 3861     		str	r0, [r7, #16]
 505:Drivers/STM32F7xx_HAL_Driver/Src/stm32f7xx_hal_rcc.c **** 
 506:Drivers/STM32F7xx_HAL_Driver/Src/stm32f7xx_hal_rcc.c ****       /* Wait till LSI is ready */
 507:Drivers/STM32F7xx_HAL_Driver/Src/stm32f7xx_hal_rcc.c ****       while (__HAL_RCC_GET_FLAG(RCC_FLAG_LSIRDY) != RESET)
 733              		.loc 1 507 13
 734 026c 0AE0     		b	.L47
 735              	.L48:
 508:Drivers/STM32F7xx_HAL_Driver/Src/stm32f7xx_hal_rcc.c ****       {
 509:Drivers/STM32F7xx_HAL_Driver/Src/stm32f7xx_hal_rcc.c ****         if ((HAL_GetTick() - tickstart) > LSI_TIMEOUT_VALUE)
 736              		.loc 1 509 14
 737 026e FFF7FEFF 		bl	HAL_GetTick
 738 0272 0246     		mov	r2, r0
 739              		.loc 1 509 28
 740 0274 3B69     		ldr	r3, [r7, #16]
 741 0276 D31A     		subs	r3, r2, r3
 742              		.loc 1 509 12
 743 0278 022B     		cmp	r3, #2
 744 027a 03D9     		bls	.L47
 510:Drivers/STM32F7xx_HAL_Driver/Src/stm32f7xx_hal_rcc.c ****         {
 511:Drivers/STM32F7xx_HAL_Driver/Src/stm32f7xx_hal_rcc.c ****           return HAL_TIMEOUT;
 745              		.loc 1 511 18
 746 027c 0323     		movs	r3, #3
 747 027e 66E1     		b	.L20
 748              	.L76:
 749              		.align	2
 750              	.L75:
 751 0280 00380240 		.word	1073887232
 752              	.L47:
 507:Drivers/STM32F7xx_HAL_Driver/Src/stm32f7xx_hal_rcc.c ****       {
 753              		.loc 1 507 14
 754 0284 924B     		ldr	r3, .L77
 755 0286 5B6F     		ldr	r3, [r3, #116]
 756 0288 03F00203 		and	r3, r3, #2
 507:Drivers/STM32F7xx_HAL_Driver/Src/stm32f7xx_hal_rcc.c ****       {
 757              		.loc 1 507 13
 758 028c 002B     		cmp	r3, #0
 759 028e EED1     		bne	.L48
 760              	.L43:
 512:Drivers/STM32F7xx_HAL_Driver/Src/stm32f7xx_hal_rcc.c ****         }
 513:Drivers/STM32F7xx_HAL_Driver/Src/stm32f7xx_hal_rcc.c ****       }
 514:Drivers/STM32F7xx_HAL_Driver/Src/stm32f7xx_hal_rcc.c ****     }
 515:Drivers/STM32F7xx_HAL_Driver/Src/stm32f7xx_hal_rcc.c ****   }
 516:Drivers/STM32F7xx_HAL_Driver/Src/stm32f7xx_hal_rcc.c ****   /*------------------------------ LSE Configuration -------------------------*/
 517:Drivers/STM32F7xx_HAL_Driver/Src/stm32f7xx_hal_rcc.c ****   if (((RCC_OscInitStruct->OscillatorType) & RCC_OSCILLATORTYPE_LSE) == RCC_OSCILLATORTYPE_LSE)
 761              		.loc 1 517 26
 762 0290 7B68     		ldr	r3, [r7, #4]
 763 0292 1B68     		ldr	r3, [r3]
 764              		.loc 1 517 44
 765 0294 03F00403 		and	r3, r3, #4
 766              		.loc 1 517 6
 767 0298 002B     		cmp	r3, #0
 768 029a 00F0A480 		beq	.L49
 518:Drivers/STM32F7xx_HAL_Driver/Src/stm32f7xx_hal_rcc.c ****   {
 519:Drivers/STM32F7xx_HAL_Driver/Src/stm32f7xx_hal_rcc.c ****     /* Check the parameters */
 520:Drivers/STM32F7xx_HAL_Driver/Src/stm32f7xx_hal_rcc.c ****     assert_param(IS_RCC_LSE(RCC_OscInitStruct->LSEState));
ARM GAS  /tmp/ccop1lUE.s 			page 24


 521:Drivers/STM32F7xx_HAL_Driver/Src/stm32f7xx_hal_rcc.c **** 
 522:Drivers/STM32F7xx_HAL_Driver/Src/stm32f7xx_hal_rcc.c ****     /* Update LSE configuration in Backup Domain control register    */
 523:Drivers/STM32F7xx_HAL_Driver/Src/stm32f7xx_hal_rcc.c ****     /* Requires to enable write access to Backup Domain of necessary */
 524:Drivers/STM32F7xx_HAL_Driver/Src/stm32f7xx_hal_rcc.c ****     if (__HAL_RCC_PWR_IS_CLK_DISABLED())
 769              		.loc 1 524 9
 770 029e 8C4B     		ldr	r3, .L77
 771 02a0 1B6C     		ldr	r3, [r3, #64]
 772 02a2 03F08053 		and	r3, r3, #268435456
 773              		.loc 1 524 8
 774 02a6 002B     		cmp	r3, #0
 775 02a8 0DD1     		bne	.L50
 776              	.LBB4:
 525:Drivers/STM32F7xx_HAL_Driver/Src/stm32f7xx_hal_rcc.c ****     {
 526:Drivers/STM32F7xx_HAL_Driver/Src/stm32f7xx_hal_rcc.c ****       /* Enable Power Clock*/
 527:Drivers/STM32F7xx_HAL_Driver/Src/stm32f7xx_hal_rcc.c ****       __HAL_RCC_PWR_CLK_ENABLE();
 777              		.loc 1 527 7
 778 02aa 894B     		ldr	r3, .L77
 779 02ac 1B6C     		ldr	r3, [r3, #64]
 780 02ae 884A     		ldr	r2, .L77
 781 02b0 43F08053 		orr	r3, r3, #268435456
 782 02b4 1364     		str	r3, [r2, #64]
 783 02b6 864B     		ldr	r3, .L77
 784 02b8 1B6C     		ldr	r3, [r3, #64]
 785 02ba 03F08053 		and	r3, r3, #268435456
 786 02be BB60     		str	r3, [r7, #8]
 787 02c0 BB68     		ldr	r3, [r7, #8]
 788              	.LBE4:
 528:Drivers/STM32F7xx_HAL_Driver/Src/stm32f7xx_hal_rcc.c ****       pwrclkchanged = SET;
 789              		.loc 1 528 21
 790 02c2 0123     		movs	r3, #1
 791 02c4 FB75     		strb	r3, [r7, #23]
 792              	.L50:
 529:Drivers/STM32F7xx_HAL_Driver/Src/stm32f7xx_hal_rcc.c ****     }
 530:Drivers/STM32F7xx_HAL_Driver/Src/stm32f7xx_hal_rcc.c **** 
 531:Drivers/STM32F7xx_HAL_Driver/Src/stm32f7xx_hal_rcc.c ****     if (HAL_IS_BIT_CLR(PWR->CR1, PWR_CR1_DBP))
 793              		.loc 1 531 9
 794 02c6 834B     		ldr	r3, .L77+4
 795 02c8 1B68     		ldr	r3, [r3]
 796 02ca 03F48073 		and	r3, r3, #256
 797              		.loc 1 531 8
 798 02ce 002B     		cmp	r3, #0
 799 02d0 18D1     		bne	.L51
 532:Drivers/STM32F7xx_HAL_Driver/Src/stm32f7xx_hal_rcc.c ****     {
 533:Drivers/STM32F7xx_HAL_Driver/Src/stm32f7xx_hal_rcc.c ****       /* Enable write access to Backup domain */
 534:Drivers/STM32F7xx_HAL_Driver/Src/stm32f7xx_hal_rcc.c ****       PWR->CR1 |= PWR_CR1_DBP;
 800              		.loc 1 534 16
 801 02d2 804B     		ldr	r3, .L77+4
 802 02d4 1B68     		ldr	r3, [r3]
 803 02d6 7F4A     		ldr	r2, .L77+4
 804 02d8 43F48073 		orr	r3, r3, #256
 805 02dc 1360     		str	r3, [r2]
 535:Drivers/STM32F7xx_HAL_Driver/Src/stm32f7xx_hal_rcc.c **** 
 536:Drivers/STM32F7xx_HAL_Driver/Src/stm32f7xx_hal_rcc.c ****       /* Wait for Backup domain Write protection disable */
 537:Drivers/STM32F7xx_HAL_Driver/Src/stm32f7xx_hal_rcc.c ****       tickstart = HAL_GetTick();
 806              		.loc 1 537 19
 807 02de FFF7FEFF 		bl	HAL_GetTick
 808 02e2 3861     		str	r0, [r7, #16]
ARM GAS  /tmp/ccop1lUE.s 			page 25


 538:Drivers/STM32F7xx_HAL_Driver/Src/stm32f7xx_hal_rcc.c **** 
 539:Drivers/STM32F7xx_HAL_Driver/Src/stm32f7xx_hal_rcc.c ****       while (HAL_IS_BIT_CLR(PWR->CR1, PWR_CR1_DBP))
 809              		.loc 1 539 13
 810 02e4 08E0     		b	.L52
 811              	.L53:
 540:Drivers/STM32F7xx_HAL_Driver/Src/stm32f7xx_hal_rcc.c ****       {
 541:Drivers/STM32F7xx_HAL_Driver/Src/stm32f7xx_hal_rcc.c ****         if ((HAL_GetTick() - tickstart) > RCC_DBP_TIMEOUT_VALUE)
 812              		.loc 1 541 14
 813 02e6 FFF7FEFF 		bl	HAL_GetTick
 814 02ea 0246     		mov	r2, r0
 815              		.loc 1 541 28
 816 02ec 3B69     		ldr	r3, [r7, #16]
 817 02ee D31A     		subs	r3, r2, r3
 818              		.loc 1 541 12
 819 02f0 642B     		cmp	r3, #100
 820 02f2 01D9     		bls	.L52
 542:Drivers/STM32F7xx_HAL_Driver/Src/stm32f7xx_hal_rcc.c ****         {
 543:Drivers/STM32F7xx_HAL_Driver/Src/stm32f7xx_hal_rcc.c ****           return HAL_TIMEOUT;
 821              		.loc 1 543 18
 822 02f4 0323     		movs	r3, #3
 823 02f6 2AE1     		b	.L20
 824              	.L52:
 539:Drivers/STM32F7xx_HAL_Driver/Src/stm32f7xx_hal_rcc.c ****       {
 825              		.loc 1 539 14
 826 02f8 764B     		ldr	r3, .L77+4
 827 02fa 1B68     		ldr	r3, [r3]
 828 02fc 03F48073 		and	r3, r3, #256
 539:Drivers/STM32F7xx_HAL_Driver/Src/stm32f7xx_hal_rcc.c ****       {
 829              		.loc 1 539 13
 830 0300 002B     		cmp	r3, #0
 831 0302 F0D0     		beq	.L53
 832              	.L51:
 544:Drivers/STM32F7xx_HAL_Driver/Src/stm32f7xx_hal_rcc.c ****         }
 545:Drivers/STM32F7xx_HAL_Driver/Src/stm32f7xx_hal_rcc.c ****       }
 546:Drivers/STM32F7xx_HAL_Driver/Src/stm32f7xx_hal_rcc.c ****     }
 547:Drivers/STM32F7xx_HAL_Driver/Src/stm32f7xx_hal_rcc.c **** 
 548:Drivers/STM32F7xx_HAL_Driver/Src/stm32f7xx_hal_rcc.c ****     /* Set the new LSE configuration -----------------------------------------*/
 549:Drivers/STM32F7xx_HAL_Driver/Src/stm32f7xx_hal_rcc.c ****     __HAL_RCC_LSE_CONFIG(RCC_OscInitStruct->LSEState);
 833              		.loc 1 549 5
 834 0304 7B68     		ldr	r3, [r7, #4]
 835 0306 9B68     		ldr	r3, [r3, #8]
 836 0308 012B     		cmp	r3, #1
 837 030a 06D1     		bne	.L54
 838              		.loc 1 549 5 is_stmt 0 discriminator 1
 839 030c 704B     		ldr	r3, .L77
 840 030e 1B6F     		ldr	r3, [r3, #112]
 841 0310 6F4A     		ldr	r2, .L77
 842 0312 43F00103 		orr	r3, r3, #1
 843 0316 1367     		str	r3, [r2, #112]
 844 0318 2DE0     		b	.L55
 845              	.L54:
 846              		.loc 1 549 5 discriminator 2
 847 031a 7B68     		ldr	r3, [r7, #4]
 848 031c 9B68     		ldr	r3, [r3, #8]
 849 031e 002B     		cmp	r3, #0
 850 0320 0CD1     		bne	.L56
 851              		.loc 1 549 5 discriminator 3
ARM GAS  /tmp/ccop1lUE.s 			page 26


 852 0322 6B4B     		ldr	r3, .L77
 853 0324 1B6F     		ldr	r3, [r3, #112]
 854 0326 6A4A     		ldr	r2, .L77
 855 0328 23F00103 		bic	r3, r3, #1
 856 032c 1367     		str	r3, [r2, #112]
 857 032e 684B     		ldr	r3, .L77
 858 0330 1B6F     		ldr	r3, [r3, #112]
 859 0332 674A     		ldr	r2, .L77
 860 0334 23F00403 		bic	r3, r3, #4
 861 0338 1367     		str	r3, [r2, #112]
 862 033a 1CE0     		b	.L55
 863              	.L56:
 864              		.loc 1 549 5 discriminator 4
 865 033c 7B68     		ldr	r3, [r7, #4]
 866 033e 9B68     		ldr	r3, [r3, #8]
 867 0340 052B     		cmp	r3, #5
 868 0342 0CD1     		bne	.L57
 869              		.loc 1 549 5 discriminator 5
 870 0344 624B     		ldr	r3, .L77
 871 0346 1B6F     		ldr	r3, [r3, #112]
 872 0348 614A     		ldr	r2, .L77
 873 034a 43F00403 		orr	r3, r3, #4
 874 034e 1367     		str	r3, [r2, #112]
 875 0350 5F4B     		ldr	r3, .L77
 876 0352 1B6F     		ldr	r3, [r3, #112]
 877 0354 5E4A     		ldr	r2, .L77
 878 0356 43F00103 		orr	r3, r3, #1
 879 035a 1367     		str	r3, [r2, #112]
 880 035c 0BE0     		b	.L55
 881              	.L57:
 882              		.loc 1 549 5 discriminator 6
 883 035e 5C4B     		ldr	r3, .L77
 884 0360 1B6F     		ldr	r3, [r3, #112]
 885 0362 5B4A     		ldr	r2, .L77
 886 0364 23F00103 		bic	r3, r3, #1
 887 0368 1367     		str	r3, [r2, #112]
 888 036a 594B     		ldr	r3, .L77
 889 036c 1B6F     		ldr	r3, [r3, #112]
 890 036e 584A     		ldr	r2, .L77
 891 0370 23F00403 		bic	r3, r3, #4
 892 0374 1367     		str	r3, [r2, #112]
 893              	.L55:
 550:Drivers/STM32F7xx_HAL_Driver/Src/stm32f7xx_hal_rcc.c ****     /* Check the LSE State */
 551:Drivers/STM32F7xx_HAL_Driver/Src/stm32f7xx_hal_rcc.c ****     if ((RCC_OscInitStruct->LSEState) != RCC_LSE_OFF)
 894              		.loc 1 551 27 is_stmt 1
 895 0376 7B68     		ldr	r3, [r7, #4]
 896 0378 9B68     		ldr	r3, [r3, #8]
 897              		.loc 1 551 8
 898 037a 002B     		cmp	r3, #0
 899 037c 15D0     		beq	.L58
 552:Drivers/STM32F7xx_HAL_Driver/Src/stm32f7xx_hal_rcc.c ****     {
 553:Drivers/STM32F7xx_HAL_Driver/Src/stm32f7xx_hal_rcc.c ****       /* Get Start Tick*/
 554:Drivers/STM32F7xx_HAL_Driver/Src/stm32f7xx_hal_rcc.c ****       tickstart = HAL_GetTick();
 900              		.loc 1 554 19
 901 037e FFF7FEFF 		bl	HAL_GetTick
 902 0382 3861     		str	r0, [r7, #16]
 555:Drivers/STM32F7xx_HAL_Driver/Src/stm32f7xx_hal_rcc.c **** 
ARM GAS  /tmp/ccop1lUE.s 			page 27


 556:Drivers/STM32F7xx_HAL_Driver/Src/stm32f7xx_hal_rcc.c ****       /* Wait till LSE is ready */
 557:Drivers/STM32F7xx_HAL_Driver/Src/stm32f7xx_hal_rcc.c ****       while (__HAL_RCC_GET_FLAG(RCC_FLAG_LSERDY) == RESET)
 903              		.loc 1 557 13
 904 0384 0AE0     		b	.L59
 905              	.L60:
 558:Drivers/STM32F7xx_HAL_Driver/Src/stm32f7xx_hal_rcc.c ****       {
 559:Drivers/STM32F7xx_HAL_Driver/Src/stm32f7xx_hal_rcc.c ****         if ((HAL_GetTick() - tickstart) > RCC_LSE_TIMEOUT_VALUE)
 906              		.loc 1 559 14
 907 0386 FFF7FEFF 		bl	HAL_GetTick
 908 038a 0246     		mov	r2, r0
 909              		.loc 1 559 28
 910 038c 3B69     		ldr	r3, [r7, #16]
 911 038e D31A     		subs	r3, r2, r3
 912              		.loc 1 559 12
 913 0390 41F28832 		movw	r2, #5000
 914 0394 9342     		cmp	r3, r2
 915 0396 01D9     		bls	.L59
 560:Drivers/STM32F7xx_HAL_Driver/Src/stm32f7xx_hal_rcc.c ****         {
 561:Drivers/STM32F7xx_HAL_Driver/Src/stm32f7xx_hal_rcc.c ****           return HAL_TIMEOUT;
 916              		.loc 1 561 18
 917 0398 0323     		movs	r3, #3
 918 039a D8E0     		b	.L20
 919              	.L59:
 557:Drivers/STM32F7xx_HAL_Driver/Src/stm32f7xx_hal_rcc.c ****       {
 920              		.loc 1 557 14
 921 039c 4C4B     		ldr	r3, .L77
 922 039e 1B6F     		ldr	r3, [r3, #112]
 923 03a0 03F00203 		and	r3, r3, #2
 557:Drivers/STM32F7xx_HAL_Driver/Src/stm32f7xx_hal_rcc.c ****       {
 924              		.loc 1 557 13
 925 03a4 002B     		cmp	r3, #0
 926 03a6 EED0     		beq	.L60
 927 03a8 14E0     		b	.L61
 928              	.L58:
 562:Drivers/STM32F7xx_HAL_Driver/Src/stm32f7xx_hal_rcc.c ****         }
 563:Drivers/STM32F7xx_HAL_Driver/Src/stm32f7xx_hal_rcc.c ****       }
 564:Drivers/STM32F7xx_HAL_Driver/Src/stm32f7xx_hal_rcc.c ****     }
 565:Drivers/STM32F7xx_HAL_Driver/Src/stm32f7xx_hal_rcc.c ****     else
 566:Drivers/STM32F7xx_HAL_Driver/Src/stm32f7xx_hal_rcc.c ****     {
 567:Drivers/STM32F7xx_HAL_Driver/Src/stm32f7xx_hal_rcc.c ****       /* Get Start Tick*/
 568:Drivers/STM32F7xx_HAL_Driver/Src/stm32f7xx_hal_rcc.c ****       tickstart = HAL_GetTick();
 929              		.loc 1 568 19
 930 03aa FFF7FEFF 		bl	HAL_GetTick
 931 03ae 3861     		str	r0, [r7, #16]
 569:Drivers/STM32F7xx_HAL_Driver/Src/stm32f7xx_hal_rcc.c **** 
 570:Drivers/STM32F7xx_HAL_Driver/Src/stm32f7xx_hal_rcc.c ****       /* Wait till LSE is ready */
 571:Drivers/STM32F7xx_HAL_Driver/Src/stm32f7xx_hal_rcc.c ****       while (__HAL_RCC_GET_FLAG(RCC_FLAG_LSERDY) != RESET)
 932              		.loc 1 571 13
 933 03b0 0AE0     		b	.L62
 934              	.L63:
 572:Drivers/STM32F7xx_HAL_Driver/Src/stm32f7xx_hal_rcc.c ****       {
 573:Drivers/STM32F7xx_HAL_Driver/Src/stm32f7xx_hal_rcc.c ****         if ((HAL_GetTick() - tickstart) > RCC_LSE_TIMEOUT_VALUE)
 935              		.loc 1 573 14
 936 03b2 FFF7FEFF 		bl	HAL_GetTick
 937 03b6 0246     		mov	r2, r0
 938              		.loc 1 573 28
 939 03b8 3B69     		ldr	r3, [r7, #16]
ARM GAS  /tmp/ccop1lUE.s 			page 28


 940 03ba D31A     		subs	r3, r2, r3
 941              		.loc 1 573 12
 942 03bc 41F28832 		movw	r2, #5000
 943 03c0 9342     		cmp	r3, r2
 944 03c2 01D9     		bls	.L62
 574:Drivers/STM32F7xx_HAL_Driver/Src/stm32f7xx_hal_rcc.c ****         {
 575:Drivers/STM32F7xx_HAL_Driver/Src/stm32f7xx_hal_rcc.c ****           return HAL_TIMEOUT;
 945              		.loc 1 575 18
 946 03c4 0323     		movs	r3, #3
 947 03c6 C2E0     		b	.L20
 948              	.L62:
 571:Drivers/STM32F7xx_HAL_Driver/Src/stm32f7xx_hal_rcc.c ****       {
 949              		.loc 1 571 14
 950 03c8 414B     		ldr	r3, .L77
 951 03ca 1B6F     		ldr	r3, [r3, #112]
 952 03cc 03F00203 		and	r3, r3, #2
 571:Drivers/STM32F7xx_HAL_Driver/Src/stm32f7xx_hal_rcc.c ****       {
 953              		.loc 1 571 13
 954 03d0 002B     		cmp	r3, #0
 955 03d2 EED1     		bne	.L63
 956              	.L61:
 576:Drivers/STM32F7xx_HAL_Driver/Src/stm32f7xx_hal_rcc.c ****         }
 577:Drivers/STM32F7xx_HAL_Driver/Src/stm32f7xx_hal_rcc.c ****       }
 578:Drivers/STM32F7xx_HAL_Driver/Src/stm32f7xx_hal_rcc.c ****     }
 579:Drivers/STM32F7xx_HAL_Driver/Src/stm32f7xx_hal_rcc.c **** 
 580:Drivers/STM32F7xx_HAL_Driver/Src/stm32f7xx_hal_rcc.c ****     /* Restore clock configuration if changed */
 581:Drivers/STM32F7xx_HAL_Driver/Src/stm32f7xx_hal_rcc.c ****     if (pwrclkchanged == SET)
 957              		.loc 1 581 8
 958 03d4 FB7D     		ldrb	r3, [r7, #23]	@ zero_extendqisi2
 959 03d6 012B     		cmp	r3, #1
 960 03d8 05D1     		bne	.L49
 582:Drivers/STM32F7xx_HAL_Driver/Src/stm32f7xx_hal_rcc.c ****     {
 583:Drivers/STM32F7xx_HAL_Driver/Src/stm32f7xx_hal_rcc.c ****       __HAL_RCC_PWR_CLK_DISABLE();
 961              		.loc 1 583 7
 962 03da 3D4B     		ldr	r3, .L77
 963 03dc 1B6C     		ldr	r3, [r3, #64]
 964 03de 3C4A     		ldr	r2, .L77
 965 03e0 23F08053 		bic	r3, r3, #268435456
 966 03e4 1364     		str	r3, [r2, #64]
 967              	.L49:
 584:Drivers/STM32F7xx_HAL_Driver/Src/stm32f7xx_hal_rcc.c ****     }
 585:Drivers/STM32F7xx_HAL_Driver/Src/stm32f7xx_hal_rcc.c ****   }
 586:Drivers/STM32F7xx_HAL_Driver/Src/stm32f7xx_hal_rcc.c ****   /*-------------------------------- PLL Configuration -----------------------*/
 587:Drivers/STM32F7xx_HAL_Driver/Src/stm32f7xx_hal_rcc.c ****   /* Check the parameters */
 588:Drivers/STM32F7xx_HAL_Driver/Src/stm32f7xx_hal_rcc.c ****   assert_param(IS_RCC_PLL(RCC_OscInitStruct->PLL.PLLState));
 589:Drivers/STM32F7xx_HAL_Driver/Src/stm32f7xx_hal_rcc.c ****   if ((RCC_OscInitStruct->PLL.PLLState) != RCC_PLL_NONE)
 968              		.loc 1 589 30
 969 03e6 7B68     		ldr	r3, [r7, #4]
 970 03e8 9B69     		ldr	r3, [r3, #24]
 971              		.loc 1 589 6
 972 03ea 002B     		cmp	r3, #0
 973 03ec 00F0AE80 		beq	.L64
 590:Drivers/STM32F7xx_HAL_Driver/Src/stm32f7xx_hal_rcc.c ****   {
 591:Drivers/STM32F7xx_HAL_Driver/Src/stm32f7xx_hal_rcc.c ****     /* Check if the PLL is used as system clock or not */
 592:Drivers/STM32F7xx_HAL_Driver/Src/stm32f7xx_hal_rcc.c ****     if (__HAL_RCC_GET_SYSCLK_SOURCE() != RCC_SYSCLKSOURCE_STATUS_PLLCLK)
 974              		.loc 1 592 9
 975 03f0 374B     		ldr	r3, .L77
ARM GAS  /tmp/ccop1lUE.s 			page 29


 976 03f2 9B68     		ldr	r3, [r3, #8]
 977 03f4 03F00C03 		and	r3, r3, #12
 978              		.loc 1 592 8
 979 03f8 082B     		cmp	r3, #8
 980 03fa 6DD0     		beq	.L65
 593:Drivers/STM32F7xx_HAL_Driver/Src/stm32f7xx_hal_rcc.c ****     {
 594:Drivers/STM32F7xx_HAL_Driver/Src/stm32f7xx_hal_rcc.c ****       if ((RCC_OscInitStruct->PLL.PLLState) == RCC_PLL_ON)
 981              		.loc 1 594 34
 982 03fc 7B68     		ldr	r3, [r7, #4]
 983 03fe 9B69     		ldr	r3, [r3, #24]
 984              		.loc 1 594 10
 985 0400 022B     		cmp	r3, #2
 986 0402 4BD1     		bne	.L66
 595:Drivers/STM32F7xx_HAL_Driver/Src/stm32f7xx_hal_rcc.c ****       {
 596:Drivers/STM32F7xx_HAL_Driver/Src/stm32f7xx_hal_rcc.c ****         /* Check the parameters */
 597:Drivers/STM32F7xx_HAL_Driver/Src/stm32f7xx_hal_rcc.c ****         assert_param(IS_RCC_PLLSOURCE(RCC_OscInitStruct->PLL.PLLSource));
 598:Drivers/STM32F7xx_HAL_Driver/Src/stm32f7xx_hal_rcc.c ****         assert_param(IS_RCC_PLLM_VALUE(RCC_OscInitStruct->PLL.PLLM));
 599:Drivers/STM32F7xx_HAL_Driver/Src/stm32f7xx_hal_rcc.c ****         assert_param(IS_RCC_PLLN_VALUE(RCC_OscInitStruct->PLL.PLLN));
 600:Drivers/STM32F7xx_HAL_Driver/Src/stm32f7xx_hal_rcc.c ****         assert_param(IS_RCC_PLLP_VALUE(RCC_OscInitStruct->PLL.PLLP));
 601:Drivers/STM32F7xx_HAL_Driver/Src/stm32f7xx_hal_rcc.c ****         assert_param(IS_RCC_PLLQ_VALUE(RCC_OscInitStruct->PLL.PLLQ));
 602:Drivers/STM32F7xx_HAL_Driver/Src/stm32f7xx_hal_rcc.c **** #if defined (RCC_PLLCFGR_PLLR)
 603:Drivers/STM32F7xx_HAL_Driver/Src/stm32f7xx_hal_rcc.c ****         assert_param(IS_RCC_PLLR_VALUE(RCC_OscInitStruct->PLL.PLLR));
 604:Drivers/STM32F7xx_HAL_Driver/Src/stm32f7xx_hal_rcc.c **** #endif
 605:Drivers/STM32F7xx_HAL_Driver/Src/stm32f7xx_hal_rcc.c **** 
 606:Drivers/STM32F7xx_HAL_Driver/Src/stm32f7xx_hal_rcc.c ****         /* Disable the main PLL. */
 607:Drivers/STM32F7xx_HAL_Driver/Src/stm32f7xx_hal_rcc.c ****         __HAL_RCC_PLL_DISABLE();
 987              		.loc 1 607 9
 988 0404 324B     		ldr	r3, .L77
 989 0406 1B68     		ldr	r3, [r3]
 990 0408 314A     		ldr	r2, .L77
 991 040a 23F08073 		bic	r3, r3, #16777216
 992 040e 1360     		str	r3, [r2]
 608:Drivers/STM32F7xx_HAL_Driver/Src/stm32f7xx_hal_rcc.c **** 
 609:Drivers/STM32F7xx_HAL_Driver/Src/stm32f7xx_hal_rcc.c ****         /* Get Start Tick*/
 610:Drivers/STM32F7xx_HAL_Driver/Src/stm32f7xx_hal_rcc.c ****         tickstart = HAL_GetTick();
 993              		.loc 1 610 21
 994 0410 FFF7FEFF 		bl	HAL_GetTick
 995 0414 3861     		str	r0, [r7, #16]
 611:Drivers/STM32F7xx_HAL_Driver/Src/stm32f7xx_hal_rcc.c **** 
 612:Drivers/STM32F7xx_HAL_Driver/Src/stm32f7xx_hal_rcc.c ****         /* Wait till PLL is ready */
 613:Drivers/STM32F7xx_HAL_Driver/Src/stm32f7xx_hal_rcc.c ****         while (__HAL_RCC_GET_FLAG(RCC_FLAG_PLLRDY) != RESET)
 996              		.loc 1 613 15
 997 0416 08E0     		b	.L67
 998              	.L68:
 614:Drivers/STM32F7xx_HAL_Driver/Src/stm32f7xx_hal_rcc.c ****         {
 615:Drivers/STM32F7xx_HAL_Driver/Src/stm32f7xx_hal_rcc.c ****           if ((HAL_GetTick() - tickstart) > PLL_TIMEOUT_VALUE)
 999              		.loc 1 615 16
 1000 0418 FFF7FEFF 		bl	HAL_GetTick
 1001 041c 0246     		mov	r2, r0
 1002              		.loc 1 615 30
 1003 041e 3B69     		ldr	r3, [r7, #16]
 1004 0420 D31A     		subs	r3, r2, r3
 1005              		.loc 1 615 14
 1006 0422 022B     		cmp	r3, #2
 1007 0424 01D9     		bls	.L67
 616:Drivers/STM32F7xx_HAL_Driver/Src/stm32f7xx_hal_rcc.c ****           {
 617:Drivers/STM32F7xx_HAL_Driver/Src/stm32f7xx_hal_rcc.c ****             return HAL_TIMEOUT;
ARM GAS  /tmp/ccop1lUE.s 			page 30


 1008              		.loc 1 617 20
 1009 0426 0323     		movs	r3, #3
 1010 0428 91E0     		b	.L20
 1011              	.L67:
 613:Drivers/STM32F7xx_HAL_Driver/Src/stm32f7xx_hal_rcc.c ****         {
 1012              		.loc 1 613 16
 1013 042a 294B     		ldr	r3, .L77
 1014 042c 1B68     		ldr	r3, [r3]
 1015 042e 03F00073 		and	r3, r3, #33554432
 613:Drivers/STM32F7xx_HAL_Driver/Src/stm32f7xx_hal_rcc.c ****         {
 1016              		.loc 1 613 15
 1017 0432 002B     		cmp	r3, #0
 1018 0434 F0D1     		bne	.L68
 618:Drivers/STM32F7xx_HAL_Driver/Src/stm32f7xx_hal_rcc.c ****           }
 619:Drivers/STM32F7xx_HAL_Driver/Src/stm32f7xx_hal_rcc.c ****         }
 620:Drivers/STM32F7xx_HAL_Driver/Src/stm32f7xx_hal_rcc.c **** 
 621:Drivers/STM32F7xx_HAL_Driver/Src/stm32f7xx_hal_rcc.c ****         /* Configure the main PLL clock source, multiplication and division factors. */
 622:Drivers/STM32F7xx_HAL_Driver/Src/stm32f7xx_hal_rcc.c **** #if defined (RCC_PLLCFGR_PLLR)
 623:Drivers/STM32F7xx_HAL_Driver/Src/stm32f7xx_hal_rcc.c ****         __HAL_RCC_PLL_CONFIG(RCC_OscInitStruct->PLL.PLLSource,
 1019              		.loc 1 623 9
 1020 0436 7B68     		ldr	r3, [r7, #4]
 1021 0438 DA69     		ldr	r2, [r3, #28]
 1022 043a 7B68     		ldr	r3, [r7, #4]
 1023 043c 1B6A     		ldr	r3, [r3, #32]
 1024 043e 1A43     		orrs	r2, r2, r3
 1025 0440 7B68     		ldr	r3, [r7, #4]
 1026 0442 5B6A     		ldr	r3, [r3, #36]
 1027 0444 9B01     		lsls	r3, r3, #6
 1028 0446 1A43     		orrs	r2, r2, r3
 1029 0448 7B68     		ldr	r3, [r7, #4]
 1030 044a 9B6A     		ldr	r3, [r3, #40]
 1031 044c 5B08     		lsrs	r3, r3, #1
 1032 044e 013B     		subs	r3, r3, #1
 1033 0450 1B04     		lsls	r3, r3, #16
 1034 0452 1A43     		orrs	r2, r2, r3
 1035 0454 7B68     		ldr	r3, [r7, #4]
 1036 0456 DB6A     		ldr	r3, [r3, #44]
 1037 0458 1B06     		lsls	r3, r3, #24
 1038 045a 1A43     		orrs	r2, r2, r3
 1039 045c 7B68     		ldr	r3, [r7, #4]
 1040 045e 1B6B     		ldr	r3, [r3, #48]
 1041 0460 1B07     		lsls	r3, r3, #28
 1042 0462 1B49     		ldr	r1, .L77
 1043 0464 1343     		orrs	r3, r3, r2
 1044 0466 4B60     		str	r3, [r1, #4]
 624:Drivers/STM32F7xx_HAL_Driver/Src/stm32f7xx_hal_rcc.c ****                              RCC_OscInitStruct->PLL.PLLM,
 625:Drivers/STM32F7xx_HAL_Driver/Src/stm32f7xx_hal_rcc.c ****                              RCC_OscInitStruct->PLL.PLLN,
 626:Drivers/STM32F7xx_HAL_Driver/Src/stm32f7xx_hal_rcc.c ****                              RCC_OscInitStruct->PLL.PLLP,
 627:Drivers/STM32F7xx_HAL_Driver/Src/stm32f7xx_hal_rcc.c ****                              RCC_OscInitStruct->PLL.PLLQ,
 628:Drivers/STM32F7xx_HAL_Driver/Src/stm32f7xx_hal_rcc.c ****                              RCC_OscInitStruct->PLL.PLLR);
 629:Drivers/STM32F7xx_HAL_Driver/Src/stm32f7xx_hal_rcc.c **** #else
 630:Drivers/STM32F7xx_HAL_Driver/Src/stm32f7xx_hal_rcc.c ****         __HAL_RCC_PLL_CONFIG(RCC_OscInitStruct->PLL.PLLSource,
 631:Drivers/STM32F7xx_HAL_Driver/Src/stm32f7xx_hal_rcc.c ****                              RCC_OscInitStruct->PLL.PLLM,
 632:Drivers/STM32F7xx_HAL_Driver/Src/stm32f7xx_hal_rcc.c ****                              RCC_OscInitStruct->PLL.PLLN,
 633:Drivers/STM32F7xx_HAL_Driver/Src/stm32f7xx_hal_rcc.c ****                              RCC_OscInitStruct->PLL.PLLP,
 634:Drivers/STM32F7xx_HAL_Driver/Src/stm32f7xx_hal_rcc.c ****                              RCC_OscInitStruct->PLL.PLLQ);
 635:Drivers/STM32F7xx_HAL_Driver/Src/stm32f7xx_hal_rcc.c **** #endif
ARM GAS  /tmp/ccop1lUE.s 			page 31


 636:Drivers/STM32F7xx_HAL_Driver/Src/stm32f7xx_hal_rcc.c **** 
 637:Drivers/STM32F7xx_HAL_Driver/Src/stm32f7xx_hal_rcc.c ****         /* Enable the main PLL. */
 638:Drivers/STM32F7xx_HAL_Driver/Src/stm32f7xx_hal_rcc.c ****         __HAL_RCC_PLL_ENABLE();
 1045              		.loc 1 638 9
 1046 0468 194B     		ldr	r3, .L77
 1047 046a 1B68     		ldr	r3, [r3]
 1048 046c 184A     		ldr	r2, .L77
 1049 046e 43F08073 		orr	r3, r3, #16777216
 1050 0472 1360     		str	r3, [r2]
 639:Drivers/STM32F7xx_HAL_Driver/Src/stm32f7xx_hal_rcc.c **** 
 640:Drivers/STM32F7xx_HAL_Driver/Src/stm32f7xx_hal_rcc.c ****         /* Get Start Tick*/
 641:Drivers/STM32F7xx_HAL_Driver/Src/stm32f7xx_hal_rcc.c ****         tickstart = HAL_GetTick();
 1051              		.loc 1 641 21
 1052 0474 FFF7FEFF 		bl	HAL_GetTick
 1053 0478 3861     		str	r0, [r7, #16]
 642:Drivers/STM32F7xx_HAL_Driver/Src/stm32f7xx_hal_rcc.c **** 
 643:Drivers/STM32F7xx_HAL_Driver/Src/stm32f7xx_hal_rcc.c ****         /* Wait till PLL is ready */
 644:Drivers/STM32F7xx_HAL_Driver/Src/stm32f7xx_hal_rcc.c ****         while (__HAL_RCC_GET_FLAG(RCC_FLAG_PLLRDY) == RESET)
 1054              		.loc 1 644 15
 1055 047a 08E0     		b	.L69
 1056              	.L70:
 645:Drivers/STM32F7xx_HAL_Driver/Src/stm32f7xx_hal_rcc.c ****         {
 646:Drivers/STM32F7xx_HAL_Driver/Src/stm32f7xx_hal_rcc.c ****           if ((HAL_GetTick() - tickstart) > PLL_TIMEOUT_VALUE)
 1057              		.loc 1 646 16
 1058 047c FFF7FEFF 		bl	HAL_GetTick
 1059 0480 0246     		mov	r2, r0
 1060              		.loc 1 646 30
 1061 0482 3B69     		ldr	r3, [r7, #16]
 1062 0484 D31A     		subs	r3, r2, r3
 1063              		.loc 1 646 14
 1064 0486 022B     		cmp	r3, #2
 1065 0488 01D9     		bls	.L69
 647:Drivers/STM32F7xx_HAL_Driver/Src/stm32f7xx_hal_rcc.c ****           {
 648:Drivers/STM32F7xx_HAL_Driver/Src/stm32f7xx_hal_rcc.c ****             return HAL_TIMEOUT;
 1066              		.loc 1 648 20
 1067 048a 0323     		movs	r3, #3
 1068 048c 5FE0     		b	.L20
 1069              	.L69:
 644:Drivers/STM32F7xx_HAL_Driver/Src/stm32f7xx_hal_rcc.c ****         {
 1070              		.loc 1 644 16
 1071 048e 104B     		ldr	r3, .L77
 1072 0490 1B68     		ldr	r3, [r3]
 1073 0492 03F00073 		and	r3, r3, #33554432
 644:Drivers/STM32F7xx_HAL_Driver/Src/stm32f7xx_hal_rcc.c ****         {
 1074              		.loc 1 644 15
 1075 0496 002B     		cmp	r3, #0
 1076 0498 F0D0     		beq	.L70
 1077 049a 57E0     		b	.L64
 1078              	.L66:
 649:Drivers/STM32F7xx_HAL_Driver/Src/stm32f7xx_hal_rcc.c ****           }
 650:Drivers/STM32F7xx_HAL_Driver/Src/stm32f7xx_hal_rcc.c ****         }
 651:Drivers/STM32F7xx_HAL_Driver/Src/stm32f7xx_hal_rcc.c ****       }
 652:Drivers/STM32F7xx_HAL_Driver/Src/stm32f7xx_hal_rcc.c ****       else
 653:Drivers/STM32F7xx_HAL_Driver/Src/stm32f7xx_hal_rcc.c ****       {
 654:Drivers/STM32F7xx_HAL_Driver/Src/stm32f7xx_hal_rcc.c ****         /* Disable the main PLL. */
 655:Drivers/STM32F7xx_HAL_Driver/Src/stm32f7xx_hal_rcc.c ****         __HAL_RCC_PLL_DISABLE();
 1079              		.loc 1 655 9
ARM GAS  /tmp/ccop1lUE.s 			page 32


 1080 049c 0C4B     		ldr	r3, .L77
 1081 049e 1B68     		ldr	r3, [r3]
 1082 04a0 0B4A     		ldr	r2, .L77
 1083 04a2 23F08073 		bic	r3, r3, #16777216
 1084 04a6 1360     		str	r3, [r2]
 656:Drivers/STM32F7xx_HAL_Driver/Src/stm32f7xx_hal_rcc.c **** 
 657:Drivers/STM32F7xx_HAL_Driver/Src/stm32f7xx_hal_rcc.c ****         /* Get Start Tick*/
 658:Drivers/STM32F7xx_HAL_Driver/Src/stm32f7xx_hal_rcc.c ****         tickstart = HAL_GetTick();
 1085              		.loc 1 658 21
 1086 04a8 FFF7FEFF 		bl	HAL_GetTick
 1087 04ac 3861     		str	r0, [r7, #16]
 659:Drivers/STM32F7xx_HAL_Driver/Src/stm32f7xx_hal_rcc.c **** 
 660:Drivers/STM32F7xx_HAL_Driver/Src/stm32f7xx_hal_rcc.c ****         /* Wait till PLL is ready */
 661:Drivers/STM32F7xx_HAL_Driver/Src/stm32f7xx_hal_rcc.c ****         while (__HAL_RCC_GET_FLAG(RCC_FLAG_PLLRDY) != RESET)
 1088              		.loc 1 661 15
 1089 04ae 08E0     		b	.L71
 1090              	.L72:
 662:Drivers/STM32F7xx_HAL_Driver/Src/stm32f7xx_hal_rcc.c ****         {
 663:Drivers/STM32F7xx_HAL_Driver/Src/stm32f7xx_hal_rcc.c ****           if ((HAL_GetTick() - tickstart) > PLL_TIMEOUT_VALUE)
 1091              		.loc 1 663 16
 1092 04b0 FFF7FEFF 		bl	HAL_GetTick
 1093 04b4 0246     		mov	r2, r0
 1094              		.loc 1 663 30
 1095 04b6 3B69     		ldr	r3, [r7, #16]
 1096 04b8 D31A     		subs	r3, r2, r3
 1097              		.loc 1 663 14
 1098 04ba 022B     		cmp	r3, #2
 1099 04bc 01D9     		bls	.L71
 664:Drivers/STM32F7xx_HAL_Driver/Src/stm32f7xx_hal_rcc.c ****           {
 665:Drivers/STM32F7xx_HAL_Driver/Src/stm32f7xx_hal_rcc.c ****             return HAL_TIMEOUT;
 1100              		.loc 1 665 20
 1101 04be 0323     		movs	r3, #3
 1102 04c0 45E0     		b	.L20
 1103              	.L71:
 661:Drivers/STM32F7xx_HAL_Driver/Src/stm32f7xx_hal_rcc.c ****         {
 1104              		.loc 1 661 16
 1105 04c2 034B     		ldr	r3, .L77
 1106 04c4 1B68     		ldr	r3, [r3]
 1107 04c6 03F00073 		and	r3, r3, #33554432
 661:Drivers/STM32F7xx_HAL_Driver/Src/stm32f7xx_hal_rcc.c ****         {
 1108              		.loc 1 661 15
 1109 04ca 002B     		cmp	r3, #0
 1110 04cc F0D1     		bne	.L72
 1111 04ce 3DE0     		b	.L64
 1112              	.L78:
 1113              		.align	2
 1114              	.L77:
 1115 04d0 00380240 		.word	1073887232
 1116 04d4 00700040 		.word	1073770496
 1117              	.L65:
 666:Drivers/STM32F7xx_HAL_Driver/Src/stm32f7xx_hal_rcc.c ****           }
 667:Drivers/STM32F7xx_HAL_Driver/Src/stm32f7xx_hal_rcc.c ****         }
 668:Drivers/STM32F7xx_HAL_Driver/Src/stm32f7xx_hal_rcc.c ****       }
 669:Drivers/STM32F7xx_HAL_Driver/Src/stm32f7xx_hal_rcc.c ****     }
 670:Drivers/STM32F7xx_HAL_Driver/Src/stm32f7xx_hal_rcc.c ****     else
 671:Drivers/STM32F7xx_HAL_Driver/Src/stm32f7xx_hal_rcc.c ****     {
 672:Drivers/STM32F7xx_HAL_Driver/Src/stm32f7xx_hal_rcc.c ****       /* Do not return HAL_ERROR if request repeats the current configuration */
ARM GAS  /tmp/ccop1lUE.s 			page 33


 673:Drivers/STM32F7xx_HAL_Driver/Src/stm32f7xx_hal_rcc.c ****       pll_config = RCC->PLLCFGR;
 1118              		.loc 1 673 23
 1119 04d8 1F4B     		ldr	r3, .L79
 1120              		.loc 1 673 18
 1121 04da 5B68     		ldr	r3, [r3, #4]
 1122 04dc FB60     		str	r3, [r7, #12]
 674:Drivers/STM32F7xx_HAL_Driver/Src/stm32f7xx_hal_rcc.c **** #if defined (RCC_PLLCFGR_PLLR)
 675:Drivers/STM32F7xx_HAL_Driver/Src/stm32f7xx_hal_rcc.c ****       if (((RCC_OscInitStruct->PLL.PLLState) == RCC_PLL_OFF) ||
 1123              		.loc 1 675 35
 1124 04de 7B68     		ldr	r3, [r7, #4]
 1125 04e0 9B69     		ldr	r3, [r3, #24]
 1126              		.loc 1 675 10
 1127 04e2 012B     		cmp	r3, #1
 1128 04e4 30D0     		beq	.L73
 676:Drivers/STM32F7xx_HAL_Driver/Src/stm32f7xx_hal_rcc.c ****           (READ_BIT(pll_config, RCC_PLLCFGR_PLLSRC) != RCC_OscInitStruct->PLL.PLLSource) ||
 1129              		.loc 1 676 12 discriminator 1
 1130 04e6 FB68     		ldr	r3, [r7, #12]
 1131 04e8 03F48002 		and	r2, r3, #4194304
 1132              		.loc 1 676 78 discriminator 1
 1133 04ec 7B68     		ldr	r3, [r7, #4]
 1134 04ee DB69     		ldr	r3, [r3, #28]
 675:Drivers/STM32F7xx_HAL_Driver/Src/stm32f7xx_hal_rcc.c ****           (READ_BIT(pll_config, RCC_PLLCFGR_PLLSRC) != RCC_OscInitStruct->PLL.PLLSource) ||
 1135              		.loc 1 675 62 discriminator 1
 1136 04f0 9A42     		cmp	r2, r3
 1137 04f2 29D1     		bne	.L73
 677:Drivers/STM32F7xx_HAL_Driver/Src/stm32f7xx_hal_rcc.c ****           (READ_BIT(pll_config, RCC_PLLCFGR_PLLM) != RCC_OscInitStruct->PLL.PLLM) ||
 1138              		.loc 1 677 12
 1139 04f4 FB68     		ldr	r3, [r7, #12]
 1140 04f6 03F03F02 		and	r2, r3, #63
 1141              		.loc 1 677 76
 1142 04fa 7B68     		ldr	r3, [r7, #4]
 1143 04fc 1B6A     		ldr	r3, [r3, #32]
 676:Drivers/STM32F7xx_HAL_Driver/Src/stm32f7xx_hal_rcc.c ****           (READ_BIT(pll_config, RCC_PLLCFGR_PLLSRC) != RCC_OscInitStruct->PLL.PLLSource) ||
 1144              		.loc 1 676 90
 1145 04fe 9A42     		cmp	r2, r3
 1146 0500 22D1     		bne	.L73
 678:Drivers/STM32F7xx_HAL_Driver/Src/stm32f7xx_hal_rcc.c ****           (READ_BIT(pll_config, RCC_PLLCFGR_PLLN) != (RCC_OscInitStruct->PLL.PLLN << RCC_PLLCFGR_PL
 1147              		.loc 1 678 12
 1148 0502 FA68     		ldr	r2, [r7, #12]
 1149 0504 47F6C073 		movw	r3, #32704
 1150 0508 1340     		ands	r3, r3, r2
 1151              		.loc 1 678 77
 1152 050a 7A68     		ldr	r2, [r7, #4]
 1153 050c 526A     		ldr	r2, [r2, #36]
 1154              		.loc 1 678 83
 1155 050e 9201     		lsls	r2, r2, #6
 677:Drivers/STM32F7xx_HAL_Driver/Src/stm32f7xx_hal_rcc.c ****           (READ_BIT(pll_config, RCC_PLLCFGR_PLLM) != RCC_OscInitStruct->PLL.PLLM) ||
 1156              		.loc 1 677 83
 1157 0510 9342     		cmp	r3, r2
 1158 0512 19D1     		bne	.L73
 679:Drivers/STM32F7xx_HAL_Driver/Src/stm32f7xx_hal_rcc.c ****           (READ_BIT(pll_config, RCC_PLLCFGR_PLLP) != ((((RCC_OscInitStruct->PLL.PLLP) >> 1U) - 1U) 
 1159              		.loc 1 679 12
 1160 0514 FB68     		ldr	r3, [r7, #12]
 1161 0516 03F44032 		and	r2, r3, #196608
 1162              		.loc 1 679 80
 1163 051a 7B68     		ldr	r3, [r7, #4]
 1164 051c 9B6A     		ldr	r3, [r3, #40]
ARM GAS  /tmp/ccop1lUE.s 			page 34


 1165              		.loc 1 679 87
 1166 051e 5B08     		lsrs	r3, r3, #1
 1167              		.loc 1 679 94
 1168 0520 013B     		subs	r3, r3, #1
 1169              		.loc 1 679 100
 1170 0522 1B04     		lsls	r3, r3, #16
 678:Drivers/STM32F7xx_HAL_Driver/Src/stm32f7xx_hal_rcc.c ****           (READ_BIT(pll_config, RCC_PLLCFGR_PLLN) != (RCC_OscInitStruct->PLL.PLLN << RCC_PLLCFGR_PL
 1171              		.loc 1 678 109
 1172 0524 9A42     		cmp	r2, r3
 1173 0526 0FD1     		bne	.L73
 680:Drivers/STM32F7xx_HAL_Driver/Src/stm32f7xx_hal_rcc.c ****           (READ_BIT(pll_config, RCC_PLLCFGR_PLLQ) != (RCC_OscInitStruct->PLL.PLLQ << RCC_PLLCFGR_PL
 1174              		.loc 1 680 12
 1175 0528 FB68     		ldr	r3, [r7, #12]
 1176 052a 03F07062 		and	r2, r3, #251658240
 1177              		.loc 1 680 77
 1178 052e 7B68     		ldr	r3, [r7, #4]
 1179 0530 DB6A     		ldr	r3, [r3, #44]
 1180              		.loc 1 680 83
 1181 0532 1B06     		lsls	r3, r3, #24
 679:Drivers/STM32F7xx_HAL_Driver/Src/stm32f7xx_hal_rcc.c ****           (READ_BIT(pll_config, RCC_PLLCFGR_PLLP) != ((((RCC_OscInitStruct->PLL.PLLP) >> 1U) - 1U) 
 1182              		.loc 1 679 126
 1183 0534 9A42     		cmp	r2, r3
 1184 0536 07D1     		bne	.L73
 681:Drivers/STM32F7xx_HAL_Driver/Src/stm32f7xx_hal_rcc.c ****           (READ_BIT(pll_config, RCC_PLLCFGR_PLLR) != (RCC_OscInitStruct->PLL.PLLR << RCC_PLLCFGR_PL
 1185              		.loc 1 681 12
 1186 0538 FB68     		ldr	r3, [r7, #12]
 1187 053a 03F0E042 		and	r2, r3, #1879048192
 1188              		.loc 1 681 77
 1189 053e 7B68     		ldr	r3, [r7, #4]
 1190 0540 1B6B     		ldr	r3, [r3, #48]
 1191              		.loc 1 681 83
 1192 0542 1B07     		lsls	r3, r3, #28
 680:Drivers/STM32F7xx_HAL_Driver/Src/stm32f7xx_hal_rcc.c ****           (READ_BIT(pll_config, RCC_PLLCFGR_PLLQ) != (RCC_OscInitStruct->PLL.PLLQ << RCC_PLLCFGR_PL
 1193              		.loc 1 680 109
 1194 0544 9A42     		cmp	r2, r3
 1195 0546 01D0     		beq	.L64
 1196              	.L73:
 682:Drivers/STM32F7xx_HAL_Driver/Src/stm32f7xx_hal_rcc.c **** #else
 683:Drivers/STM32F7xx_HAL_Driver/Src/stm32f7xx_hal_rcc.c ****       if (((RCC_OscInitStruct->PLL.PLLState) == RCC_PLL_OFF) ||
 684:Drivers/STM32F7xx_HAL_Driver/Src/stm32f7xx_hal_rcc.c ****           (READ_BIT(pll_config, RCC_PLLCFGR_PLLSRC) != RCC_OscInitStruct->PLL.PLLSource) ||
 685:Drivers/STM32F7xx_HAL_Driver/Src/stm32f7xx_hal_rcc.c ****           (READ_BIT(pll_config, RCC_PLLCFGR_PLLM) != RCC_OscInitStruct->PLL.PLLM) ||
 686:Drivers/STM32F7xx_HAL_Driver/Src/stm32f7xx_hal_rcc.c ****           (READ_BIT(pll_config, RCC_PLLCFGR_PLLN) != (RCC_OscInitStruct->PLL.PLLN << RCC_PLLCFGR_PL
 687:Drivers/STM32F7xx_HAL_Driver/Src/stm32f7xx_hal_rcc.c ****           (READ_BIT(pll_config, RCC_PLLCFGR_PLLP) != ((((RCC_OscInitStruct->PLL.PLLP) >> 1U) - 1U) 
 688:Drivers/STM32F7xx_HAL_Driver/Src/stm32f7xx_hal_rcc.c ****           (READ_BIT(pll_config, RCC_PLLCFGR_PLLQ) != (RCC_OscInitStruct->PLL.PLLQ << RCC_PLLCFGR_PL
 689:Drivers/STM32F7xx_HAL_Driver/Src/stm32f7xx_hal_rcc.c **** #endif
 690:Drivers/STM32F7xx_HAL_Driver/Src/stm32f7xx_hal_rcc.c ****       {
 691:Drivers/STM32F7xx_HAL_Driver/Src/stm32f7xx_hal_rcc.c ****         return HAL_ERROR;
 1197              		.loc 1 691 16
 1198 0548 0123     		movs	r3, #1
 1199 054a 00E0     		b	.L20
 1200              	.L64:
 692:Drivers/STM32F7xx_HAL_Driver/Src/stm32f7xx_hal_rcc.c ****       }
 693:Drivers/STM32F7xx_HAL_Driver/Src/stm32f7xx_hal_rcc.c ****     }
 694:Drivers/STM32F7xx_HAL_Driver/Src/stm32f7xx_hal_rcc.c ****   }
 695:Drivers/STM32F7xx_HAL_Driver/Src/stm32f7xx_hal_rcc.c ****   return HAL_OK;
 1201              		.loc 1 695 10
 1202 054c 0023     		movs	r3, #0
ARM GAS  /tmp/ccop1lUE.s 			page 35


 1203              	.L20:
 696:Drivers/STM32F7xx_HAL_Driver/Src/stm32f7xx_hal_rcc.c **** }
 1204              		.loc 1 696 1
 1205 054e 1846     		mov	r0, r3
 1206 0550 1837     		adds	r7, r7, #24
 1207              	.LCFI8:
 1208              		.cfi_def_cfa_offset 8
 1209 0552 BD46     		mov	sp, r7
 1210              	.LCFI9:
 1211              		.cfi_def_cfa_register 13
 1212              		@ sp needed
 1213 0554 80BD     		pop	{r7, pc}
 1214              	.L80:
 1215 0556 00BF     		.align	2
 1216              	.L79:
 1217 0558 00380240 		.word	1073887232
 1218              		.cfi_endproc
 1219              	.LFE142:
 1221              		.section	.text.HAL_RCC_ClockConfig,"ax",%progbits
 1222              		.align	1
 1223              		.global	HAL_RCC_ClockConfig
 1224              		.syntax unified
 1225              		.thumb
 1226              		.thumb_func
 1227              		.fpu fpv5-d16
 1229              	HAL_RCC_ClockConfig:
 1230              	.LFB143:
 697:Drivers/STM32F7xx_HAL_Driver/Src/stm32f7xx_hal_rcc.c **** 
 698:Drivers/STM32F7xx_HAL_Driver/Src/stm32f7xx_hal_rcc.c **** /**
 699:Drivers/STM32F7xx_HAL_Driver/Src/stm32f7xx_hal_rcc.c ****   * @brief  Initializes the CPU, AHB and APB buses clocks according to the specified
 700:Drivers/STM32F7xx_HAL_Driver/Src/stm32f7xx_hal_rcc.c ****   *         parameters in the RCC_ClkInitStruct.
 701:Drivers/STM32F7xx_HAL_Driver/Src/stm32f7xx_hal_rcc.c ****   * @param  RCC_ClkInitStruct pointer to an RCC_OscInitTypeDef structure that
 702:Drivers/STM32F7xx_HAL_Driver/Src/stm32f7xx_hal_rcc.c ****   *         contains the configuration information for the RCC peripheral.
 703:Drivers/STM32F7xx_HAL_Driver/Src/stm32f7xx_hal_rcc.c ****   * @param  FLatency FLASH Latency, this parameter depend on device selected
 704:Drivers/STM32F7xx_HAL_Driver/Src/stm32f7xx_hal_rcc.c ****   *
 705:Drivers/STM32F7xx_HAL_Driver/Src/stm32f7xx_hal_rcc.c ****   * @note   The SystemCoreClock CMSIS variable is used to store System Clock Frequency
 706:Drivers/STM32F7xx_HAL_Driver/Src/stm32f7xx_hal_rcc.c ****   *         and updated by HAL_RCC_GetHCLKFreq() function called within this function
 707:Drivers/STM32F7xx_HAL_Driver/Src/stm32f7xx_hal_rcc.c ****   *
 708:Drivers/STM32F7xx_HAL_Driver/Src/stm32f7xx_hal_rcc.c ****   * @note   The HSI is used (enabled by hardware) as system clock source after
 709:Drivers/STM32F7xx_HAL_Driver/Src/stm32f7xx_hal_rcc.c ****   *         startup from Reset, wake-up from STOP and STANDBY mode, or in case
 710:Drivers/STM32F7xx_HAL_Driver/Src/stm32f7xx_hal_rcc.c ****   *         of failure of the HSE used directly or indirectly as system clock
 711:Drivers/STM32F7xx_HAL_Driver/Src/stm32f7xx_hal_rcc.c ****   *         (if the Clock Security System CSS is enabled).
 712:Drivers/STM32F7xx_HAL_Driver/Src/stm32f7xx_hal_rcc.c ****   *
 713:Drivers/STM32F7xx_HAL_Driver/Src/stm32f7xx_hal_rcc.c ****   * @note   A switch from one clock source to another occurs only if the target
 714:Drivers/STM32F7xx_HAL_Driver/Src/stm32f7xx_hal_rcc.c ****   *         clock source is ready (clock stable after startup delay or PLL locked).
 715:Drivers/STM32F7xx_HAL_Driver/Src/stm32f7xx_hal_rcc.c ****   *         If a clock source which is not yet ready is selected, the switch will
 716:Drivers/STM32F7xx_HAL_Driver/Src/stm32f7xx_hal_rcc.c ****   *         occur when the clock source will be ready.
 717:Drivers/STM32F7xx_HAL_Driver/Src/stm32f7xx_hal_rcc.c ****   *         You can use HAL_RCC_GetClockConfig() function to know which clock is
 718:Drivers/STM32F7xx_HAL_Driver/Src/stm32f7xx_hal_rcc.c ****   *         currently used as system clock source.
 719:Drivers/STM32F7xx_HAL_Driver/Src/stm32f7xx_hal_rcc.c ****   * @note   Depending on the device voltage range, the software has to set correctly
 720:Drivers/STM32F7xx_HAL_Driver/Src/stm32f7xx_hal_rcc.c ****   *         HPRE[3:0] bits to ensure that HCLK not exceed the maximum allowed frequency
 721:Drivers/STM32F7xx_HAL_Driver/Src/stm32f7xx_hal_rcc.c ****   *         (for more details refer to section above "Initialization/de-initialization functions")
 722:Drivers/STM32F7xx_HAL_Driver/Src/stm32f7xx_hal_rcc.c ****   * @retval None
 723:Drivers/STM32F7xx_HAL_Driver/Src/stm32f7xx_hal_rcc.c ****   */
 724:Drivers/STM32F7xx_HAL_Driver/Src/stm32f7xx_hal_rcc.c **** HAL_StatusTypeDef HAL_RCC_ClockConfig(RCC_ClkInitTypeDef  *RCC_ClkInitStruct, uint32_t FLatency)
 725:Drivers/STM32F7xx_HAL_Driver/Src/stm32f7xx_hal_rcc.c **** {
 1231              		.loc 1 725 1
ARM GAS  /tmp/ccop1lUE.s 			page 36


 1232              		.cfi_startproc
 1233              		@ args = 0, pretend = 0, frame = 16
 1234              		@ frame_needed = 1, uses_anonymous_args = 0
 1235 0000 80B5     		push	{r7, lr}
 1236              	.LCFI10:
 1237              		.cfi_def_cfa_offset 8
 1238              		.cfi_offset 7, -8
 1239              		.cfi_offset 14, -4
 1240 0002 84B0     		sub	sp, sp, #16
 1241              	.LCFI11:
 1242              		.cfi_def_cfa_offset 24
 1243 0004 00AF     		add	r7, sp, #0
 1244              	.LCFI12:
 1245              		.cfi_def_cfa_register 7
 1246 0006 7860     		str	r0, [r7, #4]
 1247 0008 3960     		str	r1, [r7]
 726:Drivers/STM32F7xx_HAL_Driver/Src/stm32f7xx_hal_rcc.c ****   uint32_t tickstart = 0;
 1248              		.loc 1 726 12
 1249 000a 0023     		movs	r3, #0
 1250 000c FB60     		str	r3, [r7, #12]
 727:Drivers/STM32F7xx_HAL_Driver/Src/stm32f7xx_hal_rcc.c **** 
 728:Drivers/STM32F7xx_HAL_Driver/Src/stm32f7xx_hal_rcc.c ****   /* Check Null pointer */
 729:Drivers/STM32F7xx_HAL_Driver/Src/stm32f7xx_hal_rcc.c ****   if (RCC_ClkInitStruct == NULL)
 1251              		.loc 1 729 6
 1252 000e 7B68     		ldr	r3, [r7, #4]
 1253 0010 002B     		cmp	r3, #0
 1254 0012 01D1     		bne	.L82
 730:Drivers/STM32F7xx_HAL_Driver/Src/stm32f7xx_hal_rcc.c ****   {
 731:Drivers/STM32F7xx_HAL_Driver/Src/stm32f7xx_hal_rcc.c ****     return HAL_ERROR;
 1255              		.loc 1 731 12
 1256 0014 0123     		movs	r3, #1
 1257 0016 D0E0     		b	.L83
 1258              	.L82:
 732:Drivers/STM32F7xx_HAL_Driver/Src/stm32f7xx_hal_rcc.c ****   }
 733:Drivers/STM32F7xx_HAL_Driver/Src/stm32f7xx_hal_rcc.c **** 
 734:Drivers/STM32F7xx_HAL_Driver/Src/stm32f7xx_hal_rcc.c ****   /* Check the parameters */
 735:Drivers/STM32F7xx_HAL_Driver/Src/stm32f7xx_hal_rcc.c ****   assert_param(IS_RCC_CLOCKTYPE(RCC_ClkInitStruct->ClockType));
 736:Drivers/STM32F7xx_HAL_Driver/Src/stm32f7xx_hal_rcc.c ****   assert_param(IS_FLASH_LATENCY(FLatency));
 737:Drivers/STM32F7xx_HAL_Driver/Src/stm32f7xx_hal_rcc.c **** 
 738:Drivers/STM32F7xx_HAL_Driver/Src/stm32f7xx_hal_rcc.c ****   /* To correctly read data from FLASH memory, the number of wait states (LATENCY)
 739:Drivers/STM32F7xx_HAL_Driver/Src/stm32f7xx_hal_rcc.c ****      must be correctly programmed according to the frequency of the CPU clock
 740:Drivers/STM32F7xx_HAL_Driver/Src/stm32f7xx_hal_rcc.c ****      (HCLK) and the supply voltage of the device. */
 741:Drivers/STM32F7xx_HAL_Driver/Src/stm32f7xx_hal_rcc.c **** 
 742:Drivers/STM32F7xx_HAL_Driver/Src/stm32f7xx_hal_rcc.c ****   /* Increasing the CPU frequency */
 743:Drivers/STM32F7xx_HAL_Driver/Src/stm32f7xx_hal_rcc.c ****   if (FLatency > __HAL_FLASH_GET_LATENCY())
 1259              		.loc 1 743 18
 1260 0018 6A4B     		ldr	r3, .L97
 1261 001a 1B68     		ldr	r3, [r3]
 1262 001c 03F00F03 		and	r3, r3, #15
 1263              		.loc 1 743 6
 1264 0020 3A68     		ldr	r2, [r7]
 1265 0022 9A42     		cmp	r2, r3
 1266 0024 10D9     		bls	.L84
 744:Drivers/STM32F7xx_HAL_Driver/Src/stm32f7xx_hal_rcc.c ****   {
 745:Drivers/STM32F7xx_HAL_Driver/Src/stm32f7xx_hal_rcc.c ****     /* Program the new number of wait states to the LATENCY bits in the FLASH_ACR register */
 746:Drivers/STM32F7xx_HAL_Driver/Src/stm32f7xx_hal_rcc.c ****     __HAL_FLASH_SET_LATENCY(FLatency);
 1267              		.loc 1 746 5
ARM GAS  /tmp/ccop1lUE.s 			page 37


 1268 0026 674B     		ldr	r3, .L97
 1269 0028 1B68     		ldr	r3, [r3]
 1270 002a 23F00F02 		bic	r2, r3, #15
 1271 002e 6549     		ldr	r1, .L97
 1272 0030 3B68     		ldr	r3, [r7]
 1273 0032 1343     		orrs	r3, r3, r2
 1274 0034 0B60     		str	r3, [r1]
 747:Drivers/STM32F7xx_HAL_Driver/Src/stm32f7xx_hal_rcc.c **** 
 748:Drivers/STM32F7xx_HAL_Driver/Src/stm32f7xx_hal_rcc.c ****     /* Check that the new number of wait states is taken into account to access the Flash
 749:Drivers/STM32F7xx_HAL_Driver/Src/stm32f7xx_hal_rcc.c ****     memory by reading the FLASH_ACR register */
 750:Drivers/STM32F7xx_HAL_Driver/Src/stm32f7xx_hal_rcc.c ****     if (__HAL_FLASH_GET_LATENCY() != FLatency)
 1275              		.loc 1 750 9
 1276 0036 634B     		ldr	r3, .L97
 1277 0038 1B68     		ldr	r3, [r3]
 1278 003a 03F00F03 		and	r3, r3, #15
 1279              		.loc 1 750 8
 1280 003e 3A68     		ldr	r2, [r7]
 1281 0040 9A42     		cmp	r2, r3
 1282 0042 01D0     		beq	.L84
 751:Drivers/STM32F7xx_HAL_Driver/Src/stm32f7xx_hal_rcc.c ****     {
 752:Drivers/STM32F7xx_HAL_Driver/Src/stm32f7xx_hal_rcc.c ****       return HAL_ERROR;
 1283              		.loc 1 752 14
 1284 0044 0123     		movs	r3, #1
 1285 0046 B8E0     		b	.L83
 1286              	.L84:
 753:Drivers/STM32F7xx_HAL_Driver/Src/stm32f7xx_hal_rcc.c ****     }
 754:Drivers/STM32F7xx_HAL_Driver/Src/stm32f7xx_hal_rcc.c ****   }
 755:Drivers/STM32F7xx_HAL_Driver/Src/stm32f7xx_hal_rcc.c **** 
 756:Drivers/STM32F7xx_HAL_Driver/Src/stm32f7xx_hal_rcc.c ****   /*-------------------------- HCLK Configuration --------------------------*/
 757:Drivers/STM32F7xx_HAL_Driver/Src/stm32f7xx_hal_rcc.c ****   if (((RCC_ClkInitStruct->ClockType) & RCC_CLOCKTYPE_HCLK) == RCC_CLOCKTYPE_HCLK)
 1287              		.loc 1 757 26
 1288 0048 7B68     		ldr	r3, [r7, #4]
 1289 004a 1B68     		ldr	r3, [r3]
 1290              		.loc 1 757 39
 1291 004c 03F00203 		and	r3, r3, #2
 1292              		.loc 1 757 6
 1293 0050 002B     		cmp	r3, #0
 1294 0052 20D0     		beq	.L85
 758:Drivers/STM32F7xx_HAL_Driver/Src/stm32f7xx_hal_rcc.c ****   {
 759:Drivers/STM32F7xx_HAL_Driver/Src/stm32f7xx_hal_rcc.c ****     /* Set the highest APBx dividers in order to ensure that we do not go through
 760:Drivers/STM32F7xx_HAL_Driver/Src/stm32f7xx_hal_rcc.c ****        a non-spec phase whatever we decrease or increase HCLK. */
 761:Drivers/STM32F7xx_HAL_Driver/Src/stm32f7xx_hal_rcc.c ****     if (((RCC_ClkInitStruct->ClockType) & RCC_CLOCKTYPE_PCLK1) == RCC_CLOCKTYPE_PCLK1)
 1295              		.loc 1 761 28
 1296 0054 7B68     		ldr	r3, [r7, #4]
 1297 0056 1B68     		ldr	r3, [r3]
 1298              		.loc 1 761 41
 1299 0058 03F00403 		and	r3, r3, #4
 1300              		.loc 1 761 8
 1301 005c 002B     		cmp	r3, #0
 1302 005e 05D0     		beq	.L86
 762:Drivers/STM32F7xx_HAL_Driver/Src/stm32f7xx_hal_rcc.c ****     {
 763:Drivers/STM32F7xx_HAL_Driver/Src/stm32f7xx_hal_rcc.c ****       MODIFY_REG(RCC->CFGR, RCC_CFGR_PPRE1, RCC_HCLK_DIV16);
 1303              		.loc 1 763 7
 1304 0060 594B     		ldr	r3, .L97+4
 1305 0062 9B68     		ldr	r3, [r3, #8]
 1306 0064 584A     		ldr	r2, .L97+4
 1307 0066 43F4E053 		orr	r3, r3, #7168
ARM GAS  /tmp/ccop1lUE.s 			page 38


 1308 006a 9360     		str	r3, [r2, #8]
 1309              	.L86:
 764:Drivers/STM32F7xx_HAL_Driver/Src/stm32f7xx_hal_rcc.c ****     }
 765:Drivers/STM32F7xx_HAL_Driver/Src/stm32f7xx_hal_rcc.c **** 
 766:Drivers/STM32F7xx_HAL_Driver/Src/stm32f7xx_hal_rcc.c ****     if (((RCC_ClkInitStruct->ClockType) & RCC_CLOCKTYPE_PCLK2) == RCC_CLOCKTYPE_PCLK2)
 1310              		.loc 1 766 28
 1311 006c 7B68     		ldr	r3, [r7, #4]
 1312 006e 1B68     		ldr	r3, [r3]
 1313              		.loc 1 766 41
 1314 0070 03F00803 		and	r3, r3, #8
 1315              		.loc 1 766 8
 1316 0074 002B     		cmp	r3, #0
 1317 0076 05D0     		beq	.L87
 767:Drivers/STM32F7xx_HAL_Driver/Src/stm32f7xx_hal_rcc.c ****     {
 768:Drivers/STM32F7xx_HAL_Driver/Src/stm32f7xx_hal_rcc.c ****       MODIFY_REG(RCC->CFGR, RCC_CFGR_PPRE2, (RCC_HCLK_DIV16 << 3));
 1318              		.loc 1 768 7
 1319 0078 534B     		ldr	r3, .L97+4
 1320 007a 9B68     		ldr	r3, [r3, #8]
 1321 007c 524A     		ldr	r2, .L97+4
 1322 007e 43F46043 		orr	r3, r3, #57344
 1323 0082 9360     		str	r3, [r2, #8]
 1324              	.L87:
 769:Drivers/STM32F7xx_HAL_Driver/Src/stm32f7xx_hal_rcc.c ****     }
 770:Drivers/STM32F7xx_HAL_Driver/Src/stm32f7xx_hal_rcc.c **** 
 771:Drivers/STM32F7xx_HAL_Driver/Src/stm32f7xx_hal_rcc.c ****     /* Set the new HCLK clock divider */
 772:Drivers/STM32F7xx_HAL_Driver/Src/stm32f7xx_hal_rcc.c ****     assert_param(IS_RCC_HCLK(RCC_ClkInitStruct->AHBCLKDivider));
 773:Drivers/STM32F7xx_HAL_Driver/Src/stm32f7xx_hal_rcc.c ****     MODIFY_REG(RCC->CFGR, RCC_CFGR_HPRE, RCC_ClkInitStruct->AHBCLKDivider);
 1325              		.loc 1 773 5
 1326 0084 504B     		ldr	r3, .L97+4
 1327 0086 9B68     		ldr	r3, [r3, #8]
 1328 0088 23F0F002 		bic	r2, r3, #240
 1329 008c 7B68     		ldr	r3, [r7, #4]
 1330 008e 9B68     		ldr	r3, [r3, #8]
 1331 0090 4D49     		ldr	r1, .L97+4
 1332 0092 1343     		orrs	r3, r3, r2
 1333 0094 8B60     		str	r3, [r1, #8]
 1334              	.L85:
 774:Drivers/STM32F7xx_HAL_Driver/Src/stm32f7xx_hal_rcc.c ****   }
 775:Drivers/STM32F7xx_HAL_Driver/Src/stm32f7xx_hal_rcc.c **** 
 776:Drivers/STM32F7xx_HAL_Driver/Src/stm32f7xx_hal_rcc.c ****   /*------------------------- SYSCLK Configuration ---------------------------*/
 777:Drivers/STM32F7xx_HAL_Driver/Src/stm32f7xx_hal_rcc.c ****   if (((RCC_ClkInitStruct->ClockType) & RCC_CLOCKTYPE_SYSCLK) == RCC_CLOCKTYPE_SYSCLK)
 1335              		.loc 1 777 26
 1336 0096 7B68     		ldr	r3, [r7, #4]
 1337 0098 1B68     		ldr	r3, [r3]
 1338              		.loc 1 777 39
 1339 009a 03F00103 		and	r3, r3, #1
 1340              		.loc 1 777 6
 1341 009e 002B     		cmp	r3, #0
 1342 00a0 40D0     		beq	.L88
 778:Drivers/STM32F7xx_HAL_Driver/Src/stm32f7xx_hal_rcc.c ****   {
 779:Drivers/STM32F7xx_HAL_Driver/Src/stm32f7xx_hal_rcc.c ****     assert_param(IS_RCC_SYSCLKSOURCE(RCC_ClkInitStruct->SYSCLKSource));
 780:Drivers/STM32F7xx_HAL_Driver/Src/stm32f7xx_hal_rcc.c **** 
 781:Drivers/STM32F7xx_HAL_Driver/Src/stm32f7xx_hal_rcc.c ****     /* HSE is selected as System Clock Source */
 782:Drivers/STM32F7xx_HAL_Driver/Src/stm32f7xx_hal_rcc.c ****     if (RCC_ClkInitStruct->SYSCLKSource == RCC_SYSCLKSOURCE_HSE)
 1343              		.loc 1 782 26
 1344 00a2 7B68     		ldr	r3, [r7, #4]
 1345 00a4 5B68     		ldr	r3, [r3, #4]
ARM GAS  /tmp/ccop1lUE.s 			page 39


 1346              		.loc 1 782 8
 1347 00a6 012B     		cmp	r3, #1
 1348 00a8 07D1     		bne	.L89
 783:Drivers/STM32F7xx_HAL_Driver/Src/stm32f7xx_hal_rcc.c ****     {
 784:Drivers/STM32F7xx_HAL_Driver/Src/stm32f7xx_hal_rcc.c ****       /* Check the HSE ready flag */
 785:Drivers/STM32F7xx_HAL_Driver/Src/stm32f7xx_hal_rcc.c ****       if (__HAL_RCC_GET_FLAG(RCC_FLAG_HSERDY) == RESET)
 1349              		.loc 1 785 11
 1350 00aa 474B     		ldr	r3, .L97+4
 1351 00ac 1B68     		ldr	r3, [r3]
 1352 00ae 03F40033 		and	r3, r3, #131072
 1353              		.loc 1 785 10
 1354 00b2 002B     		cmp	r3, #0
 1355 00b4 15D1     		bne	.L90
 786:Drivers/STM32F7xx_HAL_Driver/Src/stm32f7xx_hal_rcc.c ****       {
 787:Drivers/STM32F7xx_HAL_Driver/Src/stm32f7xx_hal_rcc.c ****         return HAL_ERROR;
 1356              		.loc 1 787 16
 1357 00b6 0123     		movs	r3, #1
 1358 00b8 7FE0     		b	.L83
 1359              	.L89:
 788:Drivers/STM32F7xx_HAL_Driver/Src/stm32f7xx_hal_rcc.c ****       }
 789:Drivers/STM32F7xx_HAL_Driver/Src/stm32f7xx_hal_rcc.c ****     }
 790:Drivers/STM32F7xx_HAL_Driver/Src/stm32f7xx_hal_rcc.c ****     /* PLL is selected as System Clock Source */
 791:Drivers/STM32F7xx_HAL_Driver/Src/stm32f7xx_hal_rcc.c ****     else if (RCC_ClkInitStruct->SYSCLKSource == RCC_SYSCLKSOURCE_PLLCLK)
 1360              		.loc 1 791 31
 1361 00ba 7B68     		ldr	r3, [r7, #4]
 1362 00bc 5B68     		ldr	r3, [r3, #4]
 1363              		.loc 1 791 13
 1364 00be 022B     		cmp	r3, #2
 1365 00c0 07D1     		bne	.L91
 792:Drivers/STM32F7xx_HAL_Driver/Src/stm32f7xx_hal_rcc.c ****     {
 793:Drivers/STM32F7xx_HAL_Driver/Src/stm32f7xx_hal_rcc.c ****       /* Check the PLL ready flag */
 794:Drivers/STM32F7xx_HAL_Driver/Src/stm32f7xx_hal_rcc.c ****       if (__HAL_RCC_GET_FLAG(RCC_FLAG_PLLRDY) == RESET)
 1366              		.loc 1 794 11
 1367 00c2 414B     		ldr	r3, .L97+4
 1368 00c4 1B68     		ldr	r3, [r3]
 1369 00c6 03F00073 		and	r3, r3, #33554432
 1370              		.loc 1 794 10
 1371 00ca 002B     		cmp	r3, #0
 1372 00cc 09D1     		bne	.L90
 795:Drivers/STM32F7xx_HAL_Driver/Src/stm32f7xx_hal_rcc.c ****       {
 796:Drivers/STM32F7xx_HAL_Driver/Src/stm32f7xx_hal_rcc.c ****         return HAL_ERROR;
 1373              		.loc 1 796 16
 1374 00ce 0123     		movs	r3, #1
 1375 00d0 73E0     		b	.L83
 1376              	.L91:
 797:Drivers/STM32F7xx_HAL_Driver/Src/stm32f7xx_hal_rcc.c ****       }
 798:Drivers/STM32F7xx_HAL_Driver/Src/stm32f7xx_hal_rcc.c ****     }
 799:Drivers/STM32F7xx_HAL_Driver/Src/stm32f7xx_hal_rcc.c ****     /* HSI is selected as System Clock Source */
 800:Drivers/STM32F7xx_HAL_Driver/Src/stm32f7xx_hal_rcc.c ****     else
 801:Drivers/STM32F7xx_HAL_Driver/Src/stm32f7xx_hal_rcc.c ****     {
 802:Drivers/STM32F7xx_HAL_Driver/Src/stm32f7xx_hal_rcc.c ****       /* Check the HSI ready flag */
 803:Drivers/STM32F7xx_HAL_Driver/Src/stm32f7xx_hal_rcc.c ****       if (__HAL_RCC_GET_FLAG(RCC_FLAG_HSIRDY) == RESET)
 1377              		.loc 1 803 11
 1378 00d2 3D4B     		ldr	r3, .L97+4
 1379 00d4 1B68     		ldr	r3, [r3]
 1380 00d6 03F00203 		and	r3, r3, #2
 1381              		.loc 1 803 10
ARM GAS  /tmp/ccop1lUE.s 			page 40


 1382 00da 002B     		cmp	r3, #0
 1383 00dc 01D1     		bne	.L90
 804:Drivers/STM32F7xx_HAL_Driver/Src/stm32f7xx_hal_rcc.c ****       {
 805:Drivers/STM32F7xx_HAL_Driver/Src/stm32f7xx_hal_rcc.c ****         return HAL_ERROR;
 1384              		.loc 1 805 16
 1385 00de 0123     		movs	r3, #1
 1386 00e0 6BE0     		b	.L83
 1387              	.L90:
 806:Drivers/STM32F7xx_HAL_Driver/Src/stm32f7xx_hal_rcc.c ****       }
 807:Drivers/STM32F7xx_HAL_Driver/Src/stm32f7xx_hal_rcc.c ****     }
 808:Drivers/STM32F7xx_HAL_Driver/Src/stm32f7xx_hal_rcc.c **** 
 809:Drivers/STM32F7xx_HAL_Driver/Src/stm32f7xx_hal_rcc.c ****     __HAL_RCC_SYSCLK_CONFIG(RCC_ClkInitStruct->SYSCLKSource);
 1388              		.loc 1 809 5
 1389 00e2 394B     		ldr	r3, .L97+4
 1390 00e4 9B68     		ldr	r3, [r3, #8]
 1391 00e6 23F00302 		bic	r2, r3, #3
 1392 00ea 7B68     		ldr	r3, [r7, #4]
 1393 00ec 5B68     		ldr	r3, [r3, #4]
 1394 00ee 3649     		ldr	r1, .L97+4
 1395 00f0 1343     		orrs	r3, r3, r2
 1396 00f2 8B60     		str	r3, [r1, #8]
 810:Drivers/STM32F7xx_HAL_Driver/Src/stm32f7xx_hal_rcc.c **** 
 811:Drivers/STM32F7xx_HAL_Driver/Src/stm32f7xx_hal_rcc.c ****     /* Get Start Tick*/
 812:Drivers/STM32F7xx_HAL_Driver/Src/stm32f7xx_hal_rcc.c ****     tickstart = HAL_GetTick();
 1397              		.loc 1 812 17
 1398 00f4 FFF7FEFF 		bl	HAL_GetTick
 1399 00f8 F860     		str	r0, [r7, #12]
 813:Drivers/STM32F7xx_HAL_Driver/Src/stm32f7xx_hal_rcc.c **** 
 814:Drivers/STM32F7xx_HAL_Driver/Src/stm32f7xx_hal_rcc.c ****     while (__HAL_RCC_GET_SYSCLK_SOURCE() != (RCC_ClkInitStruct->SYSCLKSource << RCC_CFGR_SWS_Pos))
 1400              		.loc 1 814 11
 1401 00fa 0AE0     		b	.L92
 1402              	.L93:
 815:Drivers/STM32F7xx_HAL_Driver/Src/stm32f7xx_hal_rcc.c ****     {
 816:Drivers/STM32F7xx_HAL_Driver/Src/stm32f7xx_hal_rcc.c ****       if ((HAL_GetTick() - tickstart) > CLOCKSWITCH_TIMEOUT_VALUE)
 1403              		.loc 1 816 12
 1404 00fc FFF7FEFF 		bl	HAL_GetTick
 1405 0100 0246     		mov	r2, r0
 1406              		.loc 1 816 26
 1407 0102 FB68     		ldr	r3, [r7, #12]
 1408 0104 D31A     		subs	r3, r2, r3
 1409              		.loc 1 816 10
 1410 0106 41F28832 		movw	r2, #5000
 1411 010a 9342     		cmp	r3, r2
 1412 010c 01D9     		bls	.L92
 817:Drivers/STM32F7xx_HAL_Driver/Src/stm32f7xx_hal_rcc.c ****       {
 818:Drivers/STM32F7xx_HAL_Driver/Src/stm32f7xx_hal_rcc.c ****         return HAL_TIMEOUT;
 1413              		.loc 1 818 16
 1414 010e 0323     		movs	r3, #3
 1415 0110 53E0     		b	.L83
 1416              	.L92:
 814:Drivers/STM32F7xx_HAL_Driver/Src/stm32f7xx_hal_rcc.c ****     {
 1417              		.loc 1 814 12
 1418 0112 2D4B     		ldr	r3, .L97+4
 1419 0114 9B68     		ldr	r3, [r3, #8]
 1420 0116 03F00C02 		and	r2, r3, #12
 814:Drivers/STM32F7xx_HAL_Driver/Src/stm32f7xx_hal_rcc.c ****     {
 1421              		.loc 1 814 63
ARM GAS  /tmp/ccop1lUE.s 			page 41


 1422 011a 7B68     		ldr	r3, [r7, #4]
 1423 011c 5B68     		ldr	r3, [r3, #4]
 814:Drivers/STM32F7xx_HAL_Driver/Src/stm32f7xx_hal_rcc.c ****     {
 1424              		.loc 1 814 78
 1425 011e 9B00     		lsls	r3, r3, #2
 814:Drivers/STM32F7xx_HAL_Driver/Src/stm32f7xx_hal_rcc.c ****     {
 1426              		.loc 1 814 11
 1427 0120 9A42     		cmp	r2, r3
 1428 0122 EBD1     		bne	.L93
 1429              	.L88:
 819:Drivers/STM32F7xx_HAL_Driver/Src/stm32f7xx_hal_rcc.c ****       }
 820:Drivers/STM32F7xx_HAL_Driver/Src/stm32f7xx_hal_rcc.c ****     }
 821:Drivers/STM32F7xx_HAL_Driver/Src/stm32f7xx_hal_rcc.c ****   }
 822:Drivers/STM32F7xx_HAL_Driver/Src/stm32f7xx_hal_rcc.c **** 
 823:Drivers/STM32F7xx_HAL_Driver/Src/stm32f7xx_hal_rcc.c ****   /* Decreasing the number of wait states because of lower CPU frequency */
 824:Drivers/STM32F7xx_HAL_Driver/Src/stm32f7xx_hal_rcc.c ****   if (FLatency < __HAL_FLASH_GET_LATENCY())
 1430              		.loc 1 824 18
 1431 0124 274B     		ldr	r3, .L97
 1432 0126 1B68     		ldr	r3, [r3]
 1433 0128 03F00F03 		and	r3, r3, #15
 1434              		.loc 1 824 6
 1435 012c 3A68     		ldr	r2, [r7]
 1436 012e 9A42     		cmp	r2, r3
 1437 0130 10D2     		bcs	.L94
 825:Drivers/STM32F7xx_HAL_Driver/Src/stm32f7xx_hal_rcc.c ****   {
 826:Drivers/STM32F7xx_HAL_Driver/Src/stm32f7xx_hal_rcc.c ****     /* Program the new number of wait states to the LATENCY bits in the FLASH_ACR register */
 827:Drivers/STM32F7xx_HAL_Driver/Src/stm32f7xx_hal_rcc.c ****     __HAL_FLASH_SET_LATENCY(FLatency);
 1438              		.loc 1 827 5
 1439 0132 244B     		ldr	r3, .L97
 1440 0134 1B68     		ldr	r3, [r3]
 1441 0136 23F00F02 		bic	r2, r3, #15
 1442 013a 2249     		ldr	r1, .L97
 1443 013c 3B68     		ldr	r3, [r7]
 1444 013e 1343     		orrs	r3, r3, r2
 1445 0140 0B60     		str	r3, [r1]
 828:Drivers/STM32F7xx_HAL_Driver/Src/stm32f7xx_hal_rcc.c **** 
 829:Drivers/STM32F7xx_HAL_Driver/Src/stm32f7xx_hal_rcc.c ****     /* Check that the new number of wait states is taken into account to access the Flash
 830:Drivers/STM32F7xx_HAL_Driver/Src/stm32f7xx_hal_rcc.c ****     memory by reading the FLASH_ACR register */
 831:Drivers/STM32F7xx_HAL_Driver/Src/stm32f7xx_hal_rcc.c ****     if (__HAL_FLASH_GET_LATENCY() != FLatency)
 1446              		.loc 1 831 9
 1447 0142 204B     		ldr	r3, .L97
 1448 0144 1B68     		ldr	r3, [r3]
 1449 0146 03F00F03 		and	r3, r3, #15
 1450              		.loc 1 831 8
 1451 014a 3A68     		ldr	r2, [r7]
 1452 014c 9A42     		cmp	r2, r3
 1453 014e 01D0     		beq	.L94
 832:Drivers/STM32F7xx_HAL_Driver/Src/stm32f7xx_hal_rcc.c ****     {
 833:Drivers/STM32F7xx_HAL_Driver/Src/stm32f7xx_hal_rcc.c ****       return HAL_ERROR;
 1454              		.loc 1 833 14
 1455 0150 0123     		movs	r3, #1
 1456 0152 32E0     		b	.L83
 1457              	.L94:
 834:Drivers/STM32F7xx_HAL_Driver/Src/stm32f7xx_hal_rcc.c ****     }
 835:Drivers/STM32F7xx_HAL_Driver/Src/stm32f7xx_hal_rcc.c ****   }
 836:Drivers/STM32F7xx_HAL_Driver/Src/stm32f7xx_hal_rcc.c **** 
 837:Drivers/STM32F7xx_HAL_Driver/Src/stm32f7xx_hal_rcc.c ****   /*-------------------------- PCLK1 Configuration ---------------------------*/
ARM GAS  /tmp/ccop1lUE.s 			page 42


 838:Drivers/STM32F7xx_HAL_Driver/Src/stm32f7xx_hal_rcc.c ****   if (((RCC_ClkInitStruct->ClockType) & RCC_CLOCKTYPE_PCLK1) == RCC_CLOCKTYPE_PCLK1)
 1458              		.loc 1 838 26
 1459 0154 7B68     		ldr	r3, [r7, #4]
 1460 0156 1B68     		ldr	r3, [r3]
 1461              		.loc 1 838 39
 1462 0158 03F00403 		and	r3, r3, #4
 1463              		.loc 1 838 6
 1464 015c 002B     		cmp	r3, #0
 1465 015e 08D0     		beq	.L95
 839:Drivers/STM32F7xx_HAL_Driver/Src/stm32f7xx_hal_rcc.c ****   {
 840:Drivers/STM32F7xx_HAL_Driver/Src/stm32f7xx_hal_rcc.c ****     assert_param(IS_RCC_PCLK(RCC_ClkInitStruct->APB1CLKDivider));
 841:Drivers/STM32F7xx_HAL_Driver/Src/stm32f7xx_hal_rcc.c ****     MODIFY_REG(RCC->CFGR, RCC_CFGR_PPRE1, RCC_ClkInitStruct->APB1CLKDivider);
 1466              		.loc 1 841 5
 1467 0160 194B     		ldr	r3, .L97+4
 1468 0162 9B68     		ldr	r3, [r3, #8]
 1469 0164 23F4E052 		bic	r2, r3, #7168
 1470 0168 7B68     		ldr	r3, [r7, #4]
 1471 016a DB68     		ldr	r3, [r3, #12]
 1472 016c 1649     		ldr	r1, .L97+4
 1473 016e 1343     		orrs	r3, r3, r2
 1474 0170 8B60     		str	r3, [r1, #8]
 1475              	.L95:
 842:Drivers/STM32F7xx_HAL_Driver/Src/stm32f7xx_hal_rcc.c ****   }
 843:Drivers/STM32F7xx_HAL_Driver/Src/stm32f7xx_hal_rcc.c **** 
 844:Drivers/STM32F7xx_HAL_Driver/Src/stm32f7xx_hal_rcc.c ****   /*-------------------------- PCLK2 Configuration ---------------------------*/
 845:Drivers/STM32F7xx_HAL_Driver/Src/stm32f7xx_hal_rcc.c ****   if (((RCC_ClkInitStruct->ClockType) & RCC_CLOCKTYPE_PCLK2) == RCC_CLOCKTYPE_PCLK2)
 1476              		.loc 1 845 26
 1477 0172 7B68     		ldr	r3, [r7, #4]
 1478 0174 1B68     		ldr	r3, [r3]
 1479              		.loc 1 845 39
 1480 0176 03F00803 		and	r3, r3, #8
 1481              		.loc 1 845 6
 1482 017a 002B     		cmp	r3, #0
 1483 017c 09D0     		beq	.L96
 846:Drivers/STM32F7xx_HAL_Driver/Src/stm32f7xx_hal_rcc.c ****   {
 847:Drivers/STM32F7xx_HAL_Driver/Src/stm32f7xx_hal_rcc.c ****     assert_param(IS_RCC_PCLK(RCC_ClkInitStruct->APB2CLKDivider));
 848:Drivers/STM32F7xx_HAL_Driver/Src/stm32f7xx_hal_rcc.c ****     MODIFY_REG(RCC->CFGR, RCC_CFGR_PPRE2, ((RCC_ClkInitStruct->APB2CLKDivider) << 3));
 1484              		.loc 1 848 5
 1485 017e 124B     		ldr	r3, .L97+4
 1486 0180 9B68     		ldr	r3, [r3, #8]
 1487 0182 23F46042 		bic	r2, r3, #57344
 1488 0186 7B68     		ldr	r3, [r7, #4]
 1489 0188 1B69     		ldr	r3, [r3, #16]
 1490 018a DB00     		lsls	r3, r3, #3
 1491 018c 0E49     		ldr	r1, .L97+4
 1492 018e 1343     		orrs	r3, r3, r2
 1493 0190 8B60     		str	r3, [r1, #8]
 1494              	.L96:
 849:Drivers/STM32F7xx_HAL_Driver/Src/stm32f7xx_hal_rcc.c ****   }
 850:Drivers/STM32F7xx_HAL_Driver/Src/stm32f7xx_hal_rcc.c **** 
 851:Drivers/STM32F7xx_HAL_Driver/Src/stm32f7xx_hal_rcc.c ****   /* Update the SystemCoreClock global variable */
 852:Drivers/STM32F7xx_HAL_Driver/Src/stm32f7xx_hal_rcc.c ****   SystemCoreClock = HAL_RCC_GetSysClockFreq() >> AHBPrescTable[(RCC->CFGR & RCC_CFGR_HPRE) >> RCC_C
 1495              		.loc 1 852 21
 1496 0192 FFF7FEFF 		bl	HAL_RCC_GetSysClockFreq
 1497 0196 0246     		mov	r2, r0
 1498              		.loc 1 852 68
 1499 0198 0B4B     		ldr	r3, .L97+4
ARM GAS  /tmp/ccop1lUE.s 			page 43


 1500 019a 9B68     		ldr	r3, [r3, #8]
 1501              		.loc 1 852 92
 1502 019c 1B09     		lsrs	r3, r3, #4
 1503 019e 03F00F03 		and	r3, r3, #15
 1504              		.loc 1 852 63
 1505 01a2 0A49     		ldr	r1, .L97+8
 1506 01a4 CB5C     		ldrb	r3, [r1, r3]	@ zero_extendqisi2
 1507              		.loc 1 852 47
 1508 01a6 22FA03F3 		lsr	r3, r2, r3
 1509              		.loc 1 852 19
 1510 01aa 094A     		ldr	r2, .L97+12
 1511 01ac 1360     		str	r3, [r2]
 853:Drivers/STM32F7xx_HAL_Driver/Src/stm32f7xx_hal_rcc.c **** 
 854:Drivers/STM32F7xx_HAL_Driver/Src/stm32f7xx_hal_rcc.c ****   /* Configure the source of time base considering new system clocks settings*/
 855:Drivers/STM32F7xx_HAL_Driver/Src/stm32f7xx_hal_rcc.c ****   HAL_InitTick(uwTickPrio);
 1512              		.loc 1 855 3
 1513 01ae 094B     		ldr	r3, .L97+16
 1514 01b0 1B68     		ldr	r3, [r3]
 1515 01b2 1846     		mov	r0, r3
 1516 01b4 FFF7FEFF 		bl	HAL_InitTick
 856:Drivers/STM32F7xx_HAL_Driver/Src/stm32f7xx_hal_rcc.c **** 
 857:Drivers/STM32F7xx_HAL_Driver/Src/stm32f7xx_hal_rcc.c ****   return HAL_OK;
 1517              		.loc 1 857 10
 1518 01b8 0023     		movs	r3, #0
 1519              	.L83:
 858:Drivers/STM32F7xx_HAL_Driver/Src/stm32f7xx_hal_rcc.c **** }
 1520              		.loc 1 858 1
 1521 01ba 1846     		mov	r0, r3
 1522 01bc 1037     		adds	r7, r7, #16
 1523              	.LCFI13:
 1524              		.cfi_def_cfa_offset 8
 1525 01be BD46     		mov	sp, r7
 1526              	.LCFI14:
 1527              		.cfi_def_cfa_register 13
 1528              		@ sp needed
 1529 01c0 80BD     		pop	{r7, pc}
 1530              	.L98:
 1531 01c2 00BF     		.align	2
 1532              	.L97:
 1533 01c4 003C0240 		.word	1073888256
 1534 01c8 00380240 		.word	1073887232
 1535 01cc 00000000 		.word	AHBPrescTable
 1536 01d0 00000000 		.word	SystemCoreClock
 1537 01d4 00000000 		.word	uwTickPrio
 1538              		.cfi_endproc
 1539              	.LFE143:
 1541              		.section	.text.HAL_RCC_MCOConfig,"ax",%progbits
 1542              		.align	1
 1543              		.global	HAL_RCC_MCOConfig
 1544              		.syntax unified
 1545              		.thumb
 1546              		.thumb_func
 1547              		.fpu fpv5-d16
 1549              	HAL_RCC_MCOConfig:
 1550              	.LFB144:
 859:Drivers/STM32F7xx_HAL_Driver/Src/stm32f7xx_hal_rcc.c **** 
 860:Drivers/STM32F7xx_HAL_Driver/Src/stm32f7xx_hal_rcc.c **** /**
ARM GAS  /tmp/ccop1lUE.s 			page 44


 861:Drivers/STM32F7xx_HAL_Driver/Src/stm32f7xx_hal_rcc.c ****   * @}
 862:Drivers/STM32F7xx_HAL_Driver/Src/stm32f7xx_hal_rcc.c ****   */
 863:Drivers/STM32F7xx_HAL_Driver/Src/stm32f7xx_hal_rcc.c **** 
 864:Drivers/STM32F7xx_HAL_Driver/Src/stm32f7xx_hal_rcc.c **** /** @defgroup RCC_Exported_Functions_Group2 Peripheral Control functions
 865:Drivers/STM32F7xx_HAL_Driver/Src/stm32f7xx_hal_rcc.c ****   *  @brief   RCC clocks control functions
 866:Drivers/STM32F7xx_HAL_Driver/Src/stm32f7xx_hal_rcc.c ****   *
 867:Drivers/STM32F7xx_HAL_Driver/Src/stm32f7xx_hal_rcc.c ****   @verbatim
 868:Drivers/STM32F7xx_HAL_Driver/Src/stm32f7xx_hal_rcc.c ****   ===============================================================================
 869:Drivers/STM32F7xx_HAL_Driver/Src/stm32f7xx_hal_rcc.c ****                   ##### Peripheral Control functions #####
 870:Drivers/STM32F7xx_HAL_Driver/Src/stm32f7xx_hal_rcc.c ****   ===============================================================================
 871:Drivers/STM32F7xx_HAL_Driver/Src/stm32f7xx_hal_rcc.c ****     [..]
 872:Drivers/STM32F7xx_HAL_Driver/Src/stm32f7xx_hal_rcc.c ****     This subsection provides a set of functions allowing to control the RCC Clocks
 873:Drivers/STM32F7xx_HAL_Driver/Src/stm32f7xx_hal_rcc.c ****     frequencies.
 874:Drivers/STM32F7xx_HAL_Driver/Src/stm32f7xx_hal_rcc.c **** 
 875:Drivers/STM32F7xx_HAL_Driver/Src/stm32f7xx_hal_rcc.c **** @endverbatim
 876:Drivers/STM32F7xx_HAL_Driver/Src/stm32f7xx_hal_rcc.c ****   * @{
 877:Drivers/STM32F7xx_HAL_Driver/Src/stm32f7xx_hal_rcc.c ****   */
 878:Drivers/STM32F7xx_HAL_Driver/Src/stm32f7xx_hal_rcc.c **** 
 879:Drivers/STM32F7xx_HAL_Driver/Src/stm32f7xx_hal_rcc.c **** /**
 880:Drivers/STM32F7xx_HAL_Driver/Src/stm32f7xx_hal_rcc.c ****   * @brief  Selects the clock source to output on MCO1 pin(PA8) or on MCO2 pin(PC9).
 881:Drivers/STM32F7xx_HAL_Driver/Src/stm32f7xx_hal_rcc.c ****   * @note   PA8/PC9 should be configured in alternate function mode.
 882:Drivers/STM32F7xx_HAL_Driver/Src/stm32f7xx_hal_rcc.c ****   * @param  RCC_MCOx specifies the output direction for the clock source.
 883:Drivers/STM32F7xx_HAL_Driver/Src/stm32f7xx_hal_rcc.c ****   *          This parameter can be one of the following values:
 884:Drivers/STM32F7xx_HAL_Driver/Src/stm32f7xx_hal_rcc.c ****   *            @arg RCC_MCO1: Clock source to output on MCO1 pin(PA8).
 885:Drivers/STM32F7xx_HAL_Driver/Src/stm32f7xx_hal_rcc.c ****   *            @arg RCC_MCO2: Clock source to output on MCO2 pin(PC9).
 886:Drivers/STM32F7xx_HAL_Driver/Src/stm32f7xx_hal_rcc.c ****   * @param  RCC_MCOSource specifies the clock source to output.
 887:Drivers/STM32F7xx_HAL_Driver/Src/stm32f7xx_hal_rcc.c ****   *          This parameter can be one of the following values:
 888:Drivers/STM32F7xx_HAL_Driver/Src/stm32f7xx_hal_rcc.c ****   *            @arg RCC_MCO1SOURCE_HSI: HSI clock selected as MCO1 source
 889:Drivers/STM32F7xx_HAL_Driver/Src/stm32f7xx_hal_rcc.c ****   *            @arg RCC_MCO1SOURCE_LSE: LSE clock selected as MCO1 source
 890:Drivers/STM32F7xx_HAL_Driver/Src/stm32f7xx_hal_rcc.c ****   *            @arg RCC_MCO1SOURCE_HSE: HSE clock selected as MCO1 source
 891:Drivers/STM32F7xx_HAL_Driver/Src/stm32f7xx_hal_rcc.c ****   *            @arg RCC_MCO1SOURCE_PLLCLK: main PLL clock selected as MCO1 source
 892:Drivers/STM32F7xx_HAL_Driver/Src/stm32f7xx_hal_rcc.c ****   *            @arg RCC_MCO2SOURCE_SYSCLK: System clock (SYSCLK) selected as MCO2 source
 893:Drivers/STM32F7xx_HAL_Driver/Src/stm32f7xx_hal_rcc.c ****   *            @arg RCC_MCO2SOURCE_PLLI2SCLK: PLLI2S clock selected as MCO2 source
 894:Drivers/STM32F7xx_HAL_Driver/Src/stm32f7xx_hal_rcc.c ****   *            @arg RCC_MCO2SOURCE_HSE: HSE clock selected as MCO2 source
 895:Drivers/STM32F7xx_HAL_Driver/Src/stm32f7xx_hal_rcc.c ****   *            @arg RCC_MCO2SOURCE_PLLCLK: main PLL clock selected as MCO2 source
 896:Drivers/STM32F7xx_HAL_Driver/Src/stm32f7xx_hal_rcc.c ****   * @param  RCC_MCODiv specifies the MCOx prescaler.
 897:Drivers/STM32F7xx_HAL_Driver/Src/stm32f7xx_hal_rcc.c ****   *          This parameter can be one of the following values:
 898:Drivers/STM32F7xx_HAL_Driver/Src/stm32f7xx_hal_rcc.c ****   *            @arg RCC_MCODIV_1: no division applied to MCOx clock
 899:Drivers/STM32F7xx_HAL_Driver/Src/stm32f7xx_hal_rcc.c ****   *            @arg RCC_MCODIV_2: division by 2 applied to MCOx clock
 900:Drivers/STM32F7xx_HAL_Driver/Src/stm32f7xx_hal_rcc.c ****   *            @arg RCC_MCODIV_3: division by 3 applied to MCOx clock
 901:Drivers/STM32F7xx_HAL_Driver/Src/stm32f7xx_hal_rcc.c ****   *            @arg RCC_MCODIV_4: division by 4 applied to MCOx clock
 902:Drivers/STM32F7xx_HAL_Driver/Src/stm32f7xx_hal_rcc.c ****   *            @arg RCC_MCODIV_5: division by 5 applied to MCOx clock
 903:Drivers/STM32F7xx_HAL_Driver/Src/stm32f7xx_hal_rcc.c ****   * @retval None
 904:Drivers/STM32F7xx_HAL_Driver/Src/stm32f7xx_hal_rcc.c ****   */
 905:Drivers/STM32F7xx_HAL_Driver/Src/stm32f7xx_hal_rcc.c **** void HAL_RCC_MCOConfig(uint32_t RCC_MCOx, uint32_t RCC_MCOSource, uint32_t RCC_MCODiv)
 906:Drivers/STM32F7xx_HAL_Driver/Src/stm32f7xx_hal_rcc.c **** {
 1551              		.loc 1 906 1
 1552              		.cfi_startproc
 1553              		@ args = 0, pretend = 0, frame = 48
 1554              		@ frame_needed = 1, uses_anonymous_args = 0
 1555 0000 80B5     		push	{r7, lr}
 1556              	.LCFI15:
 1557              		.cfi_def_cfa_offset 8
 1558              		.cfi_offset 7, -8
 1559              		.cfi_offset 14, -4
 1560 0002 8CB0     		sub	sp, sp, #48
 1561              	.LCFI16:
ARM GAS  /tmp/ccop1lUE.s 			page 45


 1562              		.cfi_def_cfa_offset 56
 1563 0004 00AF     		add	r7, sp, #0
 1564              	.LCFI17:
 1565              		.cfi_def_cfa_register 7
 1566 0006 F860     		str	r0, [r7, #12]
 1567 0008 B960     		str	r1, [r7, #8]
 1568 000a 7A60     		str	r2, [r7, #4]
 907:Drivers/STM32F7xx_HAL_Driver/Src/stm32f7xx_hal_rcc.c ****   GPIO_InitTypeDef GPIO_InitStruct;
 908:Drivers/STM32F7xx_HAL_Driver/Src/stm32f7xx_hal_rcc.c ****   /* Check the parameters */
 909:Drivers/STM32F7xx_HAL_Driver/Src/stm32f7xx_hal_rcc.c ****   assert_param(IS_RCC_MCO(RCC_MCOx));
 910:Drivers/STM32F7xx_HAL_Driver/Src/stm32f7xx_hal_rcc.c ****   assert_param(IS_RCC_MCODIV(RCC_MCODiv));
 911:Drivers/STM32F7xx_HAL_Driver/Src/stm32f7xx_hal_rcc.c ****   /* RCC_MCO1 */
 912:Drivers/STM32F7xx_HAL_Driver/Src/stm32f7xx_hal_rcc.c ****   if (RCC_MCOx == RCC_MCO1)
 1569              		.loc 1 912 6
 1570 000c FB68     		ldr	r3, [r7, #12]
 1571 000e 002B     		cmp	r3, #0
 1572 0010 27D1     		bne	.L100
 1573              	.LBB5:
 913:Drivers/STM32F7xx_HAL_Driver/Src/stm32f7xx_hal_rcc.c ****   {
 914:Drivers/STM32F7xx_HAL_Driver/Src/stm32f7xx_hal_rcc.c ****     assert_param(IS_RCC_MCO1SOURCE(RCC_MCOSource));
 915:Drivers/STM32F7xx_HAL_Driver/Src/stm32f7xx_hal_rcc.c **** 
 916:Drivers/STM32F7xx_HAL_Driver/Src/stm32f7xx_hal_rcc.c ****     /* MCO1 Clock Enable */
 917:Drivers/STM32F7xx_HAL_Driver/Src/stm32f7xx_hal_rcc.c ****     MCO1_CLK_ENABLE();
 1574              		.loc 1 917 5
 1575 0012 2A4B     		ldr	r3, .L103
 1576 0014 1B6B     		ldr	r3, [r3, #48]
 1577 0016 294A     		ldr	r2, .L103
 1578 0018 43F00103 		orr	r3, r3, #1
 1579 001c 1363     		str	r3, [r2, #48]
 1580 001e 274B     		ldr	r3, .L103
 1581 0020 1B6B     		ldr	r3, [r3, #48]
 1582 0022 03F00103 		and	r3, r3, #1
 1583 0026 BB61     		str	r3, [r7, #24]
 1584 0028 BB69     		ldr	r3, [r7, #24]
 1585              	.LBE5:
 918:Drivers/STM32F7xx_HAL_Driver/Src/stm32f7xx_hal_rcc.c **** 
 919:Drivers/STM32F7xx_HAL_Driver/Src/stm32f7xx_hal_rcc.c ****     /* Configure the MCO1 pin in alternate function mode */
 920:Drivers/STM32F7xx_HAL_Driver/Src/stm32f7xx_hal_rcc.c ****     GPIO_InitStruct.Pin = MCO1_PIN;
 1586              		.loc 1 920 25
 1587 002a 4FF48073 		mov	r3, #256
 1588 002e FB61     		str	r3, [r7, #28]
 921:Drivers/STM32F7xx_HAL_Driver/Src/stm32f7xx_hal_rcc.c ****     GPIO_InitStruct.Mode = GPIO_MODE_AF_PP;
 1589              		.loc 1 921 26
 1590 0030 0223     		movs	r3, #2
 1591 0032 3B62     		str	r3, [r7, #32]
 922:Drivers/STM32F7xx_HAL_Driver/Src/stm32f7xx_hal_rcc.c ****     GPIO_InitStruct.Speed = GPIO_SPEED_HIGH;
 1592              		.loc 1 922 27
 1593 0034 0323     		movs	r3, #3
 1594 0036 BB62     		str	r3, [r7, #40]
 923:Drivers/STM32F7xx_HAL_Driver/Src/stm32f7xx_hal_rcc.c ****     GPIO_InitStruct.Pull = GPIO_NOPULL;
 1595              		.loc 1 923 26
 1596 0038 0023     		movs	r3, #0
 1597 003a 7B62     		str	r3, [r7, #36]
 924:Drivers/STM32F7xx_HAL_Driver/Src/stm32f7xx_hal_rcc.c ****     GPIO_InitStruct.Alternate = GPIO_AF0_MCO;
 1598              		.loc 1 924 31
 1599 003c 0023     		movs	r3, #0
 1600 003e FB62     		str	r3, [r7, #44]
ARM GAS  /tmp/ccop1lUE.s 			page 46


 925:Drivers/STM32F7xx_HAL_Driver/Src/stm32f7xx_hal_rcc.c ****     HAL_GPIO_Init(MCO1_GPIO_PORT, &GPIO_InitStruct);
 1601              		.loc 1 925 5
 1602 0040 07F11C03 		add	r3, r7, #28
 1603 0044 1946     		mov	r1, r3
 1604 0046 1E48     		ldr	r0, .L103+4
 1605 0048 FFF7FEFF 		bl	HAL_GPIO_Init
 926:Drivers/STM32F7xx_HAL_Driver/Src/stm32f7xx_hal_rcc.c **** 
 927:Drivers/STM32F7xx_HAL_Driver/Src/stm32f7xx_hal_rcc.c ****     /* Mask MCO1 and MCO1PRE[2:0] bits then Select MCO1 clock source and prescaler */
 928:Drivers/STM32F7xx_HAL_Driver/Src/stm32f7xx_hal_rcc.c ****     MODIFY_REG(RCC->CFGR, (RCC_CFGR_MCO1 | RCC_CFGR_MCO1PRE), (RCC_MCOSource | RCC_MCODiv));
 1606              		.loc 1 928 5
 1607 004c 1B4B     		ldr	r3, .L103
 1608 004e 9B68     		ldr	r3, [r3, #8]
 1609 0050 23F0EC62 		bic	r2, r3, #123731968
 1610 0054 B968     		ldr	r1, [r7, #8]
 1611 0056 7B68     		ldr	r3, [r7, #4]
 1612 0058 0B43     		orrs	r3, r3, r1
 1613 005a 1849     		ldr	r1, .L103
 1614 005c 1343     		orrs	r3, r3, r2
 1615 005e 8B60     		str	r3, [r1, #8]
 929:Drivers/STM32F7xx_HAL_Driver/Src/stm32f7xx_hal_rcc.c ****   }
 930:Drivers/STM32F7xx_HAL_Driver/Src/stm32f7xx_hal_rcc.c ****   else
 931:Drivers/STM32F7xx_HAL_Driver/Src/stm32f7xx_hal_rcc.c ****   {
 932:Drivers/STM32F7xx_HAL_Driver/Src/stm32f7xx_hal_rcc.c ****     assert_param(IS_RCC_MCO2SOURCE(RCC_MCOSource));
 933:Drivers/STM32F7xx_HAL_Driver/Src/stm32f7xx_hal_rcc.c **** 
 934:Drivers/STM32F7xx_HAL_Driver/Src/stm32f7xx_hal_rcc.c ****     /* MCO2 Clock Enable */
 935:Drivers/STM32F7xx_HAL_Driver/Src/stm32f7xx_hal_rcc.c ****     MCO2_CLK_ENABLE();
 936:Drivers/STM32F7xx_HAL_Driver/Src/stm32f7xx_hal_rcc.c **** 
 937:Drivers/STM32F7xx_HAL_Driver/Src/stm32f7xx_hal_rcc.c ****     /* Configure the MCO2 pin in alternate function mode */
 938:Drivers/STM32F7xx_HAL_Driver/Src/stm32f7xx_hal_rcc.c ****     GPIO_InitStruct.Pin = MCO2_PIN;
 939:Drivers/STM32F7xx_HAL_Driver/Src/stm32f7xx_hal_rcc.c ****     GPIO_InitStruct.Mode = GPIO_MODE_AF_PP;
 940:Drivers/STM32F7xx_HAL_Driver/Src/stm32f7xx_hal_rcc.c ****     GPIO_InitStruct.Speed = GPIO_SPEED_HIGH;
 941:Drivers/STM32F7xx_HAL_Driver/Src/stm32f7xx_hal_rcc.c ****     GPIO_InitStruct.Pull = GPIO_NOPULL;
 942:Drivers/STM32F7xx_HAL_Driver/Src/stm32f7xx_hal_rcc.c ****     GPIO_InitStruct.Alternate = GPIO_AF0_MCO;
 943:Drivers/STM32F7xx_HAL_Driver/Src/stm32f7xx_hal_rcc.c ****     HAL_GPIO_Init(MCO2_GPIO_PORT, &GPIO_InitStruct);
 944:Drivers/STM32F7xx_HAL_Driver/Src/stm32f7xx_hal_rcc.c **** 
 945:Drivers/STM32F7xx_HAL_Driver/Src/stm32f7xx_hal_rcc.c ****     /* Mask MCO2 and MCO2PRE[2:0] bits then Select MCO2 clock source and prescaler */
 946:Drivers/STM32F7xx_HAL_Driver/Src/stm32f7xx_hal_rcc.c ****     MODIFY_REG(RCC->CFGR, (RCC_CFGR_MCO2 | RCC_CFGR_MCO2PRE), (RCC_MCOSource | (RCC_MCODiv << 3)));
 947:Drivers/STM32F7xx_HAL_Driver/Src/stm32f7xx_hal_rcc.c ****   }
 948:Drivers/STM32F7xx_HAL_Driver/Src/stm32f7xx_hal_rcc.c **** }
 1616              		.loc 1 948 1
 1617 0060 27E0     		b	.L102
 1618              	.L100:
 1619              	.LBB6:
 935:Drivers/STM32F7xx_HAL_Driver/Src/stm32f7xx_hal_rcc.c **** 
 1620              		.loc 1 935 5
 1621 0062 164B     		ldr	r3, .L103
 1622 0064 1B6B     		ldr	r3, [r3, #48]
 1623 0066 154A     		ldr	r2, .L103
 1624 0068 43F00403 		orr	r3, r3, #4
 1625 006c 1363     		str	r3, [r2, #48]
 1626 006e 134B     		ldr	r3, .L103
 1627 0070 1B6B     		ldr	r3, [r3, #48]
 1628 0072 03F00403 		and	r3, r3, #4
 1629 0076 7B61     		str	r3, [r7, #20]
 1630 0078 7B69     		ldr	r3, [r7, #20]
 1631              	.LBE6:
 938:Drivers/STM32F7xx_HAL_Driver/Src/stm32f7xx_hal_rcc.c ****     GPIO_InitStruct.Mode = GPIO_MODE_AF_PP;
ARM GAS  /tmp/ccop1lUE.s 			page 47


 1632              		.loc 1 938 25
 1633 007a 4FF40073 		mov	r3, #512
 1634 007e FB61     		str	r3, [r7, #28]
 939:Drivers/STM32F7xx_HAL_Driver/Src/stm32f7xx_hal_rcc.c ****     GPIO_InitStruct.Speed = GPIO_SPEED_HIGH;
 1635              		.loc 1 939 26
 1636 0080 0223     		movs	r3, #2
 1637 0082 3B62     		str	r3, [r7, #32]
 940:Drivers/STM32F7xx_HAL_Driver/Src/stm32f7xx_hal_rcc.c ****     GPIO_InitStruct.Pull = GPIO_NOPULL;
 1638              		.loc 1 940 27
 1639 0084 0323     		movs	r3, #3
 1640 0086 BB62     		str	r3, [r7, #40]
 941:Drivers/STM32F7xx_HAL_Driver/Src/stm32f7xx_hal_rcc.c ****     GPIO_InitStruct.Alternate = GPIO_AF0_MCO;
 1641              		.loc 1 941 26
 1642 0088 0023     		movs	r3, #0
 1643 008a 7B62     		str	r3, [r7, #36]
 942:Drivers/STM32F7xx_HAL_Driver/Src/stm32f7xx_hal_rcc.c ****     HAL_GPIO_Init(MCO2_GPIO_PORT, &GPIO_InitStruct);
 1644              		.loc 1 942 31
 1645 008c 0023     		movs	r3, #0
 1646 008e FB62     		str	r3, [r7, #44]
 943:Drivers/STM32F7xx_HAL_Driver/Src/stm32f7xx_hal_rcc.c **** 
 1647              		.loc 1 943 5
 1648 0090 07F11C03 		add	r3, r7, #28
 1649 0094 1946     		mov	r1, r3
 1650 0096 0B48     		ldr	r0, .L103+8
 1651 0098 FFF7FEFF 		bl	HAL_GPIO_Init
 946:Drivers/STM32F7xx_HAL_Driver/Src/stm32f7xx_hal_rcc.c ****   }
 1652              		.loc 1 946 5
 1653 009c 074B     		ldr	r3, .L103
 1654 009e 9B68     		ldr	r3, [r3, #8]
 1655 00a0 23F07842 		bic	r2, r3, #-134217728
 1656 00a4 7B68     		ldr	r3, [r7, #4]
 1657 00a6 D900     		lsls	r1, r3, #3
 1658 00a8 BB68     		ldr	r3, [r7, #8]
 1659 00aa 0B43     		orrs	r3, r3, r1
 1660 00ac 0349     		ldr	r1, .L103
 1661 00ae 1343     		orrs	r3, r3, r2
 1662 00b0 8B60     		str	r3, [r1, #8]
 1663              	.L102:
 1664              		.loc 1 948 1
 1665 00b2 00BF     		nop
 1666 00b4 3037     		adds	r7, r7, #48
 1667              	.LCFI18:
 1668              		.cfi_def_cfa_offset 8
 1669 00b6 BD46     		mov	sp, r7
 1670              	.LCFI19:
 1671              		.cfi_def_cfa_register 13
 1672              		@ sp needed
 1673 00b8 80BD     		pop	{r7, pc}
 1674              	.L104:
 1675 00ba 00BF     		.align	2
 1676              	.L103:
 1677 00bc 00380240 		.word	1073887232
 1678 00c0 00000240 		.word	1073872896
 1679 00c4 00080240 		.word	1073874944
 1680              		.cfi_endproc
 1681              	.LFE144:
 1683              		.section	.text.HAL_RCC_EnableCSS,"ax",%progbits
ARM GAS  /tmp/ccop1lUE.s 			page 48


 1684              		.align	1
 1685              		.global	HAL_RCC_EnableCSS
 1686              		.syntax unified
 1687              		.thumb
 1688              		.thumb_func
 1689              		.fpu fpv5-d16
 1691              	HAL_RCC_EnableCSS:
 1692              	.LFB145:
 949:Drivers/STM32F7xx_HAL_Driver/Src/stm32f7xx_hal_rcc.c **** 
 950:Drivers/STM32F7xx_HAL_Driver/Src/stm32f7xx_hal_rcc.c **** /**
 951:Drivers/STM32F7xx_HAL_Driver/Src/stm32f7xx_hal_rcc.c ****   * @brief  Enables the Clock Security System.
 952:Drivers/STM32F7xx_HAL_Driver/Src/stm32f7xx_hal_rcc.c ****   * @note   If a failure is detected on the HSE oscillator clock, this oscillator
 953:Drivers/STM32F7xx_HAL_Driver/Src/stm32f7xx_hal_rcc.c ****   *         is automatically disabled and an interrupt is generated to inform the
 954:Drivers/STM32F7xx_HAL_Driver/Src/stm32f7xx_hal_rcc.c ****   *         software about the failure (Clock Security System Interrupt, CSSI),
 955:Drivers/STM32F7xx_HAL_Driver/Src/stm32f7xx_hal_rcc.c ****   *         allowing the MCU to perform rescue operations. The CSSI is linked to
 956:Drivers/STM32F7xx_HAL_Driver/Src/stm32f7xx_hal_rcc.c ****   *         the Cortex-M7 NMI (Non-Maskable Interrupt) exception vector.
 957:Drivers/STM32F7xx_HAL_Driver/Src/stm32f7xx_hal_rcc.c ****   * @retval None
 958:Drivers/STM32F7xx_HAL_Driver/Src/stm32f7xx_hal_rcc.c ****   */
 959:Drivers/STM32F7xx_HAL_Driver/Src/stm32f7xx_hal_rcc.c **** void HAL_RCC_EnableCSS(void)
 960:Drivers/STM32F7xx_HAL_Driver/Src/stm32f7xx_hal_rcc.c **** {
 1693              		.loc 1 960 1
 1694              		.cfi_startproc
 1695              		@ args = 0, pretend = 0, frame = 0
 1696              		@ frame_needed = 1, uses_anonymous_args = 0
 1697              		@ link register save eliminated.
 1698 0000 80B4     		push	{r7}
 1699              	.LCFI20:
 1700              		.cfi_def_cfa_offset 4
 1701              		.cfi_offset 7, -4
 1702 0002 00AF     		add	r7, sp, #0
 1703              	.LCFI21:
 1704              		.cfi_def_cfa_register 7
 961:Drivers/STM32F7xx_HAL_Driver/Src/stm32f7xx_hal_rcc.c ****   SET_BIT(RCC->CR, RCC_CR_CSSON);
 1705              		.loc 1 961 3
 1706 0004 054B     		ldr	r3, .L106
 1707 0006 1B68     		ldr	r3, [r3]
 1708 0008 044A     		ldr	r2, .L106
 1709 000a 43F40023 		orr	r3, r3, #524288
 1710 000e 1360     		str	r3, [r2]
 962:Drivers/STM32F7xx_HAL_Driver/Src/stm32f7xx_hal_rcc.c **** }
 1711              		.loc 1 962 1
 1712 0010 00BF     		nop
 1713 0012 BD46     		mov	sp, r7
 1714              	.LCFI22:
 1715              		.cfi_def_cfa_register 13
 1716              		@ sp needed
 1717 0014 5DF8047B 		ldr	r7, [sp], #4
 1718              	.LCFI23:
 1719              		.cfi_restore 7
 1720              		.cfi_def_cfa_offset 0
 1721 0018 7047     		bx	lr
 1722              	.L107:
 1723 001a 00BF     		.align	2
 1724              	.L106:
 1725 001c 00380240 		.word	1073887232
 1726              		.cfi_endproc
 1727              	.LFE145:
ARM GAS  /tmp/ccop1lUE.s 			page 49


 1729              		.section	.text.HAL_RCC_DisableCSS,"ax",%progbits
 1730              		.align	1
 1731              		.global	HAL_RCC_DisableCSS
 1732              		.syntax unified
 1733              		.thumb
 1734              		.thumb_func
 1735              		.fpu fpv5-d16
 1737              	HAL_RCC_DisableCSS:
 1738              	.LFB146:
 963:Drivers/STM32F7xx_HAL_Driver/Src/stm32f7xx_hal_rcc.c **** 
 964:Drivers/STM32F7xx_HAL_Driver/Src/stm32f7xx_hal_rcc.c **** /**
 965:Drivers/STM32F7xx_HAL_Driver/Src/stm32f7xx_hal_rcc.c ****   * @brief  Disables the Clock Security System.
 966:Drivers/STM32F7xx_HAL_Driver/Src/stm32f7xx_hal_rcc.c ****   * @retval None
 967:Drivers/STM32F7xx_HAL_Driver/Src/stm32f7xx_hal_rcc.c ****   */
 968:Drivers/STM32F7xx_HAL_Driver/Src/stm32f7xx_hal_rcc.c **** void HAL_RCC_DisableCSS(void)
 969:Drivers/STM32F7xx_HAL_Driver/Src/stm32f7xx_hal_rcc.c **** {
 1739              		.loc 1 969 1
 1740              		.cfi_startproc
 1741              		@ args = 0, pretend = 0, frame = 0
 1742              		@ frame_needed = 1, uses_anonymous_args = 0
 1743              		@ link register save eliminated.
 1744 0000 80B4     		push	{r7}
 1745              	.LCFI24:
 1746              		.cfi_def_cfa_offset 4
 1747              		.cfi_offset 7, -4
 1748 0002 00AF     		add	r7, sp, #0
 1749              	.LCFI25:
 1750              		.cfi_def_cfa_register 7
 970:Drivers/STM32F7xx_HAL_Driver/Src/stm32f7xx_hal_rcc.c ****   CLEAR_BIT(RCC->CR, RCC_CR_CSSON);
 1751              		.loc 1 970 3
 1752 0004 054B     		ldr	r3, .L109
 1753 0006 1B68     		ldr	r3, [r3]
 1754 0008 044A     		ldr	r2, .L109
 1755 000a 23F40023 		bic	r3, r3, #524288
 1756 000e 1360     		str	r3, [r2]
 971:Drivers/STM32F7xx_HAL_Driver/Src/stm32f7xx_hal_rcc.c **** }
 1757              		.loc 1 971 1
 1758 0010 00BF     		nop
 1759 0012 BD46     		mov	sp, r7
 1760              	.LCFI26:
 1761              		.cfi_def_cfa_register 13
 1762              		@ sp needed
 1763 0014 5DF8047B 		ldr	r7, [sp], #4
 1764              	.LCFI27:
 1765              		.cfi_restore 7
 1766              		.cfi_def_cfa_offset 0
 1767 0018 7047     		bx	lr
 1768              	.L110:
 1769 001a 00BF     		.align	2
 1770              	.L109:
 1771 001c 00380240 		.word	1073887232
 1772              		.cfi_endproc
 1773              	.LFE146:
 1775              		.global	__aeabi_uldivmod
 1776              		.section	.text.HAL_RCC_GetSysClockFreq,"ax",%progbits
 1777              		.align	1
 1778              		.global	HAL_RCC_GetSysClockFreq
ARM GAS  /tmp/ccop1lUE.s 			page 50


 1779              		.syntax unified
 1780              		.thumb
 1781              		.thumb_func
 1782              		.fpu fpv5-d16
 1784              	HAL_RCC_GetSysClockFreq:
 1785              	.LFB147:
 972:Drivers/STM32F7xx_HAL_Driver/Src/stm32f7xx_hal_rcc.c **** 
 973:Drivers/STM32F7xx_HAL_Driver/Src/stm32f7xx_hal_rcc.c **** /**
 974:Drivers/STM32F7xx_HAL_Driver/Src/stm32f7xx_hal_rcc.c ****   * @brief  Returns the SYSCLK frequency
 975:Drivers/STM32F7xx_HAL_Driver/Src/stm32f7xx_hal_rcc.c ****   *
 976:Drivers/STM32F7xx_HAL_Driver/Src/stm32f7xx_hal_rcc.c ****   * @note   The system frequency computed by this function is not the real
 977:Drivers/STM32F7xx_HAL_Driver/Src/stm32f7xx_hal_rcc.c ****   *         frequency in the chip. It is calculated based on the predefined
 978:Drivers/STM32F7xx_HAL_Driver/Src/stm32f7xx_hal_rcc.c ****   *         constant and the selected clock source:
 979:Drivers/STM32F7xx_HAL_Driver/Src/stm32f7xx_hal_rcc.c ****   * @note     If SYSCLK source is HSI, function returns values based on HSI_VALUE(*)
 980:Drivers/STM32F7xx_HAL_Driver/Src/stm32f7xx_hal_rcc.c ****   * @note     If SYSCLK source is HSE, function returns values based on HSE_VALUE(**)
 981:Drivers/STM32F7xx_HAL_Driver/Src/stm32f7xx_hal_rcc.c ****   * @note     If SYSCLK source is PLL, function returns values based on HSE_VALUE(**)
 982:Drivers/STM32F7xx_HAL_Driver/Src/stm32f7xx_hal_rcc.c ****   *           or HSI_VALUE(*) multiplied/divided by the PLL factors.
 983:Drivers/STM32F7xx_HAL_Driver/Src/stm32f7xx_hal_rcc.c ****   * @note     (*) HSI_VALUE is a constant defined in stm32f7xx_hal_conf.h file (default value
 984:Drivers/STM32F7xx_HAL_Driver/Src/stm32f7xx_hal_rcc.c ****   *               16 MHz) but the real value may vary depending on the variations
 985:Drivers/STM32F7xx_HAL_Driver/Src/stm32f7xx_hal_rcc.c ****   *               in voltage and temperature.
 986:Drivers/STM32F7xx_HAL_Driver/Src/stm32f7xx_hal_rcc.c ****   * @note     (**) HSE_VALUE is a constant defined in stm32f7xx_hal_conf.h file (default value
 987:Drivers/STM32F7xx_HAL_Driver/Src/stm32f7xx_hal_rcc.c ****   *                25 MHz), user has to ensure that HSE_VALUE is same as the real
 988:Drivers/STM32F7xx_HAL_Driver/Src/stm32f7xx_hal_rcc.c ****   *                frequency of the crystal used. Otherwise, this function may
 989:Drivers/STM32F7xx_HAL_Driver/Src/stm32f7xx_hal_rcc.c ****   *                have wrong result.
 990:Drivers/STM32F7xx_HAL_Driver/Src/stm32f7xx_hal_rcc.c ****   *
 991:Drivers/STM32F7xx_HAL_Driver/Src/stm32f7xx_hal_rcc.c ****   * @note   The result of this function could be not correct when using fractional
 992:Drivers/STM32F7xx_HAL_Driver/Src/stm32f7xx_hal_rcc.c ****   *         value for HSE crystal.
 993:Drivers/STM32F7xx_HAL_Driver/Src/stm32f7xx_hal_rcc.c ****   *
 994:Drivers/STM32F7xx_HAL_Driver/Src/stm32f7xx_hal_rcc.c ****   * @note   This function can be used by the user application to compute the
 995:Drivers/STM32F7xx_HAL_Driver/Src/stm32f7xx_hal_rcc.c ****   *         baudrate for the communication peripherals or configure other parameters.
 996:Drivers/STM32F7xx_HAL_Driver/Src/stm32f7xx_hal_rcc.c ****   *
 997:Drivers/STM32F7xx_HAL_Driver/Src/stm32f7xx_hal_rcc.c ****   * @note   Each time SYSCLK changes, this function must be called to update the
 998:Drivers/STM32F7xx_HAL_Driver/Src/stm32f7xx_hal_rcc.c ****   *         right SYSCLK value. Otherwise, any configuration based on this function will be incorre
 999:Drivers/STM32F7xx_HAL_Driver/Src/stm32f7xx_hal_rcc.c ****   *
1000:Drivers/STM32F7xx_HAL_Driver/Src/stm32f7xx_hal_rcc.c ****   *
1001:Drivers/STM32F7xx_HAL_Driver/Src/stm32f7xx_hal_rcc.c ****   * @retval SYSCLK frequency
1002:Drivers/STM32F7xx_HAL_Driver/Src/stm32f7xx_hal_rcc.c ****   */
1003:Drivers/STM32F7xx_HAL_Driver/Src/stm32f7xx_hal_rcc.c **** uint32_t HAL_RCC_GetSysClockFreq(void)
1004:Drivers/STM32F7xx_HAL_Driver/Src/stm32f7xx_hal_rcc.c **** {
 1786              		.loc 1 1004 1
 1787              		.cfi_startproc
 1788              		@ args = 0, pretend = 0, frame = 16
 1789              		@ frame_needed = 1, uses_anonymous_args = 0
 1790 0000 B0B5     		push	{r4, r5, r7, lr}
 1791              	.LCFI28:
 1792              		.cfi_def_cfa_offset 16
 1793              		.cfi_offset 4, -16
 1794              		.cfi_offset 5, -12
 1795              		.cfi_offset 7, -8
 1796              		.cfi_offset 14, -4
 1797 0002 84B0     		sub	sp, sp, #16
 1798              	.LCFI29:
 1799              		.cfi_def_cfa_offset 32
 1800 0004 00AF     		add	r7, sp, #0
 1801              	.LCFI30:
 1802              		.cfi_def_cfa_register 7
1005:Drivers/STM32F7xx_HAL_Driver/Src/stm32f7xx_hal_rcc.c ****   uint32_t pllm = 0, pllvco = 0, pllp = 0;
ARM GAS  /tmp/ccop1lUE.s 			page 51


 1803              		.loc 1 1005 12
 1804 0006 0021     		movs	r1, #0
 1805 0008 7960     		str	r1, [r7, #4]
 1806              		.loc 1 1005 22
 1807 000a 0021     		movs	r1, #0
 1808 000c F960     		str	r1, [r7, #12]
 1809              		.loc 1 1005 34
 1810 000e 0021     		movs	r1, #0
 1811 0010 3960     		str	r1, [r7]
1006:Drivers/STM32F7xx_HAL_Driver/Src/stm32f7xx_hal_rcc.c ****   uint32_t sysclockfreq = 0;
 1812              		.loc 1 1006 12
 1813 0012 0021     		movs	r1, #0
 1814 0014 B960     		str	r1, [r7, #8]
1007:Drivers/STM32F7xx_HAL_Driver/Src/stm32f7xx_hal_rcc.c **** 
1008:Drivers/STM32F7xx_HAL_Driver/Src/stm32f7xx_hal_rcc.c ****   /* Get SYSCLK source -------------------------------------------------------*/
1009:Drivers/STM32F7xx_HAL_Driver/Src/stm32f7xx_hal_rcc.c ****   switch (RCC->CFGR & RCC_CFGR_SWS)
 1815              		.loc 1 1009 14
 1816 0016 5249     		ldr	r1, .L120
 1817 0018 8968     		ldr	r1, [r1, #8]
 1818              		.loc 1 1009 21
 1819 001a 01F00C01 		and	r1, r1, #12
 1820              		.loc 1 1009 3
 1821 001e 0829     		cmp	r1, #8
 1822 0020 0DD0     		beq	.L112
 1823 0022 0829     		cmp	r1, #8
 1824 0024 00F29480 		bhi	.L113
 1825 0028 0029     		cmp	r1, #0
 1826 002a 02D0     		beq	.L114
 1827 002c 0429     		cmp	r1, #4
 1828 002e 03D0     		beq	.L115
 1829 0030 8EE0     		b	.L113
 1830              	.L114:
1010:Drivers/STM32F7xx_HAL_Driver/Src/stm32f7xx_hal_rcc.c ****   {
1011:Drivers/STM32F7xx_HAL_Driver/Src/stm32f7xx_hal_rcc.c ****     case RCC_SYSCLKSOURCE_STATUS_HSI:  /* HSI used as system clock source */
1012:Drivers/STM32F7xx_HAL_Driver/Src/stm32f7xx_hal_rcc.c ****     {
1013:Drivers/STM32F7xx_HAL_Driver/Src/stm32f7xx_hal_rcc.c ****       sysclockfreq = HSI_VALUE;
 1831              		.loc 1 1013 20
 1832 0032 4C4B     		ldr	r3, .L120+4
 1833 0034 BB60     		str	r3, [r7, #8]
1014:Drivers/STM32F7xx_HAL_Driver/Src/stm32f7xx_hal_rcc.c ****       break;
 1834              		.loc 1 1014 7
 1835 0036 8EE0     		b	.L116
 1836              	.L115:
1015:Drivers/STM32F7xx_HAL_Driver/Src/stm32f7xx_hal_rcc.c ****     }
1016:Drivers/STM32F7xx_HAL_Driver/Src/stm32f7xx_hal_rcc.c ****     case RCC_SYSCLKSOURCE_STATUS_HSE:  /* HSE used as system clock  source */
1017:Drivers/STM32F7xx_HAL_Driver/Src/stm32f7xx_hal_rcc.c ****     {
1018:Drivers/STM32F7xx_HAL_Driver/Src/stm32f7xx_hal_rcc.c ****       sysclockfreq = HSE_VALUE;
 1837              		.loc 1 1018 20
 1838 0038 4B4B     		ldr	r3, .L120+8
 1839 003a BB60     		str	r3, [r7, #8]
1019:Drivers/STM32F7xx_HAL_Driver/Src/stm32f7xx_hal_rcc.c ****       break;
 1840              		.loc 1 1019 7
 1841 003c 8BE0     		b	.L116
 1842              	.L112:
1020:Drivers/STM32F7xx_HAL_Driver/Src/stm32f7xx_hal_rcc.c ****     }
1021:Drivers/STM32F7xx_HAL_Driver/Src/stm32f7xx_hal_rcc.c ****     case RCC_SYSCLKSOURCE_STATUS_PLLCLK:  /* PLL used as system clock  source */
1022:Drivers/STM32F7xx_HAL_Driver/Src/stm32f7xx_hal_rcc.c ****     {
ARM GAS  /tmp/ccop1lUE.s 			page 52


1023:Drivers/STM32F7xx_HAL_Driver/Src/stm32f7xx_hal_rcc.c ****       /* PLL_VCO = (HSE_VALUE or HSI_VALUE / PLLM) * PLLN
1024:Drivers/STM32F7xx_HAL_Driver/Src/stm32f7xx_hal_rcc.c ****       SYSCLK = PLL_VCO / PLLP */
1025:Drivers/STM32F7xx_HAL_Driver/Src/stm32f7xx_hal_rcc.c ****       pllm = RCC->PLLCFGR & RCC_PLLCFGR_PLLM;
 1843              		.loc 1 1025 17
 1844 003e 4849     		ldr	r1, .L120
 1845 0040 4968     		ldr	r1, [r1, #4]
 1846              		.loc 1 1025 12
 1847 0042 01F03F01 		and	r1, r1, #63
 1848 0046 7960     		str	r1, [r7, #4]
1026:Drivers/STM32F7xx_HAL_Driver/Src/stm32f7xx_hal_rcc.c ****       if (__HAL_RCC_GET_PLL_OSCSOURCE() != RCC_PLLCFGR_PLLSRC_HSI)
 1849              		.loc 1 1026 11
 1850 0048 4549     		ldr	r1, .L120
 1851 004a 4968     		ldr	r1, [r1, #4]
 1852 004c 01F48001 		and	r1, r1, #4194304
 1853              		.loc 1 1026 10
 1854 0050 0029     		cmp	r1, #0
 1855 0052 24D0     		beq	.L117
1027:Drivers/STM32F7xx_HAL_Driver/Src/stm32f7xx_hal_rcc.c ****       {
1028:Drivers/STM32F7xx_HAL_Driver/Src/stm32f7xx_hal_rcc.c ****         /* HSE used as PLL clock source */
1029:Drivers/STM32F7xx_HAL_Driver/Src/stm32f7xx_hal_rcc.c ****         pllvco = (uint32_t)((((uint64_t) HSE_VALUE * ((uint64_t)((RCC->PLLCFGR & RCC_PLLCFGR_PLLN) 
 1856              		.loc 1 1029 70
 1857 0054 4249     		ldr	r1, .L120
 1858 0056 4968     		ldr	r1, [r1, #4]
 1859              		.loc 1 1029 100
 1860 0058 8909     		lsrs	r1, r1, #6
 1861              		.loc 1 1029 55
 1862 005a 0846     		mov	r0, r1
 1863 005c 4FF00001 		mov	r1, #0
 1864 0060 40F2FF14 		movw	r4, #511
 1865 0064 4FF00005 		mov	r5, #0
 1866 0068 00EA0402 		and	r2, r0, r4
 1867 006c 01EA0503 		and	r3, r1, r5
 1868              		.loc 1 1029 52
 1869 0070 3D49     		ldr	r1, .L120+8
 1870 0072 01FB03F0 		mul	r0, r1, r3
 1871 0076 0021     		movs	r1, #0
 1872 0078 01FB02F1 		mul	r1, r1, r2
 1873 007c 4418     		adds	r4, r0, r1
 1874 007e 3A49     		ldr	r1, .L120+8
 1875 0080 A2FB0101 		umull	r0, r1, r2, r1
 1876 0084 6318     		adds	r3, r4, r1
 1877 0086 1946     		mov	r1, r3
 1878              		.loc 1 1029 130
 1879 0088 7B68     		ldr	r3, [r7, #4]
 1880 008a 1A46     		mov	r2, r3
 1881 008c 4FF00003 		mov	r3, #0
 1882              		.loc 1 1029 128
 1883 0090 FFF7FEFF 		bl	__aeabi_uldivmod
 1884              	.LVL0:
 1885 0094 0246     		mov	r2, r0
 1886 0096 0B46     		mov	r3, r1
 1887              		.loc 1 1029 16
 1888 0098 1346     		mov	r3, r2
 1889 009a FB60     		str	r3, [r7, #12]
 1890 009c 4AE0     		b	.L118
 1891              	.L117:
1030:Drivers/STM32F7xx_HAL_Driver/Src/stm32f7xx_hal_rcc.c ****       }
ARM GAS  /tmp/ccop1lUE.s 			page 53


1031:Drivers/STM32F7xx_HAL_Driver/Src/stm32f7xx_hal_rcc.c ****       else
1032:Drivers/STM32F7xx_HAL_Driver/Src/stm32f7xx_hal_rcc.c ****       {
1033:Drivers/STM32F7xx_HAL_Driver/Src/stm32f7xx_hal_rcc.c ****         /* HSI used as PLL clock source */
1034:Drivers/STM32F7xx_HAL_Driver/Src/stm32f7xx_hal_rcc.c ****         pllvco = (uint32_t)((((uint64_t) HSI_VALUE * ((uint64_t)((RCC->PLLCFGR & RCC_PLLCFGR_PLLN) 
 1892              		.loc 1 1034 70
 1893 009e 304B     		ldr	r3, .L120
 1894 00a0 5B68     		ldr	r3, [r3, #4]
 1895              		.loc 1 1034 100
 1896 00a2 9B09     		lsrs	r3, r3, #6
 1897              		.loc 1 1034 55
 1898 00a4 1A46     		mov	r2, r3
 1899 00a6 4FF00003 		mov	r3, #0
 1900 00aa 40F2FF10 		movw	r0, #511
 1901 00ae 4FF00001 		mov	r1, #0
 1902 00b2 02EA0004 		and	r4, r2, r0
 1903 00b6 03EA0105 		and	r5, r3, r1
 1904              		.loc 1 1034 52
 1905 00ba 2046     		mov	r0, r4
 1906 00bc 2946     		mov	r1, r5
 1907 00be 4FF00002 		mov	r2, #0
 1908 00c2 4FF00003 		mov	r3, #0
 1909 00c6 4B01     		lsls	r3, r1, #5
 1910 00c8 43EAD063 		orr	r3, r3, r0, lsr #27
 1911 00cc 4201     		lsls	r2, r0, #5
 1912 00ce 1046     		mov	r0, r2
 1913 00d0 1946     		mov	r1, r3
 1914 00d2 001B     		subs	r0, r0, r4
 1915 00d4 61EB0501 		sbc	r1, r1, r5
 1916 00d8 4FF00002 		mov	r2, #0
 1917 00dc 4FF00003 		mov	r3, #0
 1918 00e0 8B01     		lsls	r3, r1, #6
 1919 00e2 43EA9063 		orr	r3, r3, r0, lsr #26
 1920 00e6 8201     		lsls	r2, r0, #6
 1921 00e8 121A     		subs	r2, r2, r0
 1922 00ea 63EB0103 		sbc	r3, r3, r1
 1923 00ee 4FF00000 		mov	r0, #0
 1924 00f2 4FF00001 		mov	r1, #0
 1925 00f6 D900     		lsls	r1, r3, #3
 1926 00f8 41EA5271 		orr	r1, r1, r2, lsr #29
 1927 00fc D000     		lsls	r0, r2, #3
 1928 00fe 0246     		mov	r2, r0
 1929 0100 0B46     		mov	r3, r1
 1930 0102 1219     		adds	r2, r2, r4
 1931 0104 45EB0303 		adc	r3, r5, r3
 1932 0108 4FF00000 		mov	r0, #0
 1933 010c 4FF00001 		mov	r1, #0
 1934 0110 9902     		lsls	r1, r3, #10
 1935 0112 41EA9251 		orr	r1, r1, r2, lsr #22
 1936 0116 9002     		lsls	r0, r2, #10
 1937 0118 0246     		mov	r2, r0
 1938 011a 0B46     		mov	r3, r1
 1939 011c 1046     		mov	r0, r2
 1940 011e 1946     		mov	r1, r3
 1941              		.loc 1 1034 130
 1942 0120 7B68     		ldr	r3, [r7, #4]
 1943 0122 1A46     		mov	r2, r3
 1944 0124 4FF00003 		mov	r3, #0
ARM GAS  /tmp/ccop1lUE.s 			page 54


 1945              		.loc 1 1034 128
 1946 0128 FFF7FEFF 		bl	__aeabi_uldivmod
 1947              	.LVL1:
 1948 012c 0246     		mov	r2, r0
 1949 012e 0B46     		mov	r3, r1
 1950              		.loc 1 1034 16
 1951 0130 1346     		mov	r3, r2
 1952 0132 FB60     		str	r3, [r7, #12]
 1953              	.L118:
1035:Drivers/STM32F7xx_HAL_Driver/Src/stm32f7xx_hal_rcc.c ****       }
1036:Drivers/STM32F7xx_HAL_Driver/Src/stm32f7xx_hal_rcc.c ****       pllp = ((((RCC->PLLCFGR & RCC_PLLCFGR_PLLP) >> RCC_PLLCFGR_PLLP_Pos) + 1) * 2);
 1954              		.loc 1 1036 21
 1955 0134 0A4B     		ldr	r3, .L120
 1956 0136 5B68     		ldr	r3, [r3, #4]
 1957              		.loc 1 1036 51
 1958 0138 1B0C     		lsrs	r3, r3, #16
 1959 013a 03F00303 		and	r3, r3, #3
 1960              		.loc 1 1036 76
 1961 013e 0133     		adds	r3, r3, #1
 1962              		.loc 1 1036 12
 1963 0140 5B00     		lsls	r3, r3, #1
 1964 0142 3B60     		str	r3, [r7]
1037:Drivers/STM32F7xx_HAL_Driver/Src/stm32f7xx_hal_rcc.c **** 
1038:Drivers/STM32F7xx_HAL_Driver/Src/stm32f7xx_hal_rcc.c ****       sysclockfreq = pllvco / pllp;
 1965              		.loc 1 1038 20
 1966 0144 FA68     		ldr	r2, [r7, #12]
 1967 0146 3B68     		ldr	r3, [r7]
 1968 0148 B2FBF3F3 		udiv	r3, r2, r3
 1969 014c BB60     		str	r3, [r7, #8]
1039:Drivers/STM32F7xx_HAL_Driver/Src/stm32f7xx_hal_rcc.c ****       break;
 1970              		.loc 1 1039 7
 1971 014e 02E0     		b	.L116
 1972              	.L113:
1040:Drivers/STM32F7xx_HAL_Driver/Src/stm32f7xx_hal_rcc.c ****     }
1041:Drivers/STM32F7xx_HAL_Driver/Src/stm32f7xx_hal_rcc.c ****     default:
1042:Drivers/STM32F7xx_HAL_Driver/Src/stm32f7xx_hal_rcc.c ****     {
1043:Drivers/STM32F7xx_HAL_Driver/Src/stm32f7xx_hal_rcc.c ****       sysclockfreq = HSI_VALUE;
 1973              		.loc 1 1043 20
 1974 0150 044B     		ldr	r3, .L120+4
 1975 0152 BB60     		str	r3, [r7, #8]
1044:Drivers/STM32F7xx_HAL_Driver/Src/stm32f7xx_hal_rcc.c ****       break;
 1976              		.loc 1 1044 7
 1977 0154 00BF     		nop
 1978              	.L116:
1045:Drivers/STM32F7xx_HAL_Driver/Src/stm32f7xx_hal_rcc.c ****     }
1046:Drivers/STM32F7xx_HAL_Driver/Src/stm32f7xx_hal_rcc.c ****   }
1047:Drivers/STM32F7xx_HAL_Driver/Src/stm32f7xx_hal_rcc.c ****   return sysclockfreq;
 1979              		.loc 1 1047 10
 1980 0156 BB68     		ldr	r3, [r7, #8]
1048:Drivers/STM32F7xx_HAL_Driver/Src/stm32f7xx_hal_rcc.c **** }
 1981              		.loc 1 1048 1
 1982 0158 1846     		mov	r0, r3
 1983 015a 1037     		adds	r7, r7, #16
 1984              	.LCFI31:
 1985              		.cfi_def_cfa_offset 16
 1986 015c BD46     		mov	sp, r7
 1987              	.LCFI32:
ARM GAS  /tmp/ccop1lUE.s 			page 55


 1988              		.cfi_def_cfa_register 13
 1989              		@ sp needed
 1990 015e B0BD     		pop	{r4, r5, r7, pc}
 1991              	.L121:
 1992              		.align	2
 1993              	.L120:
 1994 0160 00380240 		.word	1073887232
 1995 0164 0024F400 		.word	16000000
 1996 0168 40787D01 		.word	25000000
 1997              		.cfi_endproc
 1998              	.LFE147:
 2000              		.section	.text.HAL_RCC_GetHCLKFreq,"ax",%progbits
 2001              		.align	1
 2002              		.global	HAL_RCC_GetHCLKFreq
 2003              		.syntax unified
 2004              		.thumb
 2005              		.thumb_func
 2006              		.fpu fpv5-d16
 2008              	HAL_RCC_GetHCLKFreq:
 2009              	.LFB148:
1049:Drivers/STM32F7xx_HAL_Driver/Src/stm32f7xx_hal_rcc.c **** 
1050:Drivers/STM32F7xx_HAL_Driver/Src/stm32f7xx_hal_rcc.c **** /**
1051:Drivers/STM32F7xx_HAL_Driver/Src/stm32f7xx_hal_rcc.c ****   * @brief  Returns the HCLK frequency
1052:Drivers/STM32F7xx_HAL_Driver/Src/stm32f7xx_hal_rcc.c ****   * @note   Each time HCLK changes, this function must be called to update the
1053:Drivers/STM32F7xx_HAL_Driver/Src/stm32f7xx_hal_rcc.c ****   *         right HCLK value. Otherwise, any configuration based on this function will be incorrect
1054:Drivers/STM32F7xx_HAL_Driver/Src/stm32f7xx_hal_rcc.c ****   * @note   The SystemCoreClock CMSIS variable is used to store System Clock Frequency.
1055:Drivers/STM32F7xx_HAL_Driver/Src/stm32f7xx_hal_rcc.c ****   * @retval HCLK frequency
1056:Drivers/STM32F7xx_HAL_Driver/Src/stm32f7xx_hal_rcc.c ****   */
1057:Drivers/STM32F7xx_HAL_Driver/Src/stm32f7xx_hal_rcc.c **** uint32_t HAL_RCC_GetHCLKFreq(void)
1058:Drivers/STM32F7xx_HAL_Driver/Src/stm32f7xx_hal_rcc.c **** {
 2010              		.loc 1 1058 1
 2011              		.cfi_startproc
 2012              		@ args = 0, pretend = 0, frame = 0
 2013              		@ frame_needed = 1, uses_anonymous_args = 0
 2014              		@ link register save eliminated.
 2015 0000 80B4     		push	{r7}
 2016              	.LCFI33:
 2017              		.cfi_def_cfa_offset 4
 2018              		.cfi_offset 7, -4
 2019 0002 00AF     		add	r7, sp, #0
 2020              	.LCFI34:
 2021              		.cfi_def_cfa_register 7
1059:Drivers/STM32F7xx_HAL_Driver/Src/stm32f7xx_hal_rcc.c ****   return SystemCoreClock;
 2022              		.loc 1 1059 10
 2023 0004 034B     		ldr	r3, .L124
 2024 0006 1B68     		ldr	r3, [r3]
1060:Drivers/STM32F7xx_HAL_Driver/Src/stm32f7xx_hal_rcc.c **** }
 2025              		.loc 1 1060 1
 2026 0008 1846     		mov	r0, r3
 2027 000a BD46     		mov	sp, r7
 2028              	.LCFI35:
 2029              		.cfi_def_cfa_register 13
 2030              		@ sp needed
 2031 000c 5DF8047B 		ldr	r7, [sp], #4
 2032              	.LCFI36:
 2033              		.cfi_restore 7
 2034              		.cfi_def_cfa_offset 0
ARM GAS  /tmp/ccop1lUE.s 			page 56


 2035 0010 7047     		bx	lr
 2036              	.L125:
 2037 0012 00BF     		.align	2
 2038              	.L124:
 2039 0014 00000000 		.word	SystemCoreClock
 2040              		.cfi_endproc
 2041              	.LFE148:
 2043              		.section	.text.HAL_RCC_GetPCLK1Freq,"ax",%progbits
 2044              		.align	1
 2045              		.global	HAL_RCC_GetPCLK1Freq
 2046              		.syntax unified
 2047              		.thumb
 2048              		.thumb_func
 2049              		.fpu fpv5-d16
 2051              	HAL_RCC_GetPCLK1Freq:
 2052              	.LFB149:
1061:Drivers/STM32F7xx_HAL_Driver/Src/stm32f7xx_hal_rcc.c **** 
1062:Drivers/STM32F7xx_HAL_Driver/Src/stm32f7xx_hal_rcc.c **** /**
1063:Drivers/STM32F7xx_HAL_Driver/Src/stm32f7xx_hal_rcc.c ****   * @brief  Returns the PCLK1 frequency
1064:Drivers/STM32F7xx_HAL_Driver/Src/stm32f7xx_hal_rcc.c ****   * @note   Each time PCLK1 changes, this function must be called to update the
1065:Drivers/STM32F7xx_HAL_Driver/Src/stm32f7xx_hal_rcc.c ****   *         right PCLK1 value. Otherwise, any configuration based on this function will be incorrec
1066:Drivers/STM32F7xx_HAL_Driver/Src/stm32f7xx_hal_rcc.c ****   * @retval PCLK1 frequency
1067:Drivers/STM32F7xx_HAL_Driver/Src/stm32f7xx_hal_rcc.c ****   */
1068:Drivers/STM32F7xx_HAL_Driver/Src/stm32f7xx_hal_rcc.c **** uint32_t HAL_RCC_GetPCLK1Freq(void)
1069:Drivers/STM32F7xx_HAL_Driver/Src/stm32f7xx_hal_rcc.c **** {
 2053              		.loc 1 1069 1
 2054              		.cfi_startproc
 2055              		@ args = 0, pretend = 0, frame = 0
 2056              		@ frame_needed = 1, uses_anonymous_args = 0
 2057 0000 80B5     		push	{r7, lr}
 2058              	.LCFI37:
 2059              		.cfi_def_cfa_offset 8
 2060              		.cfi_offset 7, -8
 2061              		.cfi_offset 14, -4
 2062 0002 00AF     		add	r7, sp, #0
 2063              	.LCFI38:
 2064              		.cfi_def_cfa_register 7
1070:Drivers/STM32F7xx_HAL_Driver/Src/stm32f7xx_hal_rcc.c ****   /* Get HCLK source and Compute PCLK1 frequency ---------------------------*/
1071:Drivers/STM32F7xx_HAL_Driver/Src/stm32f7xx_hal_rcc.c ****   return (HAL_RCC_GetHCLKFreq() >> APBPrescTable[(RCC->CFGR & RCC_CFGR_PPRE1) >> RCC_CFGR_PPRE1_Pos
 2065              		.loc 1 1071 11
 2066 0004 FFF7FEFF 		bl	HAL_RCC_GetHCLKFreq
 2067 0008 0246     		mov	r2, r0
 2068              		.loc 1 1071 54
 2069 000a 054B     		ldr	r3, .L128
 2070 000c 9B68     		ldr	r3, [r3, #8]
 2071              		.loc 1 1071 79
 2072 000e 9B0A     		lsrs	r3, r3, #10
 2073 0010 03F00703 		and	r3, r3, #7
 2074              		.loc 1 1071 49
 2075 0014 0349     		ldr	r1, .L128+4
 2076 0016 CB5C     		ldrb	r3, [r1, r3]	@ zero_extendqisi2
 2077              		.loc 1 1071 33
 2078 0018 22FA03F3 		lsr	r3, r2, r3
1072:Drivers/STM32F7xx_HAL_Driver/Src/stm32f7xx_hal_rcc.c **** }
 2079              		.loc 1 1072 1
 2080 001c 1846     		mov	r0, r3
 2081 001e 80BD     		pop	{r7, pc}
ARM GAS  /tmp/ccop1lUE.s 			page 57


 2082              	.L129:
 2083              		.align	2
 2084              	.L128:
 2085 0020 00380240 		.word	1073887232
 2086 0024 00000000 		.word	APBPrescTable
 2087              		.cfi_endproc
 2088              	.LFE149:
 2090              		.section	.text.HAL_RCC_GetPCLK2Freq,"ax",%progbits
 2091              		.align	1
 2092              		.global	HAL_RCC_GetPCLK2Freq
 2093              		.syntax unified
 2094              		.thumb
 2095              		.thumb_func
 2096              		.fpu fpv5-d16
 2098              	HAL_RCC_GetPCLK2Freq:
 2099              	.LFB150:
1073:Drivers/STM32F7xx_HAL_Driver/Src/stm32f7xx_hal_rcc.c **** 
1074:Drivers/STM32F7xx_HAL_Driver/Src/stm32f7xx_hal_rcc.c **** /**
1075:Drivers/STM32F7xx_HAL_Driver/Src/stm32f7xx_hal_rcc.c ****   * @brief  Returns the PCLK2 frequency
1076:Drivers/STM32F7xx_HAL_Driver/Src/stm32f7xx_hal_rcc.c ****   * @note   Each time PCLK2 changes, this function must be called to update the
1077:Drivers/STM32F7xx_HAL_Driver/Src/stm32f7xx_hal_rcc.c ****   *         right PCLK2 value. Otherwise, any configuration based on this function will be incorrec
1078:Drivers/STM32F7xx_HAL_Driver/Src/stm32f7xx_hal_rcc.c ****   * @retval PCLK2 frequency
1079:Drivers/STM32F7xx_HAL_Driver/Src/stm32f7xx_hal_rcc.c ****   */
1080:Drivers/STM32F7xx_HAL_Driver/Src/stm32f7xx_hal_rcc.c **** uint32_t HAL_RCC_GetPCLK2Freq(void)
1081:Drivers/STM32F7xx_HAL_Driver/Src/stm32f7xx_hal_rcc.c **** {
 2100              		.loc 1 1081 1
 2101              		.cfi_startproc
 2102              		@ args = 0, pretend = 0, frame = 0
 2103              		@ frame_needed = 1, uses_anonymous_args = 0
 2104 0000 80B5     		push	{r7, lr}
 2105              	.LCFI39:
 2106              		.cfi_def_cfa_offset 8
 2107              		.cfi_offset 7, -8
 2108              		.cfi_offset 14, -4
 2109 0002 00AF     		add	r7, sp, #0
 2110              	.LCFI40:
 2111              		.cfi_def_cfa_register 7
1082:Drivers/STM32F7xx_HAL_Driver/Src/stm32f7xx_hal_rcc.c ****   /* Get HCLK source and Compute PCLK2 frequency ---------------------------*/
1083:Drivers/STM32F7xx_HAL_Driver/Src/stm32f7xx_hal_rcc.c ****   return (HAL_RCC_GetHCLKFreq() >> APBPrescTable[(RCC->CFGR & RCC_CFGR_PPRE2) >> RCC_CFGR_PPRE2_Pos
 2112              		.loc 1 1083 11
 2113 0004 FFF7FEFF 		bl	HAL_RCC_GetHCLKFreq
 2114 0008 0246     		mov	r2, r0
 2115              		.loc 1 1083 54
 2116 000a 054B     		ldr	r3, .L132
 2117 000c 9B68     		ldr	r3, [r3, #8]
 2118              		.loc 1 1083 79
 2119 000e 5B0B     		lsrs	r3, r3, #13
 2120 0010 03F00703 		and	r3, r3, #7
 2121              		.loc 1 1083 49
 2122 0014 0349     		ldr	r1, .L132+4
 2123 0016 CB5C     		ldrb	r3, [r1, r3]	@ zero_extendqisi2
 2124              		.loc 1 1083 33
 2125 0018 22FA03F3 		lsr	r3, r2, r3
1084:Drivers/STM32F7xx_HAL_Driver/Src/stm32f7xx_hal_rcc.c **** }
 2126              		.loc 1 1084 1
 2127 001c 1846     		mov	r0, r3
 2128 001e 80BD     		pop	{r7, pc}
ARM GAS  /tmp/ccop1lUE.s 			page 58


 2129              	.L133:
 2130              		.align	2
 2131              	.L132:
 2132 0020 00380240 		.word	1073887232
 2133 0024 00000000 		.word	APBPrescTable
 2134              		.cfi_endproc
 2135              	.LFE150:
 2137              		.section	.text.HAL_RCC_GetOscConfig,"ax",%progbits
 2138              		.align	1
 2139              		.global	HAL_RCC_GetOscConfig
 2140              		.syntax unified
 2141              		.thumb
 2142              		.thumb_func
 2143              		.fpu fpv5-d16
 2145              	HAL_RCC_GetOscConfig:
 2146              	.LFB151:
1085:Drivers/STM32F7xx_HAL_Driver/Src/stm32f7xx_hal_rcc.c **** 
1086:Drivers/STM32F7xx_HAL_Driver/Src/stm32f7xx_hal_rcc.c **** /**
1087:Drivers/STM32F7xx_HAL_Driver/Src/stm32f7xx_hal_rcc.c ****   * @brief  Configures the RCC_OscInitStruct according to the internal
1088:Drivers/STM32F7xx_HAL_Driver/Src/stm32f7xx_hal_rcc.c ****   * RCC configuration registers.
1089:Drivers/STM32F7xx_HAL_Driver/Src/stm32f7xx_hal_rcc.c ****   * @param  RCC_OscInitStruct pointer to an RCC_OscInitTypeDef structure that
1090:Drivers/STM32F7xx_HAL_Driver/Src/stm32f7xx_hal_rcc.c ****   * will be configured.
1091:Drivers/STM32F7xx_HAL_Driver/Src/stm32f7xx_hal_rcc.c ****   * @retval None
1092:Drivers/STM32F7xx_HAL_Driver/Src/stm32f7xx_hal_rcc.c ****   */
1093:Drivers/STM32F7xx_HAL_Driver/Src/stm32f7xx_hal_rcc.c **** void HAL_RCC_GetOscConfig(RCC_OscInitTypeDef  *RCC_OscInitStruct)
1094:Drivers/STM32F7xx_HAL_Driver/Src/stm32f7xx_hal_rcc.c **** {
 2147              		.loc 1 1094 1
 2148              		.cfi_startproc
 2149              		@ args = 0, pretend = 0, frame = 16
 2150              		@ frame_needed = 1, uses_anonymous_args = 0
 2151              		@ link register save eliminated.
 2152 0000 80B4     		push	{r7}
 2153              	.LCFI41:
 2154              		.cfi_def_cfa_offset 4
 2155              		.cfi_offset 7, -4
 2156 0002 85B0     		sub	sp, sp, #20
 2157              	.LCFI42:
 2158              		.cfi_def_cfa_offset 24
 2159 0004 00AF     		add	r7, sp, #0
 2160              	.LCFI43:
 2161              		.cfi_def_cfa_register 7
 2162 0006 7860     		str	r0, [r7, #4]
1095:Drivers/STM32F7xx_HAL_Driver/Src/stm32f7xx_hal_rcc.c ****   /* Set all possible values for the Oscillator type parameter ---------------*/
1096:Drivers/STM32F7xx_HAL_Driver/Src/stm32f7xx_hal_rcc.c ****   RCC_OscInitStruct->OscillatorType = RCC_OSCILLATORTYPE_HSE | RCC_OSCILLATORTYPE_HSI | RCC_OSCILLA
 2163              		.loc 1 1096 37
 2164 0008 7B68     		ldr	r3, [r7, #4]
 2165 000a 0F22     		movs	r2, #15
 2166 000c 1A60     		str	r2, [r3]
1097:Drivers/STM32F7xx_HAL_Driver/Src/stm32f7xx_hal_rcc.c **** 
1098:Drivers/STM32F7xx_HAL_Driver/Src/stm32f7xx_hal_rcc.c ****   /* Get the HSE configuration -----------------------------------------------*/
1099:Drivers/STM32F7xx_HAL_Driver/Src/stm32f7xx_hal_rcc.c ****   if ((RCC->CR & RCC_CR_HSEBYP) == RCC_CR_HSEBYP)
 2167              		.loc 1 1099 11
 2168 000e 4F4B     		ldr	r3, .L148
 2169 0010 1B68     		ldr	r3, [r3]
 2170              		.loc 1 1099 16
 2171 0012 03F48023 		and	r3, r3, #262144
 2172              		.loc 1 1099 6
ARM GAS  /tmp/ccop1lUE.s 			page 59


 2173 0016 B3F5802F 		cmp	r3, #262144
 2174 001a 04D1     		bne	.L135
1100:Drivers/STM32F7xx_HAL_Driver/Src/stm32f7xx_hal_rcc.c ****   {
1101:Drivers/STM32F7xx_HAL_Driver/Src/stm32f7xx_hal_rcc.c ****     RCC_OscInitStruct->HSEState = RCC_HSE_BYPASS;
 2175              		.loc 1 1101 33
 2176 001c 7B68     		ldr	r3, [r7, #4]
 2177 001e 4FF4A022 		mov	r2, #327680
 2178 0022 5A60     		str	r2, [r3, #4]
 2179 0024 0EE0     		b	.L136
 2180              	.L135:
1102:Drivers/STM32F7xx_HAL_Driver/Src/stm32f7xx_hal_rcc.c ****   }
1103:Drivers/STM32F7xx_HAL_Driver/Src/stm32f7xx_hal_rcc.c ****   else if ((RCC->CR & RCC_CR_HSEON) == RCC_CR_HSEON)
 2181              		.loc 1 1103 16
 2182 0026 494B     		ldr	r3, .L148
 2183 0028 1B68     		ldr	r3, [r3]
 2184              		.loc 1 1103 21
 2185 002a 03F48033 		and	r3, r3, #65536
 2186              		.loc 1 1103 11
 2187 002e B3F5803F 		cmp	r3, #65536
 2188 0032 04D1     		bne	.L137
1104:Drivers/STM32F7xx_HAL_Driver/Src/stm32f7xx_hal_rcc.c ****   {
1105:Drivers/STM32F7xx_HAL_Driver/Src/stm32f7xx_hal_rcc.c ****     RCC_OscInitStruct->HSEState = RCC_HSE_ON;
 2189              		.loc 1 1105 33
 2190 0034 7B68     		ldr	r3, [r7, #4]
 2191 0036 4FF48032 		mov	r2, #65536
 2192 003a 5A60     		str	r2, [r3, #4]
 2193 003c 02E0     		b	.L136
 2194              	.L137:
1106:Drivers/STM32F7xx_HAL_Driver/Src/stm32f7xx_hal_rcc.c ****   }
1107:Drivers/STM32F7xx_HAL_Driver/Src/stm32f7xx_hal_rcc.c ****   else
1108:Drivers/STM32F7xx_HAL_Driver/Src/stm32f7xx_hal_rcc.c ****   {
1109:Drivers/STM32F7xx_HAL_Driver/Src/stm32f7xx_hal_rcc.c ****     RCC_OscInitStruct->HSEState = RCC_HSE_OFF;
 2195              		.loc 1 1109 33
 2196 003e 7B68     		ldr	r3, [r7, #4]
 2197 0040 0022     		movs	r2, #0
 2198 0042 5A60     		str	r2, [r3, #4]
 2199              	.L136:
1110:Drivers/STM32F7xx_HAL_Driver/Src/stm32f7xx_hal_rcc.c ****   }
1111:Drivers/STM32F7xx_HAL_Driver/Src/stm32f7xx_hal_rcc.c **** 
1112:Drivers/STM32F7xx_HAL_Driver/Src/stm32f7xx_hal_rcc.c ****   /* Get the HSI configuration -----------------------------------------------*/
1113:Drivers/STM32F7xx_HAL_Driver/Src/stm32f7xx_hal_rcc.c ****   if ((RCC->CR & RCC_CR_HSION) == RCC_CR_HSION)
 2200              		.loc 1 1113 11
 2201 0044 414B     		ldr	r3, .L148
 2202 0046 1B68     		ldr	r3, [r3]
 2203              		.loc 1 1113 16
 2204 0048 03F00103 		and	r3, r3, #1
 2205              		.loc 1 1113 6
 2206 004c 012B     		cmp	r3, #1
 2207 004e 03D1     		bne	.L138
1114:Drivers/STM32F7xx_HAL_Driver/Src/stm32f7xx_hal_rcc.c ****   {
1115:Drivers/STM32F7xx_HAL_Driver/Src/stm32f7xx_hal_rcc.c ****     RCC_OscInitStruct->HSIState = RCC_HSI_ON;
 2208              		.loc 1 1115 33
 2209 0050 7B68     		ldr	r3, [r7, #4]
 2210 0052 0122     		movs	r2, #1
 2211 0054 DA60     		str	r2, [r3, #12]
 2212 0056 02E0     		b	.L139
 2213              	.L138:
ARM GAS  /tmp/ccop1lUE.s 			page 60


1116:Drivers/STM32F7xx_HAL_Driver/Src/stm32f7xx_hal_rcc.c ****   }
1117:Drivers/STM32F7xx_HAL_Driver/Src/stm32f7xx_hal_rcc.c ****   else
1118:Drivers/STM32F7xx_HAL_Driver/Src/stm32f7xx_hal_rcc.c ****   {
1119:Drivers/STM32F7xx_HAL_Driver/Src/stm32f7xx_hal_rcc.c ****     RCC_OscInitStruct->HSIState = RCC_HSI_OFF;
 2214              		.loc 1 1119 33
 2215 0058 7B68     		ldr	r3, [r7, #4]
 2216 005a 0022     		movs	r2, #0
 2217 005c DA60     		str	r2, [r3, #12]
 2218              	.L139:
1120:Drivers/STM32F7xx_HAL_Driver/Src/stm32f7xx_hal_rcc.c ****   }
1121:Drivers/STM32F7xx_HAL_Driver/Src/stm32f7xx_hal_rcc.c **** 
1122:Drivers/STM32F7xx_HAL_Driver/Src/stm32f7xx_hal_rcc.c ****   RCC_OscInitStruct->HSICalibrationValue = (uint32_t)((RCC->CR & RCC_CR_HSITRIM) >> RCC_CR_HSITRIM_
 2219              		.loc 1 1122 59
 2220 005e 3B4B     		ldr	r3, .L148
 2221 0060 1B68     		ldr	r3, [r3]
 2222              		.loc 1 1122 44
 2223 0062 DB08     		lsrs	r3, r3, #3
 2224 0064 03F01F02 		and	r2, r3, #31
 2225              		.loc 1 1122 42
 2226 0068 7B68     		ldr	r3, [r7, #4]
 2227 006a 1A61     		str	r2, [r3, #16]
1123:Drivers/STM32F7xx_HAL_Driver/Src/stm32f7xx_hal_rcc.c **** 
1124:Drivers/STM32F7xx_HAL_Driver/Src/stm32f7xx_hal_rcc.c ****   /* Get the LSE configuration -----------------------------------------------*/
1125:Drivers/STM32F7xx_HAL_Driver/Src/stm32f7xx_hal_rcc.c ****   if ((RCC->BDCR & RCC_BDCR_LSEBYP) == RCC_BDCR_LSEBYP)
 2228              		.loc 1 1125 11
 2229 006c 374B     		ldr	r3, .L148
 2230 006e 1B6F     		ldr	r3, [r3, #112]
 2231              		.loc 1 1125 18
 2232 0070 03F00403 		and	r3, r3, #4
 2233              		.loc 1 1125 6
 2234 0074 042B     		cmp	r3, #4
 2235 0076 03D1     		bne	.L140
1126:Drivers/STM32F7xx_HAL_Driver/Src/stm32f7xx_hal_rcc.c ****   {
1127:Drivers/STM32F7xx_HAL_Driver/Src/stm32f7xx_hal_rcc.c ****     RCC_OscInitStruct->LSEState = RCC_LSE_BYPASS;
 2236              		.loc 1 1127 33
 2237 0078 7B68     		ldr	r3, [r7, #4]
 2238 007a 0522     		movs	r2, #5
 2239 007c 9A60     		str	r2, [r3, #8]
 2240 007e 0CE0     		b	.L141
 2241              	.L140:
1128:Drivers/STM32F7xx_HAL_Driver/Src/stm32f7xx_hal_rcc.c ****   }
1129:Drivers/STM32F7xx_HAL_Driver/Src/stm32f7xx_hal_rcc.c ****   else if ((RCC->BDCR & RCC_BDCR_LSEON) == RCC_BDCR_LSEON)
 2242              		.loc 1 1129 16
 2243 0080 324B     		ldr	r3, .L148
 2244 0082 1B6F     		ldr	r3, [r3, #112]
 2245              		.loc 1 1129 23
 2246 0084 03F00103 		and	r3, r3, #1
 2247              		.loc 1 1129 11
 2248 0088 012B     		cmp	r3, #1
 2249 008a 03D1     		bne	.L142
1130:Drivers/STM32F7xx_HAL_Driver/Src/stm32f7xx_hal_rcc.c ****   {
1131:Drivers/STM32F7xx_HAL_Driver/Src/stm32f7xx_hal_rcc.c ****     RCC_OscInitStruct->LSEState = RCC_LSE_ON;
 2250              		.loc 1 1131 33
 2251 008c 7B68     		ldr	r3, [r7, #4]
 2252 008e 0122     		movs	r2, #1
 2253 0090 9A60     		str	r2, [r3, #8]
 2254 0092 02E0     		b	.L141
ARM GAS  /tmp/ccop1lUE.s 			page 61


 2255              	.L142:
1132:Drivers/STM32F7xx_HAL_Driver/Src/stm32f7xx_hal_rcc.c ****   }
1133:Drivers/STM32F7xx_HAL_Driver/Src/stm32f7xx_hal_rcc.c ****   else
1134:Drivers/STM32F7xx_HAL_Driver/Src/stm32f7xx_hal_rcc.c ****   {
1135:Drivers/STM32F7xx_HAL_Driver/Src/stm32f7xx_hal_rcc.c ****     RCC_OscInitStruct->LSEState = RCC_LSE_OFF;
 2256              		.loc 1 1135 33
 2257 0094 7B68     		ldr	r3, [r7, #4]
 2258 0096 0022     		movs	r2, #0
 2259 0098 9A60     		str	r2, [r3, #8]
 2260              	.L141:
1136:Drivers/STM32F7xx_HAL_Driver/Src/stm32f7xx_hal_rcc.c ****   }
1137:Drivers/STM32F7xx_HAL_Driver/Src/stm32f7xx_hal_rcc.c **** 
1138:Drivers/STM32F7xx_HAL_Driver/Src/stm32f7xx_hal_rcc.c ****   /* Get the LSI configuration -----------------------------------------------*/
1139:Drivers/STM32F7xx_HAL_Driver/Src/stm32f7xx_hal_rcc.c ****   if ((RCC->CSR & RCC_CSR_LSION) == RCC_CSR_LSION)
 2261              		.loc 1 1139 11
 2262 009a 2C4B     		ldr	r3, .L148
 2263 009c 5B6F     		ldr	r3, [r3, #116]
 2264              		.loc 1 1139 17
 2265 009e 03F00103 		and	r3, r3, #1
 2266              		.loc 1 1139 6
 2267 00a2 012B     		cmp	r3, #1
 2268 00a4 03D1     		bne	.L143
1140:Drivers/STM32F7xx_HAL_Driver/Src/stm32f7xx_hal_rcc.c ****   {
1141:Drivers/STM32F7xx_HAL_Driver/Src/stm32f7xx_hal_rcc.c ****     RCC_OscInitStruct->LSIState = RCC_LSI_ON;
 2269              		.loc 1 1141 33
 2270 00a6 7B68     		ldr	r3, [r7, #4]
 2271 00a8 0122     		movs	r2, #1
 2272 00aa 5A61     		str	r2, [r3, #20]
 2273 00ac 02E0     		b	.L144
 2274              	.L143:
1142:Drivers/STM32F7xx_HAL_Driver/Src/stm32f7xx_hal_rcc.c ****   }
1143:Drivers/STM32F7xx_HAL_Driver/Src/stm32f7xx_hal_rcc.c ****   else
1144:Drivers/STM32F7xx_HAL_Driver/Src/stm32f7xx_hal_rcc.c ****   {
1145:Drivers/STM32F7xx_HAL_Driver/Src/stm32f7xx_hal_rcc.c ****     RCC_OscInitStruct->LSIState = RCC_LSI_OFF;
 2275              		.loc 1 1145 33
 2276 00ae 7B68     		ldr	r3, [r7, #4]
 2277 00b0 0022     		movs	r2, #0
 2278 00b2 5A61     		str	r2, [r3, #20]
 2279              	.L144:
1146:Drivers/STM32F7xx_HAL_Driver/Src/stm32f7xx_hal_rcc.c ****   }
1147:Drivers/STM32F7xx_HAL_Driver/Src/stm32f7xx_hal_rcc.c **** 
1148:Drivers/STM32F7xx_HAL_Driver/Src/stm32f7xx_hal_rcc.c ****   /* Get the PLL configuration -----------------------------------------------*/
1149:Drivers/STM32F7xx_HAL_Driver/Src/stm32f7xx_hal_rcc.c ****   if ((RCC->CR & RCC_CR_PLLON) == RCC_CR_PLLON)
 2280              		.loc 1 1149 11
 2281 00b4 254B     		ldr	r3, .L148
 2282 00b6 1B68     		ldr	r3, [r3]
 2283              		.loc 1 1149 16
 2284 00b8 03F08073 		and	r3, r3, #16777216
 2285              		.loc 1 1149 6
 2286 00bc B3F1807F 		cmp	r3, #16777216
 2287 00c0 03D1     		bne	.L145
1150:Drivers/STM32F7xx_HAL_Driver/Src/stm32f7xx_hal_rcc.c ****   {
1151:Drivers/STM32F7xx_HAL_Driver/Src/stm32f7xx_hal_rcc.c ****     RCC_OscInitStruct->PLL.PLLState = RCC_PLL_ON;
 2288              		.loc 1 1151 37
 2289 00c2 7B68     		ldr	r3, [r7, #4]
 2290 00c4 0222     		movs	r2, #2
 2291 00c6 9A61     		str	r2, [r3, #24]
ARM GAS  /tmp/ccop1lUE.s 			page 62


 2292 00c8 02E0     		b	.L146
 2293              	.L145:
1152:Drivers/STM32F7xx_HAL_Driver/Src/stm32f7xx_hal_rcc.c ****   }
1153:Drivers/STM32F7xx_HAL_Driver/Src/stm32f7xx_hal_rcc.c ****   else
1154:Drivers/STM32F7xx_HAL_Driver/Src/stm32f7xx_hal_rcc.c ****   {
1155:Drivers/STM32F7xx_HAL_Driver/Src/stm32f7xx_hal_rcc.c ****     RCC_OscInitStruct->PLL.PLLState = RCC_PLL_OFF;
 2294              		.loc 1 1155 37
 2295 00ca 7B68     		ldr	r3, [r7, #4]
 2296 00cc 0122     		movs	r2, #1
 2297 00ce 9A61     		str	r2, [r3, #24]
 2298              	.L146:
1156:Drivers/STM32F7xx_HAL_Driver/Src/stm32f7xx_hal_rcc.c ****   }
1157:Drivers/STM32F7xx_HAL_Driver/Src/stm32f7xx_hal_rcc.c ****   RCC_OscInitStruct->PLL.PLLSource = (uint32_t)(RCC->PLLCFGR & RCC_PLLCFGR_PLLSRC);
 2299              		.loc 1 1157 52
 2300 00d0 1E4B     		ldr	r3, .L148
 2301 00d2 5B68     		ldr	r3, [r3, #4]
 2302              		.loc 1 1157 38
 2303 00d4 03F48002 		and	r2, r3, #4194304
 2304              		.loc 1 1157 36
 2305 00d8 7B68     		ldr	r3, [r7, #4]
 2306 00da DA61     		str	r2, [r3, #28]
1158:Drivers/STM32F7xx_HAL_Driver/Src/stm32f7xx_hal_rcc.c ****   RCC_OscInitStruct->PLL.PLLM = (uint32_t)(RCC->PLLCFGR & RCC_PLLCFGR_PLLM);
 2307              		.loc 1 1158 47
 2308 00dc 1B4B     		ldr	r3, .L148
 2309 00de 5B68     		ldr	r3, [r3, #4]
 2310              		.loc 1 1158 33
 2311 00e0 03F03F02 		and	r2, r3, #63
 2312              		.loc 1 1158 31
 2313 00e4 7B68     		ldr	r3, [r7, #4]
 2314 00e6 1A62     		str	r2, [r3, #32]
1159:Drivers/STM32F7xx_HAL_Driver/Src/stm32f7xx_hal_rcc.c ****   RCC_OscInitStruct->PLL.PLLN = (uint32_t)((RCC->PLLCFGR & RCC_PLLCFGR_PLLN) >> RCC_PLLCFGR_PLLN_Po
 2315              		.loc 1 1159 48
 2316 00e8 184B     		ldr	r3, .L148
 2317 00ea 5B68     		ldr	r3, [r3, #4]
 2318              		.loc 1 1159 33
 2319 00ec 9B09     		lsrs	r3, r3, #6
 2320 00ee C3F30802 		ubfx	r2, r3, #0, #9
 2321              		.loc 1 1159 31
 2322 00f2 7B68     		ldr	r3, [r7, #4]
 2323 00f4 5A62     		str	r2, [r3, #36]
1160:Drivers/STM32F7xx_HAL_Driver/Src/stm32f7xx_hal_rcc.c ****   RCC_OscInitStruct->PLL.PLLP = (uint32_t)((((RCC->PLLCFGR & RCC_PLLCFGR_PLLP) + RCC_PLLCFGR_PLLP_0
 2324              		.loc 1 1160 50
 2325 00f6 154B     		ldr	r3, .L148
 2326 00f8 5B68     		ldr	r3, [r3, #4]
 2327              		.loc 1 1160 60
 2328 00fa 03F44033 		and	r3, r3, #196608
 2329              		.loc 1 1160 80
 2330 00fe 03F58033 		add	r3, r3, #65536
 2331              		.loc 1 1160 102
 2332 0102 5B00     		lsls	r3, r3, #1
 2333              		.loc 1 1160 33
 2334 0104 1A0C     		lsrs	r2, r3, #16
 2335              		.loc 1 1160 31
 2336 0106 7B68     		ldr	r3, [r7, #4]
 2337 0108 9A62     		str	r2, [r3, #40]
1161:Drivers/STM32F7xx_HAL_Driver/Src/stm32f7xx_hal_rcc.c ****   RCC_OscInitStruct->PLL.PLLQ = (uint32_t)((RCC->PLLCFGR & RCC_PLLCFGR_PLLQ) >> RCC_PLLCFGR_PLLQ_Po
 2338              		.loc 1 1161 48
ARM GAS  /tmp/ccop1lUE.s 			page 63


 2339 010a 104B     		ldr	r3, .L148
 2340 010c 5B68     		ldr	r3, [r3, #4]
 2341              		.loc 1 1161 33
 2342 010e 1B0E     		lsrs	r3, r3, #24
 2343 0110 03F00F02 		and	r2, r3, #15
 2344              		.loc 1 1161 31
 2345 0114 7B68     		ldr	r3, [r7, #4]
 2346 0116 DA62     		str	r2, [r3, #44]
1162:Drivers/STM32F7xx_HAL_Driver/Src/stm32f7xx_hal_rcc.c **** #if defined (RCC_PLLCFGR_PLLR)
1163:Drivers/STM32F7xx_HAL_Driver/Src/stm32f7xx_hal_rcc.c ****   RCC_OscInitStruct->PLL.PLLR = (uint32_t)((RCC->PLLCFGR & RCC_PLLCFGR_PLLR) >> POSITION_VAL(RCC_PL
 2347              		.loc 1 1163 48
 2348 0118 0C4B     		ldr	r3, .L148
 2349 011a 5B68     		ldr	r3, [r3, #4]
 2350              		.loc 1 1163 58
 2351 011c 03F0E043 		and	r3, r3, #1879048192
 2352 0120 4FF0E042 		mov	r2, #1879048192
 2353 0124 FA60     		str	r2, [r7, #12]
 2354              	.LBB7:
 2355              	.LBB8:
 2356              		.file 2 "Drivers/CMSIS/Include/cmsis_gcc.h"
   1:Drivers/CMSIS/Include/cmsis_gcc.h **** /**************************************************************************//**
   2:Drivers/CMSIS/Include/cmsis_gcc.h ****  * @file     cmsis_gcc.h
   3:Drivers/CMSIS/Include/cmsis_gcc.h ****  * @brief    CMSIS compiler GCC header file
   4:Drivers/CMSIS/Include/cmsis_gcc.h ****  * @version  V5.0.4
   5:Drivers/CMSIS/Include/cmsis_gcc.h ****  * @date     09. April 2018
   6:Drivers/CMSIS/Include/cmsis_gcc.h ****  ******************************************************************************/
   7:Drivers/CMSIS/Include/cmsis_gcc.h **** /*
   8:Drivers/CMSIS/Include/cmsis_gcc.h ****  * Copyright (c) 2009-2018 Arm Limited. All rights reserved.
   9:Drivers/CMSIS/Include/cmsis_gcc.h ****  *
  10:Drivers/CMSIS/Include/cmsis_gcc.h ****  * SPDX-License-Identifier: Apache-2.0
  11:Drivers/CMSIS/Include/cmsis_gcc.h ****  *
  12:Drivers/CMSIS/Include/cmsis_gcc.h ****  * Licensed under the Apache License, Version 2.0 (the License); you may
  13:Drivers/CMSIS/Include/cmsis_gcc.h ****  * not use this file except in compliance with the License.
  14:Drivers/CMSIS/Include/cmsis_gcc.h ****  * You may obtain a copy of the License at
  15:Drivers/CMSIS/Include/cmsis_gcc.h ****  *
  16:Drivers/CMSIS/Include/cmsis_gcc.h ****  * www.apache.org/licenses/LICENSE-2.0
  17:Drivers/CMSIS/Include/cmsis_gcc.h ****  *
  18:Drivers/CMSIS/Include/cmsis_gcc.h ****  * Unless required by applicable law or agreed to in writing, software
  19:Drivers/CMSIS/Include/cmsis_gcc.h ****  * distributed under the License is distributed on an AS IS BASIS, WITHOUT
  20:Drivers/CMSIS/Include/cmsis_gcc.h ****  * WARRANTIES OR CONDITIONS OF ANY KIND, either express or implied.
  21:Drivers/CMSIS/Include/cmsis_gcc.h ****  * See the License for the specific language governing permissions and
  22:Drivers/CMSIS/Include/cmsis_gcc.h ****  * limitations under the License.
  23:Drivers/CMSIS/Include/cmsis_gcc.h ****  */
  24:Drivers/CMSIS/Include/cmsis_gcc.h **** 
  25:Drivers/CMSIS/Include/cmsis_gcc.h **** #ifndef __CMSIS_GCC_H
  26:Drivers/CMSIS/Include/cmsis_gcc.h **** #define __CMSIS_GCC_H
  27:Drivers/CMSIS/Include/cmsis_gcc.h **** 
  28:Drivers/CMSIS/Include/cmsis_gcc.h **** /* ignore some GCC warnings */
  29:Drivers/CMSIS/Include/cmsis_gcc.h **** #pragma GCC diagnostic push
  30:Drivers/CMSIS/Include/cmsis_gcc.h **** #pragma GCC diagnostic ignored "-Wsign-conversion"
  31:Drivers/CMSIS/Include/cmsis_gcc.h **** #pragma GCC diagnostic ignored "-Wconversion"
  32:Drivers/CMSIS/Include/cmsis_gcc.h **** #pragma GCC diagnostic ignored "-Wunused-parameter"
  33:Drivers/CMSIS/Include/cmsis_gcc.h **** 
  34:Drivers/CMSIS/Include/cmsis_gcc.h **** /* Fallback for __has_builtin */
  35:Drivers/CMSIS/Include/cmsis_gcc.h **** #ifndef __has_builtin
  36:Drivers/CMSIS/Include/cmsis_gcc.h ****   #define __has_builtin(x) (0)
  37:Drivers/CMSIS/Include/cmsis_gcc.h **** #endif
ARM GAS  /tmp/ccop1lUE.s 			page 64


  38:Drivers/CMSIS/Include/cmsis_gcc.h **** 
  39:Drivers/CMSIS/Include/cmsis_gcc.h **** /* CMSIS compiler specific defines */
  40:Drivers/CMSIS/Include/cmsis_gcc.h **** #ifndef   __ASM
  41:Drivers/CMSIS/Include/cmsis_gcc.h ****   #define __ASM                                  __asm
  42:Drivers/CMSIS/Include/cmsis_gcc.h **** #endif
  43:Drivers/CMSIS/Include/cmsis_gcc.h **** #ifndef   __INLINE
  44:Drivers/CMSIS/Include/cmsis_gcc.h ****   #define __INLINE                               inline
  45:Drivers/CMSIS/Include/cmsis_gcc.h **** #endif
  46:Drivers/CMSIS/Include/cmsis_gcc.h **** #ifndef   __STATIC_INLINE
  47:Drivers/CMSIS/Include/cmsis_gcc.h ****   #define __STATIC_INLINE                        static inline
  48:Drivers/CMSIS/Include/cmsis_gcc.h **** #endif
  49:Drivers/CMSIS/Include/cmsis_gcc.h **** #ifndef   __STATIC_FORCEINLINE                 
  50:Drivers/CMSIS/Include/cmsis_gcc.h ****   #define __STATIC_FORCEINLINE                   __attribute__((always_inline)) static inline
  51:Drivers/CMSIS/Include/cmsis_gcc.h **** #endif                                           
  52:Drivers/CMSIS/Include/cmsis_gcc.h **** #ifndef   __NO_RETURN
  53:Drivers/CMSIS/Include/cmsis_gcc.h ****   #define __NO_RETURN                            __attribute__((__noreturn__))
  54:Drivers/CMSIS/Include/cmsis_gcc.h **** #endif
  55:Drivers/CMSIS/Include/cmsis_gcc.h **** #ifndef   __USED
  56:Drivers/CMSIS/Include/cmsis_gcc.h ****   #define __USED                                 __attribute__((used))
  57:Drivers/CMSIS/Include/cmsis_gcc.h **** #endif
  58:Drivers/CMSIS/Include/cmsis_gcc.h **** #ifndef   __WEAK
  59:Drivers/CMSIS/Include/cmsis_gcc.h ****   #define __WEAK                                 __attribute__((weak))
  60:Drivers/CMSIS/Include/cmsis_gcc.h **** #endif
  61:Drivers/CMSIS/Include/cmsis_gcc.h **** #ifndef   __PACKED
  62:Drivers/CMSIS/Include/cmsis_gcc.h ****   #define __PACKED                               __attribute__((packed, aligned(1)))
  63:Drivers/CMSIS/Include/cmsis_gcc.h **** #endif
  64:Drivers/CMSIS/Include/cmsis_gcc.h **** #ifndef   __PACKED_STRUCT
  65:Drivers/CMSIS/Include/cmsis_gcc.h ****   #define __PACKED_STRUCT                        struct __attribute__((packed, aligned(1)))
  66:Drivers/CMSIS/Include/cmsis_gcc.h **** #endif
  67:Drivers/CMSIS/Include/cmsis_gcc.h **** #ifndef   __PACKED_UNION
  68:Drivers/CMSIS/Include/cmsis_gcc.h ****   #define __PACKED_UNION                         union __attribute__((packed, aligned(1)))
  69:Drivers/CMSIS/Include/cmsis_gcc.h **** #endif
  70:Drivers/CMSIS/Include/cmsis_gcc.h **** #ifndef   __UNALIGNED_UINT32        /* deprecated */
  71:Drivers/CMSIS/Include/cmsis_gcc.h ****   #pragma GCC diagnostic push
  72:Drivers/CMSIS/Include/cmsis_gcc.h ****   #pragma GCC diagnostic ignored "-Wpacked"
  73:Drivers/CMSIS/Include/cmsis_gcc.h ****   #pragma GCC diagnostic ignored "-Wattributes"
  74:Drivers/CMSIS/Include/cmsis_gcc.h ****   struct __attribute__((packed)) T_UINT32 { uint32_t v; };
  75:Drivers/CMSIS/Include/cmsis_gcc.h ****   #pragma GCC diagnostic pop
  76:Drivers/CMSIS/Include/cmsis_gcc.h ****   #define __UNALIGNED_UINT32(x)                  (((struct T_UINT32 *)(x))->v)
  77:Drivers/CMSIS/Include/cmsis_gcc.h **** #endif
  78:Drivers/CMSIS/Include/cmsis_gcc.h **** #ifndef   __UNALIGNED_UINT16_WRITE
  79:Drivers/CMSIS/Include/cmsis_gcc.h ****   #pragma GCC diagnostic push
  80:Drivers/CMSIS/Include/cmsis_gcc.h ****   #pragma GCC diagnostic ignored "-Wpacked"
  81:Drivers/CMSIS/Include/cmsis_gcc.h ****   #pragma GCC diagnostic ignored "-Wattributes"
  82:Drivers/CMSIS/Include/cmsis_gcc.h ****   __PACKED_STRUCT T_UINT16_WRITE { uint16_t v; };
  83:Drivers/CMSIS/Include/cmsis_gcc.h ****   #pragma GCC diagnostic pop
  84:Drivers/CMSIS/Include/cmsis_gcc.h ****   #define __UNALIGNED_UINT16_WRITE(addr, val)    (void)((((struct T_UINT16_WRITE *)(void *)(addr))-
  85:Drivers/CMSIS/Include/cmsis_gcc.h **** #endif
  86:Drivers/CMSIS/Include/cmsis_gcc.h **** #ifndef   __UNALIGNED_UINT16_READ
  87:Drivers/CMSIS/Include/cmsis_gcc.h ****   #pragma GCC diagnostic push
  88:Drivers/CMSIS/Include/cmsis_gcc.h ****   #pragma GCC diagnostic ignored "-Wpacked"
  89:Drivers/CMSIS/Include/cmsis_gcc.h ****   #pragma GCC diagnostic ignored "-Wattributes"
  90:Drivers/CMSIS/Include/cmsis_gcc.h ****   __PACKED_STRUCT T_UINT16_READ { uint16_t v; };
  91:Drivers/CMSIS/Include/cmsis_gcc.h ****   #pragma GCC diagnostic pop
  92:Drivers/CMSIS/Include/cmsis_gcc.h ****   #define __UNALIGNED_UINT16_READ(addr)          (((const struct T_UINT16_READ *)(const void *)(add
  93:Drivers/CMSIS/Include/cmsis_gcc.h **** #endif
  94:Drivers/CMSIS/Include/cmsis_gcc.h **** #ifndef   __UNALIGNED_UINT32_WRITE
ARM GAS  /tmp/ccop1lUE.s 			page 65


  95:Drivers/CMSIS/Include/cmsis_gcc.h ****   #pragma GCC diagnostic push
  96:Drivers/CMSIS/Include/cmsis_gcc.h ****   #pragma GCC diagnostic ignored "-Wpacked"
  97:Drivers/CMSIS/Include/cmsis_gcc.h ****   #pragma GCC diagnostic ignored "-Wattributes"
  98:Drivers/CMSIS/Include/cmsis_gcc.h ****   __PACKED_STRUCT T_UINT32_WRITE { uint32_t v; };
  99:Drivers/CMSIS/Include/cmsis_gcc.h ****   #pragma GCC diagnostic pop
 100:Drivers/CMSIS/Include/cmsis_gcc.h ****   #define __UNALIGNED_UINT32_WRITE(addr, val)    (void)((((struct T_UINT32_WRITE *)(void *)(addr))-
 101:Drivers/CMSIS/Include/cmsis_gcc.h **** #endif
 102:Drivers/CMSIS/Include/cmsis_gcc.h **** #ifndef   __UNALIGNED_UINT32_READ
 103:Drivers/CMSIS/Include/cmsis_gcc.h ****   #pragma GCC diagnostic push
 104:Drivers/CMSIS/Include/cmsis_gcc.h ****   #pragma GCC diagnostic ignored "-Wpacked"
 105:Drivers/CMSIS/Include/cmsis_gcc.h ****   #pragma GCC diagnostic ignored "-Wattributes"
 106:Drivers/CMSIS/Include/cmsis_gcc.h ****   __PACKED_STRUCT T_UINT32_READ { uint32_t v; };
 107:Drivers/CMSIS/Include/cmsis_gcc.h ****   #pragma GCC diagnostic pop
 108:Drivers/CMSIS/Include/cmsis_gcc.h ****   #define __UNALIGNED_UINT32_READ(addr)          (((const struct T_UINT32_READ *)(const void *)(add
 109:Drivers/CMSIS/Include/cmsis_gcc.h **** #endif
 110:Drivers/CMSIS/Include/cmsis_gcc.h **** #ifndef   __ALIGNED
 111:Drivers/CMSIS/Include/cmsis_gcc.h ****   #define __ALIGNED(x)                           __attribute__((aligned(x)))
 112:Drivers/CMSIS/Include/cmsis_gcc.h **** #endif
 113:Drivers/CMSIS/Include/cmsis_gcc.h **** #ifndef   __RESTRICT
 114:Drivers/CMSIS/Include/cmsis_gcc.h ****   #define __RESTRICT                             __restrict
 115:Drivers/CMSIS/Include/cmsis_gcc.h **** #endif
 116:Drivers/CMSIS/Include/cmsis_gcc.h **** 
 117:Drivers/CMSIS/Include/cmsis_gcc.h **** 
 118:Drivers/CMSIS/Include/cmsis_gcc.h **** /* ###########################  Core Function Access  ########################### */
 119:Drivers/CMSIS/Include/cmsis_gcc.h **** /** \ingroup  CMSIS_Core_FunctionInterface
 120:Drivers/CMSIS/Include/cmsis_gcc.h ****     \defgroup CMSIS_Core_RegAccFunctions CMSIS Core Register Access Functions
 121:Drivers/CMSIS/Include/cmsis_gcc.h ****   @{
 122:Drivers/CMSIS/Include/cmsis_gcc.h ****  */
 123:Drivers/CMSIS/Include/cmsis_gcc.h **** 
 124:Drivers/CMSIS/Include/cmsis_gcc.h **** /**
 125:Drivers/CMSIS/Include/cmsis_gcc.h ****   \brief   Enable IRQ Interrupts
 126:Drivers/CMSIS/Include/cmsis_gcc.h ****   \details Enables IRQ interrupts by clearing the I-bit in the CPSR.
 127:Drivers/CMSIS/Include/cmsis_gcc.h ****            Can only be executed in Privileged modes.
 128:Drivers/CMSIS/Include/cmsis_gcc.h ****  */
 129:Drivers/CMSIS/Include/cmsis_gcc.h **** __STATIC_FORCEINLINE void __enable_irq(void)
 130:Drivers/CMSIS/Include/cmsis_gcc.h **** {
 131:Drivers/CMSIS/Include/cmsis_gcc.h ****   __ASM volatile ("cpsie i" : : : "memory");
 132:Drivers/CMSIS/Include/cmsis_gcc.h **** }
 133:Drivers/CMSIS/Include/cmsis_gcc.h **** 
 134:Drivers/CMSIS/Include/cmsis_gcc.h **** 
 135:Drivers/CMSIS/Include/cmsis_gcc.h **** /**
 136:Drivers/CMSIS/Include/cmsis_gcc.h ****   \brief   Disable IRQ Interrupts
 137:Drivers/CMSIS/Include/cmsis_gcc.h ****   \details Disables IRQ interrupts by setting the I-bit in the CPSR.
 138:Drivers/CMSIS/Include/cmsis_gcc.h ****            Can only be executed in Privileged modes.
 139:Drivers/CMSIS/Include/cmsis_gcc.h ****  */
 140:Drivers/CMSIS/Include/cmsis_gcc.h **** __STATIC_FORCEINLINE void __disable_irq(void)
 141:Drivers/CMSIS/Include/cmsis_gcc.h **** {
 142:Drivers/CMSIS/Include/cmsis_gcc.h ****   __ASM volatile ("cpsid i" : : : "memory");
 143:Drivers/CMSIS/Include/cmsis_gcc.h **** }
 144:Drivers/CMSIS/Include/cmsis_gcc.h **** 
 145:Drivers/CMSIS/Include/cmsis_gcc.h **** 
 146:Drivers/CMSIS/Include/cmsis_gcc.h **** /**
 147:Drivers/CMSIS/Include/cmsis_gcc.h ****   \brief   Get Control Register
 148:Drivers/CMSIS/Include/cmsis_gcc.h ****   \details Returns the content of the Control Register.
 149:Drivers/CMSIS/Include/cmsis_gcc.h ****   \return               Control Register value
 150:Drivers/CMSIS/Include/cmsis_gcc.h ****  */
 151:Drivers/CMSIS/Include/cmsis_gcc.h **** __STATIC_FORCEINLINE uint32_t __get_CONTROL(void)
ARM GAS  /tmp/ccop1lUE.s 			page 66


 152:Drivers/CMSIS/Include/cmsis_gcc.h **** {
 153:Drivers/CMSIS/Include/cmsis_gcc.h ****   uint32_t result;
 154:Drivers/CMSIS/Include/cmsis_gcc.h **** 
 155:Drivers/CMSIS/Include/cmsis_gcc.h ****   __ASM volatile ("MRS %0, control" : "=r" (result) );
 156:Drivers/CMSIS/Include/cmsis_gcc.h ****   return(result);
 157:Drivers/CMSIS/Include/cmsis_gcc.h **** }
 158:Drivers/CMSIS/Include/cmsis_gcc.h **** 
 159:Drivers/CMSIS/Include/cmsis_gcc.h **** 
 160:Drivers/CMSIS/Include/cmsis_gcc.h **** #if (defined (__ARM_FEATURE_CMSE ) && (__ARM_FEATURE_CMSE == 3))
 161:Drivers/CMSIS/Include/cmsis_gcc.h **** /**
 162:Drivers/CMSIS/Include/cmsis_gcc.h ****   \brief   Get Control Register (non-secure)
 163:Drivers/CMSIS/Include/cmsis_gcc.h ****   \details Returns the content of the non-secure Control Register when in secure mode.
 164:Drivers/CMSIS/Include/cmsis_gcc.h ****   \return               non-secure Control Register value
 165:Drivers/CMSIS/Include/cmsis_gcc.h ****  */
 166:Drivers/CMSIS/Include/cmsis_gcc.h **** __STATIC_FORCEINLINE uint32_t __TZ_get_CONTROL_NS(void)
 167:Drivers/CMSIS/Include/cmsis_gcc.h **** {
 168:Drivers/CMSIS/Include/cmsis_gcc.h ****   uint32_t result;
 169:Drivers/CMSIS/Include/cmsis_gcc.h **** 
 170:Drivers/CMSIS/Include/cmsis_gcc.h ****   __ASM volatile ("MRS %0, control_ns" : "=r" (result) );
 171:Drivers/CMSIS/Include/cmsis_gcc.h ****   return(result);
 172:Drivers/CMSIS/Include/cmsis_gcc.h **** }
 173:Drivers/CMSIS/Include/cmsis_gcc.h **** #endif
 174:Drivers/CMSIS/Include/cmsis_gcc.h **** 
 175:Drivers/CMSIS/Include/cmsis_gcc.h **** 
 176:Drivers/CMSIS/Include/cmsis_gcc.h **** /**
 177:Drivers/CMSIS/Include/cmsis_gcc.h ****   \brief   Set Control Register
 178:Drivers/CMSIS/Include/cmsis_gcc.h ****   \details Writes the given value to the Control Register.
 179:Drivers/CMSIS/Include/cmsis_gcc.h ****   \param [in]    control  Control Register value to set
 180:Drivers/CMSIS/Include/cmsis_gcc.h ****  */
 181:Drivers/CMSIS/Include/cmsis_gcc.h **** __STATIC_FORCEINLINE void __set_CONTROL(uint32_t control)
 182:Drivers/CMSIS/Include/cmsis_gcc.h **** {
 183:Drivers/CMSIS/Include/cmsis_gcc.h ****   __ASM volatile ("MSR control, %0" : : "r" (control) : "memory");
 184:Drivers/CMSIS/Include/cmsis_gcc.h **** }
 185:Drivers/CMSIS/Include/cmsis_gcc.h **** 
 186:Drivers/CMSIS/Include/cmsis_gcc.h **** 
 187:Drivers/CMSIS/Include/cmsis_gcc.h **** #if (defined (__ARM_FEATURE_CMSE ) && (__ARM_FEATURE_CMSE == 3))
 188:Drivers/CMSIS/Include/cmsis_gcc.h **** /**
 189:Drivers/CMSIS/Include/cmsis_gcc.h ****   \brief   Set Control Register (non-secure)
 190:Drivers/CMSIS/Include/cmsis_gcc.h ****   \details Writes the given value to the non-secure Control Register when in secure state.
 191:Drivers/CMSIS/Include/cmsis_gcc.h ****   \param [in]    control  Control Register value to set
 192:Drivers/CMSIS/Include/cmsis_gcc.h ****  */
 193:Drivers/CMSIS/Include/cmsis_gcc.h **** __STATIC_FORCEINLINE void __TZ_set_CONTROL_NS(uint32_t control)
 194:Drivers/CMSIS/Include/cmsis_gcc.h **** {
 195:Drivers/CMSIS/Include/cmsis_gcc.h ****   __ASM volatile ("MSR control_ns, %0" : : "r" (control) : "memory");
 196:Drivers/CMSIS/Include/cmsis_gcc.h **** }
 197:Drivers/CMSIS/Include/cmsis_gcc.h **** #endif
 198:Drivers/CMSIS/Include/cmsis_gcc.h **** 
 199:Drivers/CMSIS/Include/cmsis_gcc.h **** 
 200:Drivers/CMSIS/Include/cmsis_gcc.h **** /**
 201:Drivers/CMSIS/Include/cmsis_gcc.h ****   \brief   Get IPSR Register
 202:Drivers/CMSIS/Include/cmsis_gcc.h ****   \details Returns the content of the IPSR Register.
 203:Drivers/CMSIS/Include/cmsis_gcc.h ****   \return               IPSR Register value
 204:Drivers/CMSIS/Include/cmsis_gcc.h ****  */
 205:Drivers/CMSIS/Include/cmsis_gcc.h **** __STATIC_FORCEINLINE uint32_t __get_IPSR(void)
 206:Drivers/CMSIS/Include/cmsis_gcc.h **** {
 207:Drivers/CMSIS/Include/cmsis_gcc.h ****   uint32_t result;
 208:Drivers/CMSIS/Include/cmsis_gcc.h **** 
ARM GAS  /tmp/ccop1lUE.s 			page 67


 209:Drivers/CMSIS/Include/cmsis_gcc.h ****   __ASM volatile ("MRS %0, ipsr" : "=r" (result) );
 210:Drivers/CMSIS/Include/cmsis_gcc.h ****   return(result);
 211:Drivers/CMSIS/Include/cmsis_gcc.h **** }
 212:Drivers/CMSIS/Include/cmsis_gcc.h **** 
 213:Drivers/CMSIS/Include/cmsis_gcc.h **** 
 214:Drivers/CMSIS/Include/cmsis_gcc.h **** /**
 215:Drivers/CMSIS/Include/cmsis_gcc.h ****   \brief   Get APSR Register
 216:Drivers/CMSIS/Include/cmsis_gcc.h ****   \details Returns the content of the APSR Register.
 217:Drivers/CMSIS/Include/cmsis_gcc.h ****   \return               APSR Register value
 218:Drivers/CMSIS/Include/cmsis_gcc.h ****  */
 219:Drivers/CMSIS/Include/cmsis_gcc.h **** __STATIC_FORCEINLINE uint32_t __get_APSR(void)
 220:Drivers/CMSIS/Include/cmsis_gcc.h **** {
 221:Drivers/CMSIS/Include/cmsis_gcc.h ****   uint32_t result;
 222:Drivers/CMSIS/Include/cmsis_gcc.h **** 
 223:Drivers/CMSIS/Include/cmsis_gcc.h ****   __ASM volatile ("MRS %0, apsr" : "=r" (result) );
 224:Drivers/CMSIS/Include/cmsis_gcc.h ****   return(result);
 225:Drivers/CMSIS/Include/cmsis_gcc.h **** }
 226:Drivers/CMSIS/Include/cmsis_gcc.h **** 
 227:Drivers/CMSIS/Include/cmsis_gcc.h **** 
 228:Drivers/CMSIS/Include/cmsis_gcc.h **** /**
 229:Drivers/CMSIS/Include/cmsis_gcc.h ****   \brief   Get xPSR Register
 230:Drivers/CMSIS/Include/cmsis_gcc.h ****   \details Returns the content of the xPSR Register.
 231:Drivers/CMSIS/Include/cmsis_gcc.h ****   \return               xPSR Register value
 232:Drivers/CMSIS/Include/cmsis_gcc.h ****  */
 233:Drivers/CMSIS/Include/cmsis_gcc.h **** __STATIC_FORCEINLINE uint32_t __get_xPSR(void)
 234:Drivers/CMSIS/Include/cmsis_gcc.h **** {
 235:Drivers/CMSIS/Include/cmsis_gcc.h ****   uint32_t result;
 236:Drivers/CMSIS/Include/cmsis_gcc.h **** 
 237:Drivers/CMSIS/Include/cmsis_gcc.h ****   __ASM volatile ("MRS %0, xpsr" : "=r" (result) );
 238:Drivers/CMSIS/Include/cmsis_gcc.h ****   return(result);
 239:Drivers/CMSIS/Include/cmsis_gcc.h **** }
 240:Drivers/CMSIS/Include/cmsis_gcc.h **** 
 241:Drivers/CMSIS/Include/cmsis_gcc.h **** 
 242:Drivers/CMSIS/Include/cmsis_gcc.h **** /**
 243:Drivers/CMSIS/Include/cmsis_gcc.h ****   \brief   Get Process Stack Pointer
 244:Drivers/CMSIS/Include/cmsis_gcc.h ****   \details Returns the current value of the Process Stack Pointer (PSP).
 245:Drivers/CMSIS/Include/cmsis_gcc.h ****   \return               PSP Register value
 246:Drivers/CMSIS/Include/cmsis_gcc.h ****  */
 247:Drivers/CMSIS/Include/cmsis_gcc.h **** __STATIC_FORCEINLINE uint32_t __get_PSP(void)
 248:Drivers/CMSIS/Include/cmsis_gcc.h **** {
 249:Drivers/CMSIS/Include/cmsis_gcc.h ****   uint32_t result;
 250:Drivers/CMSIS/Include/cmsis_gcc.h **** 
 251:Drivers/CMSIS/Include/cmsis_gcc.h ****   __ASM volatile ("MRS %0, psp"  : "=r" (result) );
 252:Drivers/CMSIS/Include/cmsis_gcc.h ****   return(result);
 253:Drivers/CMSIS/Include/cmsis_gcc.h **** }
 254:Drivers/CMSIS/Include/cmsis_gcc.h **** 
 255:Drivers/CMSIS/Include/cmsis_gcc.h **** 
 256:Drivers/CMSIS/Include/cmsis_gcc.h **** #if (defined (__ARM_FEATURE_CMSE ) && (__ARM_FEATURE_CMSE == 3))
 257:Drivers/CMSIS/Include/cmsis_gcc.h **** /**
 258:Drivers/CMSIS/Include/cmsis_gcc.h ****   \brief   Get Process Stack Pointer (non-secure)
 259:Drivers/CMSIS/Include/cmsis_gcc.h ****   \details Returns the current value of the non-secure Process Stack Pointer (PSP) when in secure s
 260:Drivers/CMSIS/Include/cmsis_gcc.h ****   \return               PSP Register value
 261:Drivers/CMSIS/Include/cmsis_gcc.h ****  */
 262:Drivers/CMSIS/Include/cmsis_gcc.h **** __STATIC_FORCEINLINE uint32_t __TZ_get_PSP_NS(void)
 263:Drivers/CMSIS/Include/cmsis_gcc.h **** {
 264:Drivers/CMSIS/Include/cmsis_gcc.h ****   uint32_t result;
 265:Drivers/CMSIS/Include/cmsis_gcc.h **** 
ARM GAS  /tmp/ccop1lUE.s 			page 68


 266:Drivers/CMSIS/Include/cmsis_gcc.h ****   __ASM volatile ("MRS %0, psp_ns"  : "=r" (result) );
 267:Drivers/CMSIS/Include/cmsis_gcc.h ****   return(result);
 268:Drivers/CMSIS/Include/cmsis_gcc.h **** }
 269:Drivers/CMSIS/Include/cmsis_gcc.h **** #endif
 270:Drivers/CMSIS/Include/cmsis_gcc.h **** 
 271:Drivers/CMSIS/Include/cmsis_gcc.h **** 
 272:Drivers/CMSIS/Include/cmsis_gcc.h **** /**
 273:Drivers/CMSIS/Include/cmsis_gcc.h ****   \brief   Set Process Stack Pointer
 274:Drivers/CMSIS/Include/cmsis_gcc.h ****   \details Assigns the given value to the Process Stack Pointer (PSP).
 275:Drivers/CMSIS/Include/cmsis_gcc.h ****   \param [in]    topOfProcStack  Process Stack Pointer value to set
 276:Drivers/CMSIS/Include/cmsis_gcc.h ****  */
 277:Drivers/CMSIS/Include/cmsis_gcc.h **** __STATIC_FORCEINLINE void __set_PSP(uint32_t topOfProcStack)
 278:Drivers/CMSIS/Include/cmsis_gcc.h **** {
 279:Drivers/CMSIS/Include/cmsis_gcc.h ****   __ASM volatile ("MSR psp, %0" : : "r" (topOfProcStack) : );
 280:Drivers/CMSIS/Include/cmsis_gcc.h **** }
 281:Drivers/CMSIS/Include/cmsis_gcc.h **** 
 282:Drivers/CMSIS/Include/cmsis_gcc.h **** 
 283:Drivers/CMSIS/Include/cmsis_gcc.h **** #if (defined (__ARM_FEATURE_CMSE ) && (__ARM_FEATURE_CMSE == 3))
 284:Drivers/CMSIS/Include/cmsis_gcc.h **** /**
 285:Drivers/CMSIS/Include/cmsis_gcc.h ****   \brief   Set Process Stack Pointer (non-secure)
 286:Drivers/CMSIS/Include/cmsis_gcc.h ****   \details Assigns the given value to the non-secure Process Stack Pointer (PSP) when in secure sta
 287:Drivers/CMSIS/Include/cmsis_gcc.h ****   \param [in]    topOfProcStack  Process Stack Pointer value to set
 288:Drivers/CMSIS/Include/cmsis_gcc.h ****  */
 289:Drivers/CMSIS/Include/cmsis_gcc.h **** __STATIC_FORCEINLINE void __TZ_set_PSP_NS(uint32_t topOfProcStack)
 290:Drivers/CMSIS/Include/cmsis_gcc.h **** {
 291:Drivers/CMSIS/Include/cmsis_gcc.h ****   __ASM volatile ("MSR psp_ns, %0" : : "r" (topOfProcStack) : );
 292:Drivers/CMSIS/Include/cmsis_gcc.h **** }
 293:Drivers/CMSIS/Include/cmsis_gcc.h **** #endif
 294:Drivers/CMSIS/Include/cmsis_gcc.h **** 
 295:Drivers/CMSIS/Include/cmsis_gcc.h **** 
 296:Drivers/CMSIS/Include/cmsis_gcc.h **** /**
 297:Drivers/CMSIS/Include/cmsis_gcc.h ****   \brief   Get Main Stack Pointer
 298:Drivers/CMSIS/Include/cmsis_gcc.h ****   \details Returns the current value of the Main Stack Pointer (MSP).
 299:Drivers/CMSIS/Include/cmsis_gcc.h ****   \return               MSP Register value
 300:Drivers/CMSIS/Include/cmsis_gcc.h ****  */
 301:Drivers/CMSIS/Include/cmsis_gcc.h **** __STATIC_FORCEINLINE uint32_t __get_MSP(void)
 302:Drivers/CMSIS/Include/cmsis_gcc.h **** {
 303:Drivers/CMSIS/Include/cmsis_gcc.h ****   uint32_t result;
 304:Drivers/CMSIS/Include/cmsis_gcc.h **** 
 305:Drivers/CMSIS/Include/cmsis_gcc.h ****   __ASM volatile ("MRS %0, msp" : "=r" (result) );
 306:Drivers/CMSIS/Include/cmsis_gcc.h ****   return(result);
 307:Drivers/CMSIS/Include/cmsis_gcc.h **** }
 308:Drivers/CMSIS/Include/cmsis_gcc.h **** 
 309:Drivers/CMSIS/Include/cmsis_gcc.h **** 
 310:Drivers/CMSIS/Include/cmsis_gcc.h **** #if (defined (__ARM_FEATURE_CMSE ) && (__ARM_FEATURE_CMSE == 3))
 311:Drivers/CMSIS/Include/cmsis_gcc.h **** /**
 312:Drivers/CMSIS/Include/cmsis_gcc.h ****   \brief   Get Main Stack Pointer (non-secure)
 313:Drivers/CMSIS/Include/cmsis_gcc.h ****   \details Returns the current value of the non-secure Main Stack Pointer (MSP) when in secure stat
 314:Drivers/CMSIS/Include/cmsis_gcc.h ****   \return               MSP Register value
 315:Drivers/CMSIS/Include/cmsis_gcc.h ****  */
 316:Drivers/CMSIS/Include/cmsis_gcc.h **** __STATIC_FORCEINLINE uint32_t __TZ_get_MSP_NS(void)
 317:Drivers/CMSIS/Include/cmsis_gcc.h **** {
 318:Drivers/CMSIS/Include/cmsis_gcc.h ****   uint32_t result;
 319:Drivers/CMSIS/Include/cmsis_gcc.h **** 
 320:Drivers/CMSIS/Include/cmsis_gcc.h ****   __ASM volatile ("MRS %0, msp_ns" : "=r" (result) );
 321:Drivers/CMSIS/Include/cmsis_gcc.h ****   return(result);
 322:Drivers/CMSIS/Include/cmsis_gcc.h **** }
ARM GAS  /tmp/ccop1lUE.s 			page 69


 323:Drivers/CMSIS/Include/cmsis_gcc.h **** #endif
 324:Drivers/CMSIS/Include/cmsis_gcc.h **** 
 325:Drivers/CMSIS/Include/cmsis_gcc.h **** 
 326:Drivers/CMSIS/Include/cmsis_gcc.h **** /**
 327:Drivers/CMSIS/Include/cmsis_gcc.h ****   \brief   Set Main Stack Pointer
 328:Drivers/CMSIS/Include/cmsis_gcc.h ****   \details Assigns the given value to the Main Stack Pointer (MSP).
 329:Drivers/CMSIS/Include/cmsis_gcc.h ****   \param [in]    topOfMainStack  Main Stack Pointer value to set
 330:Drivers/CMSIS/Include/cmsis_gcc.h ****  */
 331:Drivers/CMSIS/Include/cmsis_gcc.h **** __STATIC_FORCEINLINE void __set_MSP(uint32_t topOfMainStack)
 332:Drivers/CMSIS/Include/cmsis_gcc.h **** {
 333:Drivers/CMSIS/Include/cmsis_gcc.h ****   __ASM volatile ("MSR msp, %0" : : "r" (topOfMainStack) : );
 334:Drivers/CMSIS/Include/cmsis_gcc.h **** }
 335:Drivers/CMSIS/Include/cmsis_gcc.h **** 
 336:Drivers/CMSIS/Include/cmsis_gcc.h **** 
 337:Drivers/CMSIS/Include/cmsis_gcc.h **** #if (defined (__ARM_FEATURE_CMSE ) && (__ARM_FEATURE_CMSE == 3))
 338:Drivers/CMSIS/Include/cmsis_gcc.h **** /**
 339:Drivers/CMSIS/Include/cmsis_gcc.h ****   \brief   Set Main Stack Pointer (non-secure)
 340:Drivers/CMSIS/Include/cmsis_gcc.h ****   \details Assigns the given value to the non-secure Main Stack Pointer (MSP) when in secure state.
 341:Drivers/CMSIS/Include/cmsis_gcc.h ****   \param [in]    topOfMainStack  Main Stack Pointer value to set
 342:Drivers/CMSIS/Include/cmsis_gcc.h ****  */
 343:Drivers/CMSIS/Include/cmsis_gcc.h **** __STATIC_FORCEINLINE void __TZ_set_MSP_NS(uint32_t topOfMainStack)
 344:Drivers/CMSIS/Include/cmsis_gcc.h **** {
 345:Drivers/CMSIS/Include/cmsis_gcc.h ****   __ASM volatile ("MSR msp_ns, %0" : : "r" (topOfMainStack) : );
 346:Drivers/CMSIS/Include/cmsis_gcc.h **** }
 347:Drivers/CMSIS/Include/cmsis_gcc.h **** #endif
 348:Drivers/CMSIS/Include/cmsis_gcc.h **** 
 349:Drivers/CMSIS/Include/cmsis_gcc.h **** 
 350:Drivers/CMSIS/Include/cmsis_gcc.h **** #if (defined (__ARM_FEATURE_CMSE ) && (__ARM_FEATURE_CMSE == 3))
 351:Drivers/CMSIS/Include/cmsis_gcc.h **** /**
 352:Drivers/CMSIS/Include/cmsis_gcc.h ****   \brief   Get Stack Pointer (non-secure)
 353:Drivers/CMSIS/Include/cmsis_gcc.h ****   \details Returns the current value of the non-secure Stack Pointer (SP) when in secure state.
 354:Drivers/CMSIS/Include/cmsis_gcc.h ****   \return               SP Register value
 355:Drivers/CMSIS/Include/cmsis_gcc.h ****  */
 356:Drivers/CMSIS/Include/cmsis_gcc.h **** __STATIC_FORCEINLINE uint32_t __TZ_get_SP_NS(void)
 357:Drivers/CMSIS/Include/cmsis_gcc.h **** {
 358:Drivers/CMSIS/Include/cmsis_gcc.h ****   uint32_t result;
 359:Drivers/CMSIS/Include/cmsis_gcc.h **** 
 360:Drivers/CMSIS/Include/cmsis_gcc.h ****   __ASM volatile ("MRS %0, sp_ns" : "=r" (result) );
 361:Drivers/CMSIS/Include/cmsis_gcc.h ****   return(result);
 362:Drivers/CMSIS/Include/cmsis_gcc.h **** }
 363:Drivers/CMSIS/Include/cmsis_gcc.h **** 
 364:Drivers/CMSIS/Include/cmsis_gcc.h **** 
 365:Drivers/CMSIS/Include/cmsis_gcc.h **** /**
 366:Drivers/CMSIS/Include/cmsis_gcc.h ****   \brief   Set Stack Pointer (non-secure)
 367:Drivers/CMSIS/Include/cmsis_gcc.h ****   \details Assigns the given value to the non-secure Stack Pointer (SP) when in secure state.
 368:Drivers/CMSIS/Include/cmsis_gcc.h ****   \param [in]    topOfStack  Stack Pointer value to set
 369:Drivers/CMSIS/Include/cmsis_gcc.h ****  */
 370:Drivers/CMSIS/Include/cmsis_gcc.h **** __STATIC_FORCEINLINE void __TZ_set_SP_NS(uint32_t topOfStack)
 371:Drivers/CMSIS/Include/cmsis_gcc.h **** {
 372:Drivers/CMSIS/Include/cmsis_gcc.h ****   __ASM volatile ("MSR sp_ns, %0" : : "r" (topOfStack) : );
 373:Drivers/CMSIS/Include/cmsis_gcc.h **** }
 374:Drivers/CMSIS/Include/cmsis_gcc.h **** #endif
 375:Drivers/CMSIS/Include/cmsis_gcc.h **** 
 376:Drivers/CMSIS/Include/cmsis_gcc.h **** 
 377:Drivers/CMSIS/Include/cmsis_gcc.h **** /**
 378:Drivers/CMSIS/Include/cmsis_gcc.h ****   \brief   Get Priority Mask
 379:Drivers/CMSIS/Include/cmsis_gcc.h ****   \details Returns the current state of the priority mask bit from the Priority Mask Register.
ARM GAS  /tmp/ccop1lUE.s 			page 70


 380:Drivers/CMSIS/Include/cmsis_gcc.h ****   \return               Priority Mask value
 381:Drivers/CMSIS/Include/cmsis_gcc.h ****  */
 382:Drivers/CMSIS/Include/cmsis_gcc.h **** __STATIC_FORCEINLINE uint32_t __get_PRIMASK(void)
 383:Drivers/CMSIS/Include/cmsis_gcc.h **** {
 384:Drivers/CMSIS/Include/cmsis_gcc.h ****   uint32_t result;
 385:Drivers/CMSIS/Include/cmsis_gcc.h **** 
 386:Drivers/CMSIS/Include/cmsis_gcc.h ****   __ASM volatile ("MRS %0, primask" : "=r" (result) :: "memory");
 387:Drivers/CMSIS/Include/cmsis_gcc.h ****   return(result);
 388:Drivers/CMSIS/Include/cmsis_gcc.h **** }
 389:Drivers/CMSIS/Include/cmsis_gcc.h **** 
 390:Drivers/CMSIS/Include/cmsis_gcc.h **** 
 391:Drivers/CMSIS/Include/cmsis_gcc.h **** #if (defined (__ARM_FEATURE_CMSE ) && (__ARM_FEATURE_CMSE == 3))
 392:Drivers/CMSIS/Include/cmsis_gcc.h **** /**
 393:Drivers/CMSIS/Include/cmsis_gcc.h ****   \brief   Get Priority Mask (non-secure)
 394:Drivers/CMSIS/Include/cmsis_gcc.h ****   \details Returns the current state of the non-secure priority mask bit from the Priority Mask Reg
 395:Drivers/CMSIS/Include/cmsis_gcc.h ****   \return               Priority Mask value
 396:Drivers/CMSIS/Include/cmsis_gcc.h ****  */
 397:Drivers/CMSIS/Include/cmsis_gcc.h **** __STATIC_FORCEINLINE uint32_t __TZ_get_PRIMASK_NS(void)
 398:Drivers/CMSIS/Include/cmsis_gcc.h **** {
 399:Drivers/CMSIS/Include/cmsis_gcc.h ****   uint32_t result;
 400:Drivers/CMSIS/Include/cmsis_gcc.h **** 
 401:Drivers/CMSIS/Include/cmsis_gcc.h ****   __ASM volatile ("MRS %0, primask_ns" : "=r" (result) :: "memory");
 402:Drivers/CMSIS/Include/cmsis_gcc.h ****   return(result);
 403:Drivers/CMSIS/Include/cmsis_gcc.h **** }
 404:Drivers/CMSIS/Include/cmsis_gcc.h **** #endif
 405:Drivers/CMSIS/Include/cmsis_gcc.h **** 
 406:Drivers/CMSIS/Include/cmsis_gcc.h **** 
 407:Drivers/CMSIS/Include/cmsis_gcc.h **** /**
 408:Drivers/CMSIS/Include/cmsis_gcc.h ****   \brief   Set Priority Mask
 409:Drivers/CMSIS/Include/cmsis_gcc.h ****   \details Assigns the given value to the Priority Mask Register.
 410:Drivers/CMSIS/Include/cmsis_gcc.h ****   \param [in]    priMask  Priority Mask
 411:Drivers/CMSIS/Include/cmsis_gcc.h ****  */
 412:Drivers/CMSIS/Include/cmsis_gcc.h **** __STATIC_FORCEINLINE void __set_PRIMASK(uint32_t priMask)
 413:Drivers/CMSIS/Include/cmsis_gcc.h **** {
 414:Drivers/CMSIS/Include/cmsis_gcc.h ****   __ASM volatile ("MSR primask, %0" : : "r" (priMask) : "memory");
 415:Drivers/CMSIS/Include/cmsis_gcc.h **** }
 416:Drivers/CMSIS/Include/cmsis_gcc.h **** 
 417:Drivers/CMSIS/Include/cmsis_gcc.h **** 
 418:Drivers/CMSIS/Include/cmsis_gcc.h **** #if (defined (__ARM_FEATURE_CMSE ) && (__ARM_FEATURE_CMSE == 3))
 419:Drivers/CMSIS/Include/cmsis_gcc.h **** /**
 420:Drivers/CMSIS/Include/cmsis_gcc.h ****   \brief   Set Priority Mask (non-secure)
 421:Drivers/CMSIS/Include/cmsis_gcc.h ****   \details Assigns the given value to the non-secure Priority Mask Register when in secure state.
 422:Drivers/CMSIS/Include/cmsis_gcc.h ****   \param [in]    priMask  Priority Mask
 423:Drivers/CMSIS/Include/cmsis_gcc.h ****  */
 424:Drivers/CMSIS/Include/cmsis_gcc.h **** __STATIC_FORCEINLINE void __TZ_set_PRIMASK_NS(uint32_t priMask)
 425:Drivers/CMSIS/Include/cmsis_gcc.h **** {
 426:Drivers/CMSIS/Include/cmsis_gcc.h ****   __ASM volatile ("MSR primask_ns, %0" : : "r" (priMask) : "memory");
 427:Drivers/CMSIS/Include/cmsis_gcc.h **** }
 428:Drivers/CMSIS/Include/cmsis_gcc.h **** #endif
 429:Drivers/CMSIS/Include/cmsis_gcc.h **** 
 430:Drivers/CMSIS/Include/cmsis_gcc.h **** 
 431:Drivers/CMSIS/Include/cmsis_gcc.h **** #if ((defined (__ARM_ARCH_7M__      ) && (__ARM_ARCH_7M__      == 1)) || \
 432:Drivers/CMSIS/Include/cmsis_gcc.h ****      (defined (__ARM_ARCH_7EM__     ) && (__ARM_ARCH_7EM__     == 1)) || \
 433:Drivers/CMSIS/Include/cmsis_gcc.h ****      (defined (__ARM_ARCH_8M_MAIN__ ) && (__ARM_ARCH_8M_MAIN__ == 1))    )
 434:Drivers/CMSIS/Include/cmsis_gcc.h **** /**
 435:Drivers/CMSIS/Include/cmsis_gcc.h ****   \brief   Enable FIQ
 436:Drivers/CMSIS/Include/cmsis_gcc.h ****   \details Enables FIQ interrupts by clearing the F-bit in the CPSR.
ARM GAS  /tmp/ccop1lUE.s 			page 71


 437:Drivers/CMSIS/Include/cmsis_gcc.h ****            Can only be executed in Privileged modes.
 438:Drivers/CMSIS/Include/cmsis_gcc.h ****  */
 439:Drivers/CMSIS/Include/cmsis_gcc.h **** __STATIC_FORCEINLINE void __enable_fault_irq(void)
 440:Drivers/CMSIS/Include/cmsis_gcc.h **** {
 441:Drivers/CMSIS/Include/cmsis_gcc.h ****   __ASM volatile ("cpsie f" : : : "memory");
 442:Drivers/CMSIS/Include/cmsis_gcc.h **** }
 443:Drivers/CMSIS/Include/cmsis_gcc.h **** 
 444:Drivers/CMSIS/Include/cmsis_gcc.h **** 
 445:Drivers/CMSIS/Include/cmsis_gcc.h **** /**
 446:Drivers/CMSIS/Include/cmsis_gcc.h ****   \brief   Disable FIQ
 447:Drivers/CMSIS/Include/cmsis_gcc.h ****   \details Disables FIQ interrupts by setting the F-bit in the CPSR.
 448:Drivers/CMSIS/Include/cmsis_gcc.h ****            Can only be executed in Privileged modes.
 449:Drivers/CMSIS/Include/cmsis_gcc.h ****  */
 450:Drivers/CMSIS/Include/cmsis_gcc.h **** __STATIC_FORCEINLINE void __disable_fault_irq(void)
 451:Drivers/CMSIS/Include/cmsis_gcc.h **** {
 452:Drivers/CMSIS/Include/cmsis_gcc.h ****   __ASM volatile ("cpsid f" : : : "memory");
 453:Drivers/CMSIS/Include/cmsis_gcc.h **** }
 454:Drivers/CMSIS/Include/cmsis_gcc.h **** 
 455:Drivers/CMSIS/Include/cmsis_gcc.h **** 
 456:Drivers/CMSIS/Include/cmsis_gcc.h **** /**
 457:Drivers/CMSIS/Include/cmsis_gcc.h ****   \brief   Get Base Priority
 458:Drivers/CMSIS/Include/cmsis_gcc.h ****   \details Returns the current value of the Base Priority register.
 459:Drivers/CMSIS/Include/cmsis_gcc.h ****   \return               Base Priority register value
 460:Drivers/CMSIS/Include/cmsis_gcc.h ****  */
 461:Drivers/CMSIS/Include/cmsis_gcc.h **** __STATIC_FORCEINLINE uint32_t __get_BASEPRI(void)
 462:Drivers/CMSIS/Include/cmsis_gcc.h **** {
 463:Drivers/CMSIS/Include/cmsis_gcc.h ****   uint32_t result;
 464:Drivers/CMSIS/Include/cmsis_gcc.h **** 
 465:Drivers/CMSIS/Include/cmsis_gcc.h ****   __ASM volatile ("MRS %0, basepri" : "=r" (result) );
 466:Drivers/CMSIS/Include/cmsis_gcc.h ****   return(result);
 467:Drivers/CMSIS/Include/cmsis_gcc.h **** }
 468:Drivers/CMSIS/Include/cmsis_gcc.h **** 
 469:Drivers/CMSIS/Include/cmsis_gcc.h **** 
 470:Drivers/CMSIS/Include/cmsis_gcc.h **** #if (defined (__ARM_FEATURE_CMSE ) && (__ARM_FEATURE_CMSE == 3))
 471:Drivers/CMSIS/Include/cmsis_gcc.h **** /**
 472:Drivers/CMSIS/Include/cmsis_gcc.h ****   \brief   Get Base Priority (non-secure)
 473:Drivers/CMSIS/Include/cmsis_gcc.h ****   \details Returns the current value of the non-secure Base Priority register when in secure state.
 474:Drivers/CMSIS/Include/cmsis_gcc.h ****   \return               Base Priority register value
 475:Drivers/CMSIS/Include/cmsis_gcc.h ****  */
 476:Drivers/CMSIS/Include/cmsis_gcc.h **** __STATIC_FORCEINLINE uint32_t __TZ_get_BASEPRI_NS(void)
 477:Drivers/CMSIS/Include/cmsis_gcc.h **** {
 478:Drivers/CMSIS/Include/cmsis_gcc.h ****   uint32_t result;
 479:Drivers/CMSIS/Include/cmsis_gcc.h **** 
 480:Drivers/CMSIS/Include/cmsis_gcc.h ****   __ASM volatile ("MRS %0, basepri_ns" : "=r" (result) );
 481:Drivers/CMSIS/Include/cmsis_gcc.h ****   return(result);
 482:Drivers/CMSIS/Include/cmsis_gcc.h **** }
 483:Drivers/CMSIS/Include/cmsis_gcc.h **** #endif
 484:Drivers/CMSIS/Include/cmsis_gcc.h **** 
 485:Drivers/CMSIS/Include/cmsis_gcc.h **** 
 486:Drivers/CMSIS/Include/cmsis_gcc.h **** /**
 487:Drivers/CMSIS/Include/cmsis_gcc.h ****   \brief   Set Base Priority
 488:Drivers/CMSIS/Include/cmsis_gcc.h ****   \details Assigns the given value to the Base Priority register.
 489:Drivers/CMSIS/Include/cmsis_gcc.h ****   \param [in]    basePri  Base Priority value to set
 490:Drivers/CMSIS/Include/cmsis_gcc.h ****  */
 491:Drivers/CMSIS/Include/cmsis_gcc.h **** __STATIC_FORCEINLINE void __set_BASEPRI(uint32_t basePri)
 492:Drivers/CMSIS/Include/cmsis_gcc.h **** {
 493:Drivers/CMSIS/Include/cmsis_gcc.h ****   __ASM volatile ("MSR basepri, %0" : : "r" (basePri) : "memory");
ARM GAS  /tmp/ccop1lUE.s 			page 72


 494:Drivers/CMSIS/Include/cmsis_gcc.h **** }
 495:Drivers/CMSIS/Include/cmsis_gcc.h **** 
 496:Drivers/CMSIS/Include/cmsis_gcc.h **** 
 497:Drivers/CMSIS/Include/cmsis_gcc.h **** #if (defined (__ARM_FEATURE_CMSE ) && (__ARM_FEATURE_CMSE == 3))
 498:Drivers/CMSIS/Include/cmsis_gcc.h **** /**
 499:Drivers/CMSIS/Include/cmsis_gcc.h ****   \brief   Set Base Priority (non-secure)
 500:Drivers/CMSIS/Include/cmsis_gcc.h ****   \details Assigns the given value to the non-secure Base Priority register when in secure state.
 501:Drivers/CMSIS/Include/cmsis_gcc.h ****   \param [in]    basePri  Base Priority value to set
 502:Drivers/CMSIS/Include/cmsis_gcc.h ****  */
 503:Drivers/CMSIS/Include/cmsis_gcc.h **** __STATIC_FORCEINLINE void __TZ_set_BASEPRI_NS(uint32_t basePri)
 504:Drivers/CMSIS/Include/cmsis_gcc.h **** {
 505:Drivers/CMSIS/Include/cmsis_gcc.h ****   __ASM volatile ("MSR basepri_ns, %0" : : "r" (basePri) : "memory");
 506:Drivers/CMSIS/Include/cmsis_gcc.h **** }
 507:Drivers/CMSIS/Include/cmsis_gcc.h **** #endif
 508:Drivers/CMSIS/Include/cmsis_gcc.h **** 
 509:Drivers/CMSIS/Include/cmsis_gcc.h **** 
 510:Drivers/CMSIS/Include/cmsis_gcc.h **** /**
 511:Drivers/CMSIS/Include/cmsis_gcc.h ****   \brief   Set Base Priority with condition
 512:Drivers/CMSIS/Include/cmsis_gcc.h ****   \details Assigns the given value to the Base Priority register only if BASEPRI masking is disable
 513:Drivers/CMSIS/Include/cmsis_gcc.h ****            or the new value increases the BASEPRI priority level.
 514:Drivers/CMSIS/Include/cmsis_gcc.h ****   \param [in]    basePri  Base Priority value to set
 515:Drivers/CMSIS/Include/cmsis_gcc.h ****  */
 516:Drivers/CMSIS/Include/cmsis_gcc.h **** __STATIC_FORCEINLINE void __set_BASEPRI_MAX(uint32_t basePri)
 517:Drivers/CMSIS/Include/cmsis_gcc.h **** {
 518:Drivers/CMSIS/Include/cmsis_gcc.h ****   __ASM volatile ("MSR basepri_max, %0" : : "r" (basePri) : "memory");
 519:Drivers/CMSIS/Include/cmsis_gcc.h **** }
 520:Drivers/CMSIS/Include/cmsis_gcc.h **** 
 521:Drivers/CMSIS/Include/cmsis_gcc.h **** 
 522:Drivers/CMSIS/Include/cmsis_gcc.h **** /**
 523:Drivers/CMSIS/Include/cmsis_gcc.h ****   \brief   Get Fault Mask
 524:Drivers/CMSIS/Include/cmsis_gcc.h ****   \details Returns the current value of the Fault Mask register.
 525:Drivers/CMSIS/Include/cmsis_gcc.h ****   \return               Fault Mask register value
 526:Drivers/CMSIS/Include/cmsis_gcc.h ****  */
 527:Drivers/CMSIS/Include/cmsis_gcc.h **** __STATIC_FORCEINLINE uint32_t __get_FAULTMASK(void)
 528:Drivers/CMSIS/Include/cmsis_gcc.h **** {
 529:Drivers/CMSIS/Include/cmsis_gcc.h ****   uint32_t result;
 530:Drivers/CMSIS/Include/cmsis_gcc.h **** 
 531:Drivers/CMSIS/Include/cmsis_gcc.h ****   __ASM volatile ("MRS %0, faultmask" : "=r" (result) );
 532:Drivers/CMSIS/Include/cmsis_gcc.h ****   return(result);
 533:Drivers/CMSIS/Include/cmsis_gcc.h **** }
 534:Drivers/CMSIS/Include/cmsis_gcc.h **** 
 535:Drivers/CMSIS/Include/cmsis_gcc.h **** 
 536:Drivers/CMSIS/Include/cmsis_gcc.h **** #if (defined (__ARM_FEATURE_CMSE ) && (__ARM_FEATURE_CMSE == 3))
 537:Drivers/CMSIS/Include/cmsis_gcc.h **** /**
 538:Drivers/CMSIS/Include/cmsis_gcc.h ****   \brief   Get Fault Mask (non-secure)
 539:Drivers/CMSIS/Include/cmsis_gcc.h ****   \details Returns the current value of the non-secure Fault Mask register when in secure state.
 540:Drivers/CMSIS/Include/cmsis_gcc.h ****   \return               Fault Mask register value
 541:Drivers/CMSIS/Include/cmsis_gcc.h ****  */
 542:Drivers/CMSIS/Include/cmsis_gcc.h **** __STATIC_FORCEINLINE uint32_t __TZ_get_FAULTMASK_NS(void)
 543:Drivers/CMSIS/Include/cmsis_gcc.h **** {
 544:Drivers/CMSIS/Include/cmsis_gcc.h ****   uint32_t result;
 545:Drivers/CMSIS/Include/cmsis_gcc.h **** 
 546:Drivers/CMSIS/Include/cmsis_gcc.h ****   __ASM volatile ("MRS %0, faultmask_ns" : "=r" (result) );
 547:Drivers/CMSIS/Include/cmsis_gcc.h ****   return(result);
 548:Drivers/CMSIS/Include/cmsis_gcc.h **** }
 549:Drivers/CMSIS/Include/cmsis_gcc.h **** #endif
 550:Drivers/CMSIS/Include/cmsis_gcc.h **** 
ARM GAS  /tmp/ccop1lUE.s 			page 73


 551:Drivers/CMSIS/Include/cmsis_gcc.h **** 
 552:Drivers/CMSIS/Include/cmsis_gcc.h **** /**
 553:Drivers/CMSIS/Include/cmsis_gcc.h ****   \brief   Set Fault Mask
 554:Drivers/CMSIS/Include/cmsis_gcc.h ****   \details Assigns the given value to the Fault Mask register.
 555:Drivers/CMSIS/Include/cmsis_gcc.h ****   \param [in]    faultMask  Fault Mask value to set
 556:Drivers/CMSIS/Include/cmsis_gcc.h ****  */
 557:Drivers/CMSIS/Include/cmsis_gcc.h **** __STATIC_FORCEINLINE void __set_FAULTMASK(uint32_t faultMask)
 558:Drivers/CMSIS/Include/cmsis_gcc.h **** {
 559:Drivers/CMSIS/Include/cmsis_gcc.h ****   __ASM volatile ("MSR faultmask, %0" : : "r" (faultMask) : "memory");
 560:Drivers/CMSIS/Include/cmsis_gcc.h **** }
 561:Drivers/CMSIS/Include/cmsis_gcc.h **** 
 562:Drivers/CMSIS/Include/cmsis_gcc.h **** 
 563:Drivers/CMSIS/Include/cmsis_gcc.h **** #if (defined (__ARM_FEATURE_CMSE ) && (__ARM_FEATURE_CMSE == 3))
 564:Drivers/CMSIS/Include/cmsis_gcc.h **** /**
 565:Drivers/CMSIS/Include/cmsis_gcc.h ****   \brief   Set Fault Mask (non-secure)
 566:Drivers/CMSIS/Include/cmsis_gcc.h ****   \details Assigns the given value to the non-secure Fault Mask register when in secure state.
 567:Drivers/CMSIS/Include/cmsis_gcc.h ****   \param [in]    faultMask  Fault Mask value to set
 568:Drivers/CMSIS/Include/cmsis_gcc.h ****  */
 569:Drivers/CMSIS/Include/cmsis_gcc.h **** __STATIC_FORCEINLINE void __TZ_set_FAULTMASK_NS(uint32_t faultMask)
 570:Drivers/CMSIS/Include/cmsis_gcc.h **** {
 571:Drivers/CMSIS/Include/cmsis_gcc.h ****   __ASM volatile ("MSR faultmask_ns, %0" : : "r" (faultMask) : "memory");
 572:Drivers/CMSIS/Include/cmsis_gcc.h **** }
 573:Drivers/CMSIS/Include/cmsis_gcc.h **** #endif
 574:Drivers/CMSIS/Include/cmsis_gcc.h **** 
 575:Drivers/CMSIS/Include/cmsis_gcc.h **** #endif /* ((defined (__ARM_ARCH_7M__      ) && (__ARM_ARCH_7M__      == 1)) || \
 576:Drivers/CMSIS/Include/cmsis_gcc.h ****            (defined (__ARM_ARCH_7EM__     ) && (__ARM_ARCH_7EM__     == 1)) || \
 577:Drivers/CMSIS/Include/cmsis_gcc.h ****            (defined (__ARM_ARCH_8M_MAIN__ ) && (__ARM_ARCH_8M_MAIN__ == 1))    ) */
 578:Drivers/CMSIS/Include/cmsis_gcc.h **** 
 579:Drivers/CMSIS/Include/cmsis_gcc.h **** 
 580:Drivers/CMSIS/Include/cmsis_gcc.h **** #if ((defined (__ARM_ARCH_8M_MAIN__ ) && (__ARM_ARCH_8M_MAIN__ == 1)) || \
 581:Drivers/CMSIS/Include/cmsis_gcc.h ****      (defined (__ARM_ARCH_8M_BASE__ ) && (__ARM_ARCH_8M_BASE__ == 1))    )
 582:Drivers/CMSIS/Include/cmsis_gcc.h **** 
 583:Drivers/CMSIS/Include/cmsis_gcc.h **** /**
 584:Drivers/CMSIS/Include/cmsis_gcc.h ****   \brief   Get Process Stack Pointer Limit
 585:Drivers/CMSIS/Include/cmsis_gcc.h ****   Devices without ARMv8-M Main Extensions (i.e. Cortex-M23) lack the non-secure
 586:Drivers/CMSIS/Include/cmsis_gcc.h ****   Stack Pointer Limit register hence zero is returned always in non-secure
 587:Drivers/CMSIS/Include/cmsis_gcc.h ****   mode.
 588:Drivers/CMSIS/Include/cmsis_gcc.h ****   
 589:Drivers/CMSIS/Include/cmsis_gcc.h ****   \details Returns the current value of the Process Stack Pointer Limit (PSPLIM).
 590:Drivers/CMSIS/Include/cmsis_gcc.h ****   \return               PSPLIM Register value
 591:Drivers/CMSIS/Include/cmsis_gcc.h ****  */
 592:Drivers/CMSIS/Include/cmsis_gcc.h **** __STATIC_FORCEINLINE uint32_t __get_PSPLIM(void)
 593:Drivers/CMSIS/Include/cmsis_gcc.h **** {
 594:Drivers/CMSIS/Include/cmsis_gcc.h **** #if (!(defined (__ARM_ARCH_8M_MAIN__ ) && (__ARM_ARCH_8M_MAIN__ == 1)) && \
 595:Drivers/CMSIS/Include/cmsis_gcc.h ****     (!defined (__ARM_FEATURE_CMSE) || (__ARM_FEATURE_CMSE < 3)))
 596:Drivers/CMSIS/Include/cmsis_gcc.h ****     // without main extensions, the non-secure PSPLIM is RAZ/WI
 597:Drivers/CMSIS/Include/cmsis_gcc.h ****   return 0U;
 598:Drivers/CMSIS/Include/cmsis_gcc.h **** #else
 599:Drivers/CMSIS/Include/cmsis_gcc.h ****   uint32_t result;
 600:Drivers/CMSIS/Include/cmsis_gcc.h ****   __ASM volatile ("MRS %0, psplim"  : "=r" (result) );
 601:Drivers/CMSIS/Include/cmsis_gcc.h ****   return result;
 602:Drivers/CMSIS/Include/cmsis_gcc.h **** #endif
 603:Drivers/CMSIS/Include/cmsis_gcc.h **** }
 604:Drivers/CMSIS/Include/cmsis_gcc.h **** 
