ARM GAS  /tmp/ccm3oIpu.s 			page 1


   1              		.cpu cortex-m7
   2              		.eabi_attribute 28, 1
   3              		.eabi_attribute 20, 1
   4              		.eabi_attribute 21, 1
   5              		.eabi_attribute 23, 3
   6              		.eabi_attribute 24, 1
   7              		.eabi_attribute 25, 1
   8              		.eabi_attribute 26, 1
   9              		.eabi_attribute 30, 6
  10              		.eabi_attribute 34, 1
  11              		.eabi_attribute 18, 4
  12              		.file	"system.c"
  13              		.text
  14              	.Ltext0:
  15              		.cfi_sections	.debug_frame
  16              		.comm	module,76,4
  17              		.section	.bss.module_queue_data,"aw",%nobits
  18              		.align	2
  21              	module_queue_data:
  22 0000 00000000 		.space	40
  22      00000000 
  22      00000000 
  22      00000000 
  22      00000000 
  23              		.section	.text.init,"ax",%progbits
  24              		.align	1
  25              		.global	init
  26              		.arch armv7e-m
  27              		.syntax unified
  28              		.thumb
  29              		.thumb_func
  30              		.fpu fpv5-d16
  32              	init:
  33              	.LFB5:
  34              		.file 1 "../../../app/src/system.c"
   1:../../../app/src/system.c **** #include <stdint.h>
   2:../../../app/src/system.c **** 
   3:../../../app/src/system.c **** #include "system.h"
   4:../../../app/src/system.c **** #include "module_using_freertos.h"
   5:../../../app/src/system.c **** 
   6:../../../app/src/system.c **** module_handle_t module;
   7:../../../app/src/system.c **** static uint32_t module_queue_data[MODULE_QUEUE_DEPTH];
   8:../../../app/src/system.c **** 
   9:../../../app/src/system.c **** void init()
  10:../../../app/src/system.c **** {
  35              		.loc 1 10 1
  36              		.cfi_startproc
  37              		@ args = 0, pretend = 0, frame = 0
  38              		@ frame_needed = 1, uses_anonymous_args = 0
  39 0000 80B5     		push	{r7, lr}
  40              	.LCFI0:
  41              		.cfi_def_cfa_offset 8
  42              		.cfi_offset 7, -8
  43              		.cfi_offset 14, -4
  44 0002 00AF     		add	r7, sp, #0
  45              	.LCFI1:
  46              		.cfi_def_cfa_register 7
ARM GAS  /tmp/ccm3oIpu.s 			page 2


  11:../../../app/src/system.c ****     module_init(module_queue_data, &module);
  47              		.loc 1 11 5
  48 0004 0249     		ldr	r1, .L2
  49 0006 0348     		ldr	r0, .L2+4
  50 0008 FFF7FEFF 		bl	module_init
  12:../../../app/src/system.c **** }
  51              		.loc 1 12 1
  52 000c 00BF     		nop
  53 000e 80BD     		pop	{r7, pc}
  54              	.L3:
  55              		.align	2
  56              	.L2:
  57 0010 00000000 		.word	module
  58 0014 00000000 		.word	module_queue_data
  59              		.cfi_endproc
  60              	.LFE5:
  62              		.section	.text.system_main,"ax",%progbits
  63              		.align	1
  64              		.global	system_main
  65              		.syntax unified
  66              		.thumb
  67              		.thumb_func
  68              		.fpu fpv5-d16
  70              	system_main:
  71              	.LFB6:
  13:../../../app/src/system.c **** 
  14:../../../app/src/system.c **** void system_main()
  15:../../../app/src/system.c **** {
  72              		.loc 1 15 1
  73              		.cfi_startproc
  74              		@ args = 0, pretend = 0, frame = 32
  75              		@ frame_needed = 1, uses_anonymous_args = 0
  76 0000 80B5     		push	{r7, lr}
  77              	.LCFI2:
  78              		.cfi_def_cfa_offset 8
  79              		.cfi_offset 7, -8
  80              		.cfi_offset 14, -4
  81 0002 88B0     		sub	sp, sp, #32
  82              	.LCFI3:
  83              		.cfi_def_cfa_offset 40
  84 0004 00AF     		add	r7, sp, #0
  85              	.LCFI4:
  86              		.cfi_def_cfa_register 7
  16:../../../app/src/system.c ****     init();
  87              		.loc 1 16 5
  88 0006 FFF7FEFF 		bl	init
  89              	.LBB2:
  17:../../../app/src/system.c **** 
  18:../../../app/src/system.c ****     for (uint32_t i = 0; i < MODULE_QUEUE_DEPTH; i++)
  90              		.loc 1 18 19
  91 000a 0023     		movs	r3, #0
  92 000c FB61     		str	r3, [r7, #28]
  93              		.loc 1 18 5
  94 000e 06E0     		b	.L5
  95              	.L6:
  19:../../../app/src/system.c ****     {
  20:../../../app/src/system.c ****         module_push(i, &module);
ARM GAS  /tmp/ccm3oIpu.s 			page 3


  96              		.loc 1 20 9 discriminator 3
  97 0010 1149     		ldr	r1, .L9
  98 0012 F869     		ldr	r0, [r7, #28]
  99 0014 FFF7FEFF 		bl	module_push
  18:../../../app/src/system.c ****     {
 100              		.loc 1 18 51 discriminator 3
 101 0018 FB69     		ldr	r3, [r7, #28]
 102 001a 0133     		adds	r3, r3, #1
 103 001c FB61     		str	r3, [r7, #28]
 104              	.L5:
  18:../../../app/src/system.c ****     {
 105              		.loc 1 18 5 discriminator 1
 106 001e FB69     		ldr	r3, [r7, #28]
 107 0020 092B     		cmp	r3, #9
 108 0022 F5D9     		bls	.L6
 109              	.LBE2:
 110              	.LBB3:
  21:../../../app/src/system.c ****     }
  22:../../../app/src/system.c **** 
  23:../../../app/src/system.c ****     uint32_t results[MODULE_QUEUE_DEPTH / 2];
  24:../../../app/src/system.c ****     for (uint32_t i = 0; i < MODULE_QUEUE_DEPTH / 2; i++)
 111              		.loc 1 24 19
 112 0024 0023     		movs	r3, #0
 113 0026 BB61     		str	r3, [r7, #24]
 114              		.loc 1 24 5
 115 0028 0DE0     		b	.L7
 116              	.L8:
  25:../../../app/src/system.c ****     {
  26:../../../app/src/system.c ****         results[i] = module_pop(&module);
 117              		.loc 1 26 22 discriminator 3
 118 002a 0B48     		ldr	r0, .L9
 119 002c FFF7FEFF 		bl	module_pop
 120 0030 0246     		mov	r2, r0
 121              		.loc 1 26 20 discriminator 3
 122 0032 BB69     		ldr	r3, [r7, #24]
 123 0034 9B00     		lsls	r3, r3, #2
 124 0036 07F12001 		add	r1, r7, #32
 125 003a 0B44     		add	r3, r3, r1
 126 003c 43F81C2C 		str	r2, [r3, #-28]
  24:../../../app/src/system.c ****     {
 127              		.loc 1 24 55 discriminator 3
 128 0040 BB69     		ldr	r3, [r7, #24]
 129 0042 0133     		adds	r3, r3, #1
 130 0044 BB61     		str	r3, [r7, #24]
 131              	.L7:
  24:../../../app/src/system.c ****     {
 132              		.loc 1 24 5 discriminator 1
 133 0046 BB69     		ldr	r3, [r7, #24]
 134 0048 042B     		cmp	r3, #4
 135 004a EED9     		bls	.L8
 136              	.LBE3:
  27:../../../app/src/system.c ****     }
  28:../../../app/src/system.c **** 
  29:../../../app/src/system.c ****     (void)results;
  30:../../../app/src/system.c **** }...
 137              		.loc 1 30 1
 138 004c 00BF     		nop
ARM GAS  /tmp/ccm3oIpu.s 			page 4


 139 004e 00BF     		nop
 140 0050 2037     		adds	r7, r7, #32
 141              	.LCFI5:
 142              		.cfi_def_cfa_offset 8
 143 0052 BD46     		mov	sp, r7
 144              	.LCFI6:
 145              		.cfi_def_cfa_register 13
 146              		@ sp needed
 147 0054 80BD     		pop	{r7, pc}
 148              	.L10:
 149 0056 00BF     		.align	2
 150              	.L9:
 151 0058 00000000 		.word	module
 152              		.cfi_endproc
 153              	.LFE6:
 155              		.text
 156              	.Letext0:
 157              		.file 2 "/usr/lib/gcc/arm-none-eabi/9.2.1/include/stdint.h"
 158              		.file 3 "Middlewares/Third_Party/FreeRTOS/Source/portable/GCC/ARM_CM7/r0p1/portmacro.h"
 159              		.file 4 "Middlewares/Third_Party/FreeRTOS/Source/include/FreeRTOS.h"
 160              		.file 5 "Middlewares/Third_Party/FreeRTOS/Source/include/queue.h"
 161              		.file 6 "../../../app/inc/module_using_freertos.h"
 162              		.file 7 "Core/Inc/FreeRTOSConfig.h"
ARM GAS  /tmp/ccm3oIpu.s 			page 5

